
TriModeDriverR2.elf:     file format elf32-littlearm

Sections:
Idx Name          Size      VMA       LMA       File off  Algn
  0 .isr_vector   000000c0  08000000  08000000  00001000  2**0
                  CONTENTS, ALLOC, LOAD, READONLY, DATA
  1 .text         000060d4  080000c0  080000c0  000010c0  2**2
                  CONTENTS, ALLOC, LOAD, READONLY, CODE
  2 .rodata       000002c8  08006194  08006194  00007194  2**2
                  CONTENTS, ALLOC, LOAD, READONLY, DATA
  3 .ARM.extab    00000000  0800645c  0800645c  00008060  2**0
                  CONTENTS
  4 .ARM          00000000  0800645c  0800645c  00008060  2**0
                  CONTENTS
  5 .preinit_array 00000000  0800645c  0800645c  00008060  2**0
                  CONTENTS, ALLOC, LOAD, DATA
  6 .init_array   00000004  0800645c  0800645c  0000745c  2**2
                  CONTENTS, ALLOC, LOAD, READONLY, DATA
  7 .fini_array   00000004  08006460  08006460  00007460  2**2
                  CONTENTS, ALLOC, LOAD, READONLY, DATA
  8 .data         00000060  20000000  08006464  00008000  2**2
                  CONTENTS, ALLOC, LOAD, DATA
  9 .bss          000003b8  20000060  080064c4  00008060  2**2
                  ALLOC
 10 ._user_heap_stack 00000600  20000418  080064c4  00008418  2**0
                  ALLOC
 11 .ARM.attributes 00000028  00000000  00000000  00008060  2**0
                  CONTENTS, READONLY
 12 .debug_info   0000f09a  00000000  00000000  00008088  2**0
                  CONTENTS, READONLY, DEBUGGING, OCTETS
 13 .debug_abbrev 00001ff4  00000000  00000000  00017122  2**0
                  CONTENTS, READONLY, DEBUGGING, OCTETS
 14 .debug_loclists 0000760a  00000000  00000000  00019116  2**0
                  CONTENTS, READONLY, DEBUGGING, OCTETS
 15 .debug_aranges 00000b60  00000000  00000000  00020720  2**3
                  CONTENTS, READONLY, DEBUGGING, OCTETS
 16 .debug_rnglists 00000936  00000000  00000000  00021280  2**0
                  CONTENTS, READONLY, DEBUGGING, OCTETS
 17 .debug_line   0000dbd8  00000000  00000000  00021bb6  2**0
                  CONTENTS, READONLY, DEBUGGING, OCTETS
 18 .debug_str    00004043  00000000  00000000  0002f78e  2**0
                  CONTENTS, READONLY, DEBUGGING, OCTETS
 19 .comment      00000043  00000000  00000000  000337d1  2**0
                  CONTENTS, READONLY
 20 .debug_frame  00002458  00000000  00000000  00033814  2**2
                  CONTENTS, READONLY, DEBUGGING, OCTETS
 21 .debug_line_str 00000081  00000000  00000000  00035c6c  2**0
                  CONTENTS, READONLY, DEBUGGING, OCTETS

Disassembly of section .text:

080000c0 <__do_global_dtors_aux>:
 80000c0:	b510      	push	{r4, lr}
 80000c2:	4c06      	ldr	r4, [pc, #24]	@ (80000dc <__do_global_dtors_aux+0x1c>)
 80000c4:	7823      	ldrb	r3, [r4, #0]
 80000c6:	2b00      	cmp	r3, #0
 80000c8:	d107      	bne.n	80000da <__do_global_dtors_aux+0x1a>
 80000ca:	4b05      	ldr	r3, [pc, #20]	@ (80000e0 <__do_global_dtors_aux+0x20>)
 80000cc:	2b00      	cmp	r3, #0
 80000ce:	d002      	beq.n	80000d6 <__do_global_dtors_aux+0x16>
 80000d0:	4804      	ldr	r0, [pc, #16]	@ (80000e4 <__do_global_dtors_aux+0x24>)
 80000d2:	e000      	b.n	80000d6 <__do_global_dtors_aux+0x16>
 80000d4:	bf00      	nop
 80000d6:	2301      	movs	r3, #1
 80000d8:	7023      	strb	r3, [r4, #0]
 80000da:	bd10      	pop	{r4, pc}
 80000dc:	20000060 	.word	0x20000060
 80000e0:	00000000 	.word	0x00000000
 80000e4:	0800617c 	.word	0x0800617c

080000e8 <frame_dummy>:
 80000e8:	4b04      	ldr	r3, [pc, #16]	@ (80000fc <frame_dummy+0x14>)
 80000ea:	b510      	push	{r4, lr}
 80000ec:	2b00      	cmp	r3, #0
 80000ee:	d003      	beq.n	80000f8 <frame_dummy+0x10>
 80000f0:	4903      	ldr	r1, [pc, #12]	@ (8000100 <frame_dummy+0x18>)
 80000f2:	4804      	ldr	r0, [pc, #16]	@ (8000104 <frame_dummy+0x1c>)
 80000f4:	e000      	b.n	80000f8 <frame_dummy+0x10>
 80000f6:	bf00      	nop
 80000f8:	bd10      	pop	{r4, pc}
 80000fa:	46c0      	nop			@ (mov r8, r8)
 80000fc:	00000000 	.word	0x00000000
 8000100:	20000064 	.word	0x20000064
 8000104:	0800617c 	.word	0x0800617c

08000108 <__udivsi3>:
 8000108:	2200      	movs	r2, #0
 800010a:	0843      	lsrs	r3, r0, #1
 800010c:	428b      	cmp	r3, r1
 800010e:	d374      	bcc.n	80001fa <__udivsi3+0xf2>
 8000110:	0903      	lsrs	r3, r0, #4
 8000112:	428b      	cmp	r3, r1
 8000114:	d35f      	bcc.n	80001d6 <__udivsi3+0xce>
 8000116:	0a03      	lsrs	r3, r0, #8
 8000118:	428b      	cmp	r3, r1
 800011a:	d344      	bcc.n	80001a6 <__udivsi3+0x9e>
 800011c:	0b03      	lsrs	r3, r0, #12
 800011e:	428b      	cmp	r3, r1
 8000120:	d328      	bcc.n	8000174 <__udivsi3+0x6c>
 8000122:	0c03      	lsrs	r3, r0, #16
 8000124:	428b      	cmp	r3, r1
 8000126:	d30d      	bcc.n	8000144 <__udivsi3+0x3c>
 8000128:	22ff      	movs	r2, #255	@ 0xff
 800012a:	0209      	lsls	r1, r1, #8
 800012c:	ba12      	rev	r2, r2
 800012e:	0c03      	lsrs	r3, r0, #16
 8000130:	428b      	cmp	r3, r1
 8000132:	d302      	bcc.n	800013a <__udivsi3+0x32>
 8000134:	1212      	asrs	r2, r2, #8
 8000136:	0209      	lsls	r1, r1, #8
 8000138:	d065      	beq.n	8000206 <__udivsi3+0xfe>
 800013a:	0b03      	lsrs	r3, r0, #12
 800013c:	428b      	cmp	r3, r1
 800013e:	d319      	bcc.n	8000174 <__udivsi3+0x6c>
 8000140:	e000      	b.n	8000144 <__udivsi3+0x3c>
 8000142:	0a09      	lsrs	r1, r1, #8
 8000144:	0bc3      	lsrs	r3, r0, #15
 8000146:	428b      	cmp	r3, r1
 8000148:	d301      	bcc.n	800014e <__udivsi3+0x46>
 800014a:	03cb      	lsls	r3, r1, #15
 800014c:	1ac0      	subs	r0, r0, r3
 800014e:	4152      	adcs	r2, r2
 8000150:	0b83      	lsrs	r3, r0, #14
 8000152:	428b      	cmp	r3, r1
 8000154:	d301      	bcc.n	800015a <__udivsi3+0x52>
 8000156:	038b      	lsls	r3, r1, #14
 8000158:	1ac0      	subs	r0, r0, r3
 800015a:	4152      	adcs	r2, r2
 800015c:	0b43      	lsrs	r3, r0, #13
 800015e:	428b      	cmp	r3, r1
 8000160:	d301      	bcc.n	8000166 <__udivsi3+0x5e>
 8000162:	034b      	lsls	r3, r1, #13
 8000164:	1ac0      	subs	r0, r0, r3
 8000166:	4152      	adcs	r2, r2
 8000168:	0b03      	lsrs	r3, r0, #12
 800016a:	428b      	cmp	r3, r1
 800016c:	d301      	bcc.n	8000172 <__udivsi3+0x6a>
 800016e:	030b      	lsls	r3, r1, #12
 8000170:	1ac0      	subs	r0, r0, r3
 8000172:	4152      	adcs	r2, r2
 8000174:	0ac3      	lsrs	r3, r0, #11
 8000176:	428b      	cmp	r3, r1
 8000178:	d301      	bcc.n	800017e <__udivsi3+0x76>
 800017a:	02cb      	lsls	r3, r1, #11
 800017c:	1ac0      	subs	r0, r0, r3
 800017e:	4152      	adcs	r2, r2
 8000180:	0a83      	lsrs	r3, r0, #10
 8000182:	428b      	cmp	r3, r1
 8000184:	d301      	bcc.n	800018a <__udivsi3+0x82>
 8000186:	028b      	lsls	r3, r1, #10
 8000188:	1ac0      	subs	r0, r0, r3
 800018a:	4152      	adcs	r2, r2
 800018c:	0a43      	lsrs	r3, r0, #9
 800018e:	428b      	cmp	r3, r1
 8000190:	d301      	bcc.n	8000196 <__udivsi3+0x8e>
 8000192:	024b      	lsls	r3, r1, #9
 8000194:	1ac0      	subs	r0, r0, r3
 8000196:	4152      	adcs	r2, r2
 8000198:	0a03      	lsrs	r3, r0, #8
 800019a:	428b      	cmp	r3, r1
 800019c:	d301      	bcc.n	80001a2 <__udivsi3+0x9a>
 800019e:	020b      	lsls	r3, r1, #8
 80001a0:	1ac0      	subs	r0, r0, r3
 80001a2:	4152      	adcs	r2, r2
 80001a4:	d2cd      	bcs.n	8000142 <__udivsi3+0x3a>
 80001a6:	09c3      	lsrs	r3, r0, #7
 80001a8:	428b      	cmp	r3, r1
 80001aa:	d301      	bcc.n	80001b0 <__udivsi3+0xa8>
 80001ac:	01cb      	lsls	r3, r1, #7
 80001ae:	1ac0      	subs	r0, r0, r3
 80001b0:	4152      	adcs	r2, r2
 80001b2:	0983      	lsrs	r3, r0, #6
 80001b4:	428b      	cmp	r3, r1
 80001b6:	d301      	bcc.n	80001bc <__udivsi3+0xb4>
 80001b8:	018b      	lsls	r3, r1, #6
 80001ba:	1ac0      	subs	r0, r0, r3
 80001bc:	4152      	adcs	r2, r2
 80001be:	0943      	lsrs	r3, r0, #5
 80001c0:	428b      	cmp	r3, r1
 80001c2:	d301      	bcc.n	80001c8 <__udivsi3+0xc0>
 80001c4:	014b      	lsls	r3, r1, #5
 80001c6:	1ac0      	subs	r0, r0, r3
 80001c8:	4152      	adcs	r2, r2
 80001ca:	0903      	lsrs	r3, r0, #4
 80001cc:	428b      	cmp	r3, r1
 80001ce:	d301      	bcc.n	80001d4 <__udivsi3+0xcc>
 80001d0:	010b      	lsls	r3, r1, #4
 80001d2:	1ac0      	subs	r0, r0, r3
 80001d4:	4152      	adcs	r2, r2
 80001d6:	08c3      	lsrs	r3, r0, #3
 80001d8:	428b      	cmp	r3, r1
 80001da:	d301      	bcc.n	80001e0 <__udivsi3+0xd8>
 80001dc:	00cb      	lsls	r3, r1, #3
 80001de:	1ac0      	subs	r0, r0, r3
 80001e0:	4152      	adcs	r2, r2
 80001e2:	0883      	lsrs	r3, r0, #2
 80001e4:	428b      	cmp	r3, r1
 80001e6:	d301      	bcc.n	80001ec <__udivsi3+0xe4>
 80001e8:	008b      	lsls	r3, r1, #2
 80001ea:	1ac0      	subs	r0, r0, r3
 80001ec:	4152      	adcs	r2, r2
 80001ee:	0843      	lsrs	r3, r0, #1
 80001f0:	428b      	cmp	r3, r1
 80001f2:	d301      	bcc.n	80001f8 <__udivsi3+0xf0>
 80001f4:	004b      	lsls	r3, r1, #1
 80001f6:	1ac0      	subs	r0, r0, r3
 80001f8:	4152      	adcs	r2, r2
 80001fa:	1a41      	subs	r1, r0, r1
 80001fc:	d200      	bcs.n	8000200 <__udivsi3+0xf8>
 80001fe:	4601      	mov	r1, r0
 8000200:	4152      	adcs	r2, r2
 8000202:	4610      	mov	r0, r2
 8000204:	4770      	bx	lr
 8000206:	e7ff      	b.n	8000208 <__udivsi3+0x100>
 8000208:	b501      	push	{r0, lr}
 800020a:	2000      	movs	r0, #0
 800020c:	f000 f806 	bl	800021c <__aeabi_idiv0>
 8000210:	bd02      	pop	{r1, pc}
 8000212:	46c0      	nop			@ (mov r8, r8)

08000214 <__aeabi_uidivmod>:
 8000214:	2900      	cmp	r1, #0
 8000216:	d0f7      	beq.n	8000208 <__udivsi3+0x100>
 8000218:	e776      	b.n	8000108 <__udivsi3>
 800021a:	4770      	bx	lr

0800021c <__aeabi_idiv0>:
 800021c:	4770      	bx	lr
 800021e:	46c0      	nop			@ (mov r8, r8)

08000220 <__aeabi_cdrcmple>:
 8000220:	4684      	mov	ip, r0
 8000222:	0010      	movs	r0, r2
 8000224:	4662      	mov	r2, ip
 8000226:	468c      	mov	ip, r1
 8000228:	0019      	movs	r1, r3
 800022a:	4663      	mov	r3, ip
 800022c:	e000      	b.n	8000230 <__aeabi_cdcmpeq>
 800022e:	46c0      	nop			@ (mov r8, r8)

08000230 <__aeabi_cdcmpeq>:
 8000230:	b51f      	push	{r0, r1, r2, r3, r4, lr}
 8000232:	f001 fed9 	bl	8001fe8 <__ledf2>
 8000236:	2800      	cmp	r0, #0
 8000238:	d401      	bmi.n	800023e <__aeabi_cdcmpeq+0xe>
 800023a:	2100      	movs	r1, #0
 800023c:	42c8      	cmn	r0, r1
 800023e:	bd1f      	pop	{r0, r1, r2, r3, r4, pc}

08000240 <__aeabi_dcmpeq>:
 8000240:	b510      	push	{r4, lr}
 8000242:	f001 fe19 	bl	8001e78 <__eqdf2>
 8000246:	4240      	negs	r0, r0
 8000248:	3001      	adds	r0, #1
 800024a:	bd10      	pop	{r4, pc}

0800024c <__aeabi_dcmplt>:
 800024c:	b510      	push	{r4, lr}
 800024e:	f001 fecb 	bl	8001fe8 <__ledf2>
 8000252:	2800      	cmp	r0, #0
 8000254:	db01      	blt.n	800025a <__aeabi_dcmplt+0xe>
 8000256:	2000      	movs	r0, #0
 8000258:	bd10      	pop	{r4, pc}
 800025a:	2001      	movs	r0, #1
 800025c:	bd10      	pop	{r4, pc}
 800025e:	46c0      	nop			@ (mov r8, r8)

08000260 <__aeabi_dcmple>:
 8000260:	b510      	push	{r4, lr}
 8000262:	f001 fec1 	bl	8001fe8 <__ledf2>
 8000266:	2800      	cmp	r0, #0
 8000268:	dd01      	ble.n	800026e <__aeabi_dcmple+0xe>
 800026a:	2000      	movs	r0, #0
 800026c:	bd10      	pop	{r4, pc}
 800026e:	2001      	movs	r0, #1
 8000270:	bd10      	pop	{r4, pc}
 8000272:	46c0      	nop			@ (mov r8, r8)

08000274 <__aeabi_dcmpgt>:
 8000274:	b510      	push	{r4, lr}
 8000276:	f001 fe43 	bl	8001f00 <__gedf2>
 800027a:	2800      	cmp	r0, #0
 800027c:	dc01      	bgt.n	8000282 <__aeabi_dcmpgt+0xe>
 800027e:	2000      	movs	r0, #0
 8000280:	bd10      	pop	{r4, pc}
 8000282:	2001      	movs	r0, #1
 8000284:	bd10      	pop	{r4, pc}
 8000286:	46c0      	nop			@ (mov r8, r8)

08000288 <__aeabi_dcmpge>:
 8000288:	b510      	push	{r4, lr}
 800028a:	f001 fe39 	bl	8001f00 <__gedf2>
 800028e:	2800      	cmp	r0, #0
 8000290:	da01      	bge.n	8000296 <__aeabi_dcmpge+0xe>
 8000292:	2000      	movs	r0, #0
 8000294:	bd10      	pop	{r4, pc}
 8000296:	2001      	movs	r0, #1
 8000298:	bd10      	pop	{r4, pc}
 800029a:	46c0      	nop			@ (mov r8, r8)

0800029c <__aeabi_cfrcmple>:
 800029c:	4684      	mov	ip, r0
 800029e:	0008      	movs	r0, r1
 80002a0:	4661      	mov	r1, ip
 80002a2:	e7ff      	b.n	80002a4 <__aeabi_cfcmpeq>

080002a4 <__aeabi_cfcmpeq>:
 80002a4:	b51f      	push	{r0, r1, r2, r3, r4, lr}
 80002a6:	f000 fb8b 	bl	80009c0 <__lesf2>
 80002aa:	2800      	cmp	r0, #0
 80002ac:	d401      	bmi.n	80002b2 <__aeabi_cfcmpeq+0xe>
 80002ae:	2100      	movs	r1, #0
 80002b0:	42c8      	cmn	r0, r1
 80002b2:	bd1f      	pop	{r0, r1, r2, r3, r4, pc}

080002b4 <__aeabi_fcmpeq>:
 80002b4:	b510      	push	{r4, lr}
 80002b6:	f000 fb0b 	bl	80008d0 <__eqsf2>
 80002ba:	4240      	negs	r0, r0
 80002bc:	3001      	adds	r0, #1
 80002be:	bd10      	pop	{r4, pc}

080002c0 <__aeabi_fcmplt>:
 80002c0:	b510      	push	{r4, lr}
 80002c2:	f000 fb7d 	bl	80009c0 <__lesf2>
 80002c6:	2800      	cmp	r0, #0
 80002c8:	db01      	blt.n	80002ce <__aeabi_fcmplt+0xe>
 80002ca:	2000      	movs	r0, #0
 80002cc:	bd10      	pop	{r4, pc}
 80002ce:	2001      	movs	r0, #1
 80002d0:	bd10      	pop	{r4, pc}
 80002d2:	46c0      	nop			@ (mov r8, r8)

080002d4 <__aeabi_fcmple>:
 80002d4:	b510      	push	{r4, lr}
 80002d6:	f000 fb73 	bl	80009c0 <__lesf2>
 80002da:	2800      	cmp	r0, #0
 80002dc:	dd01      	ble.n	80002e2 <__aeabi_fcmple+0xe>
 80002de:	2000      	movs	r0, #0
 80002e0:	bd10      	pop	{r4, pc}
 80002e2:	2001      	movs	r0, #1
 80002e4:	bd10      	pop	{r4, pc}
 80002e6:	46c0      	nop			@ (mov r8, r8)

080002e8 <__aeabi_fcmpgt>:
 80002e8:	b510      	push	{r4, lr}
 80002ea:	f000 fb19 	bl	8000920 <__gesf2>
 80002ee:	2800      	cmp	r0, #0
 80002f0:	dc01      	bgt.n	80002f6 <__aeabi_fcmpgt+0xe>
 80002f2:	2000      	movs	r0, #0
 80002f4:	bd10      	pop	{r4, pc}
 80002f6:	2001      	movs	r0, #1
 80002f8:	bd10      	pop	{r4, pc}
 80002fa:	46c0      	nop			@ (mov r8, r8)

080002fc <__aeabi_fcmpge>:
 80002fc:	b510      	push	{r4, lr}
 80002fe:	f000 fb0f 	bl	8000920 <__gesf2>
 8000302:	2800      	cmp	r0, #0
 8000304:	da01      	bge.n	800030a <__aeabi_fcmpge+0xe>
 8000306:	2000      	movs	r0, #0
 8000308:	bd10      	pop	{r4, pc}
 800030a:	2001      	movs	r0, #1
 800030c:	bd10      	pop	{r4, pc}
 800030e:	46c0      	nop			@ (mov r8, r8)

08000310 <__aeabi_f2uiz>:
 8000310:	219e      	movs	r1, #158	@ 0x9e
 8000312:	b510      	push	{r4, lr}
 8000314:	05c9      	lsls	r1, r1, #23
 8000316:	1c04      	adds	r4, r0, #0
 8000318:	f7ff fff0 	bl	80002fc <__aeabi_fcmpge>
 800031c:	2800      	cmp	r0, #0
 800031e:	d103      	bne.n	8000328 <__aeabi_f2uiz+0x18>
 8000320:	1c20      	adds	r0, r4, #0
 8000322:	f000 fe7d 	bl	8001020 <__aeabi_f2iz>
 8000326:	bd10      	pop	{r4, pc}
 8000328:	219e      	movs	r1, #158	@ 0x9e
 800032a:	1c20      	adds	r0, r4, #0
 800032c:	05c9      	lsls	r1, r1, #23
 800032e:	f000 fcd3 	bl	8000cd8 <__aeabi_fsub>
 8000332:	f000 fe75 	bl	8001020 <__aeabi_f2iz>
 8000336:	2380      	movs	r3, #128	@ 0x80
 8000338:	061b      	lsls	r3, r3, #24
 800033a:	469c      	mov	ip, r3
 800033c:	4460      	add	r0, ip
 800033e:	e7f2      	b.n	8000326 <__aeabi_f2uiz+0x16>

08000340 <__aeabi_d2uiz>:
 8000340:	b570      	push	{r4, r5, r6, lr}
 8000342:	2200      	movs	r2, #0
 8000344:	4b0c      	ldr	r3, [pc, #48]	@ (8000378 <__aeabi_d2uiz+0x38>)
 8000346:	0004      	movs	r4, r0
 8000348:	000d      	movs	r5, r1
 800034a:	f7ff ff9d 	bl	8000288 <__aeabi_dcmpge>
 800034e:	2800      	cmp	r0, #0
 8000350:	d104      	bne.n	800035c <__aeabi_d2uiz+0x1c>
 8000352:	0020      	movs	r0, r4
 8000354:	0029      	movs	r1, r5
 8000356:	f002 fd3f 	bl	8002dd8 <__aeabi_d2iz>
 800035a:	bd70      	pop	{r4, r5, r6, pc}
 800035c:	4b06      	ldr	r3, [pc, #24]	@ (8000378 <__aeabi_d2uiz+0x38>)
 800035e:	2200      	movs	r2, #0
 8000360:	0020      	movs	r0, r4
 8000362:	0029      	movs	r1, r5
 8000364:	f002 f97a 	bl	800265c <__aeabi_dsub>
 8000368:	f002 fd36 	bl	8002dd8 <__aeabi_d2iz>
 800036c:	2380      	movs	r3, #128	@ 0x80
 800036e:	061b      	lsls	r3, r3, #24
 8000370:	469c      	mov	ip, r3
 8000372:	4460      	add	r0, ip
 8000374:	e7f1      	b.n	800035a <__aeabi_d2uiz+0x1a>
 8000376:	46c0      	nop			@ (mov r8, r8)
 8000378:	41e00000 	.word	0x41e00000

0800037c <__aeabi_fadd>:
 800037c:	b5f8      	push	{r3, r4, r5, r6, r7, lr}
 800037e:	46ce      	mov	lr, r9
 8000380:	4647      	mov	r7, r8
 8000382:	0243      	lsls	r3, r0, #9
 8000384:	0a5a      	lsrs	r2, r3, #9
 8000386:	024e      	lsls	r6, r1, #9
 8000388:	0045      	lsls	r5, r0, #1
 800038a:	0fc4      	lsrs	r4, r0, #31
 800038c:	0048      	lsls	r0, r1, #1
 800038e:	4691      	mov	r9, r2
 8000390:	0e2d      	lsrs	r5, r5, #24
 8000392:	0a72      	lsrs	r2, r6, #9
 8000394:	0e00      	lsrs	r0, r0, #24
 8000396:	4694      	mov	ip, r2
 8000398:	b580      	push	{r7, lr}
 800039a:	099b      	lsrs	r3, r3, #6
 800039c:	0fc9      	lsrs	r1, r1, #31
 800039e:	09b6      	lsrs	r6, r6, #6
 80003a0:	1a2a      	subs	r2, r5, r0
 80003a2:	428c      	cmp	r4, r1
 80003a4:	d021      	beq.n	80003ea <__aeabi_fadd+0x6e>
 80003a6:	2a00      	cmp	r2, #0
 80003a8:	dd0d      	ble.n	80003c6 <__aeabi_fadd+0x4a>
 80003aa:	2800      	cmp	r0, #0
 80003ac:	d12d      	bne.n	800040a <__aeabi_fadd+0x8e>
 80003ae:	2e00      	cmp	r6, #0
 80003b0:	d100      	bne.n	80003b4 <__aeabi_fadd+0x38>
 80003b2:	e08d      	b.n	80004d0 <__aeabi_fadd+0x154>
 80003b4:	1e51      	subs	r1, r2, #1
 80003b6:	2a01      	cmp	r2, #1
 80003b8:	d100      	bne.n	80003bc <__aeabi_fadd+0x40>
 80003ba:	e11d      	b.n	80005f8 <__aeabi_fadd+0x27c>
 80003bc:	2aff      	cmp	r2, #255	@ 0xff
 80003be:	d100      	bne.n	80003c2 <__aeabi_fadd+0x46>
 80003c0:	e0ab      	b.n	800051a <__aeabi_fadd+0x19e>
 80003c2:	000a      	movs	r2, r1
 80003c4:	e027      	b.n	8000416 <__aeabi_fadd+0x9a>
 80003c6:	2a00      	cmp	r2, #0
 80003c8:	d04d      	beq.n	8000466 <__aeabi_fadd+0xea>
 80003ca:	1b42      	subs	r2, r0, r5
 80003cc:	2d00      	cmp	r5, #0
 80003ce:	d000      	beq.n	80003d2 <__aeabi_fadd+0x56>
 80003d0:	e0cc      	b.n	800056c <__aeabi_fadd+0x1f0>
 80003d2:	2b00      	cmp	r3, #0
 80003d4:	d100      	bne.n	80003d8 <__aeabi_fadd+0x5c>
 80003d6:	e079      	b.n	80004cc <__aeabi_fadd+0x150>
 80003d8:	1e54      	subs	r4, r2, #1
 80003da:	2a01      	cmp	r2, #1
 80003dc:	d100      	bne.n	80003e0 <__aeabi_fadd+0x64>
 80003de:	e128      	b.n	8000632 <__aeabi_fadd+0x2b6>
 80003e0:	2aff      	cmp	r2, #255	@ 0xff
 80003e2:	d100      	bne.n	80003e6 <__aeabi_fadd+0x6a>
 80003e4:	e097      	b.n	8000516 <__aeabi_fadd+0x19a>
 80003e6:	0022      	movs	r2, r4
 80003e8:	e0c5      	b.n	8000576 <__aeabi_fadd+0x1fa>
 80003ea:	2a00      	cmp	r2, #0
 80003ec:	dc00      	bgt.n	80003f0 <__aeabi_fadd+0x74>
 80003ee:	e096      	b.n	800051e <__aeabi_fadd+0x1a2>
 80003f0:	2800      	cmp	r0, #0
 80003f2:	d04f      	beq.n	8000494 <__aeabi_fadd+0x118>
 80003f4:	2dff      	cmp	r5, #255	@ 0xff
 80003f6:	d100      	bne.n	80003fa <__aeabi_fadd+0x7e>
 80003f8:	e08f      	b.n	800051a <__aeabi_fadd+0x19e>
 80003fa:	2180      	movs	r1, #128	@ 0x80
 80003fc:	04c9      	lsls	r1, r1, #19
 80003fe:	430e      	orrs	r6, r1
 8000400:	2a1b      	cmp	r2, #27
 8000402:	dd51      	ble.n	80004a8 <__aeabi_fadd+0x12c>
 8000404:	002a      	movs	r2, r5
 8000406:	3301      	adds	r3, #1
 8000408:	e018      	b.n	800043c <__aeabi_fadd+0xc0>
 800040a:	2dff      	cmp	r5, #255	@ 0xff
 800040c:	d100      	bne.n	8000410 <__aeabi_fadd+0x94>
 800040e:	e084      	b.n	800051a <__aeabi_fadd+0x19e>
 8000410:	2180      	movs	r1, #128	@ 0x80
 8000412:	04c9      	lsls	r1, r1, #19
 8000414:	430e      	orrs	r6, r1
 8000416:	2101      	movs	r1, #1
 8000418:	2a1b      	cmp	r2, #27
 800041a:	dc08      	bgt.n	800042e <__aeabi_fadd+0xb2>
 800041c:	0031      	movs	r1, r6
 800041e:	2020      	movs	r0, #32
 8000420:	40d1      	lsrs	r1, r2
 8000422:	1a82      	subs	r2, r0, r2
 8000424:	4096      	lsls	r6, r2
 8000426:	0032      	movs	r2, r6
 8000428:	1e50      	subs	r0, r2, #1
 800042a:	4182      	sbcs	r2, r0
 800042c:	4311      	orrs	r1, r2
 800042e:	1a5b      	subs	r3, r3, r1
 8000430:	015a      	lsls	r2, r3, #5
 8000432:	d459      	bmi.n	80004e8 <__aeabi_fadd+0x16c>
 8000434:	2107      	movs	r1, #7
 8000436:	002a      	movs	r2, r5
 8000438:	4019      	ands	r1, r3
 800043a:	d049      	beq.n	80004d0 <__aeabi_fadd+0x154>
 800043c:	210f      	movs	r1, #15
 800043e:	4019      	ands	r1, r3
 8000440:	2904      	cmp	r1, #4
 8000442:	d000      	beq.n	8000446 <__aeabi_fadd+0xca>
 8000444:	3304      	adds	r3, #4
 8000446:	0159      	lsls	r1, r3, #5
 8000448:	d542      	bpl.n	80004d0 <__aeabi_fadd+0x154>
 800044a:	1c50      	adds	r0, r2, #1
 800044c:	2afe      	cmp	r2, #254	@ 0xfe
 800044e:	d03a      	beq.n	80004c6 <__aeabi_fadd+0x14a>
 8000450:	019b      	lsls	r3, r3, #6
 8000452:	b2c0      	uxtb	r0, r0
 8000454:	0a5b      	lsrs	r3, r3, #9
 8000456:	05c0      	lsls	r0, r0, #23
 8000458:	4318      	orrs	r0, r3
 800045a:	07e4      	lsls	r4, r4, #31
 800045c:	4320      	orrs	r0, r4
 800045e:	bcc0      	pop	{r6, r7}
 8000460:	46b9      	mov	r9, r7
 8000462:	46b0      	mov	r8, r6
 8000464:	bdf8      	pop	{r3, r4, r5, r6, r7, pc}
 8000466:	20fe      	movs	r0, #254	@ 0xfe
 8000468:	4680      	mov	r8, r0
 800046a:	1c6f      	adds	r7, r5, #1
 800046c:	0038      	movs	r0, r7
 800046e:	4647      	mov	r7, r8
 8000470:	4207      	tst	r7, r0
 8000472:	d000      	beq.n	8000476 <__aeabi_fadd+0xfa>
 8000474:	e08e      	b.n	8000594 <__aeabi_fadd+0x218>
 8000476:	2d00      	cmp	r5, #0
 8000478:	d000      	beq.n	800047c <__aeabi_fadd+0x100>
 800047a:	e0b4      	b.n	80005e6 <__aeabi_fadd+0x26a>
 800047c:	2b00      	cmp	r3, #0
 800047e:	d100      	bne.n	8000482 <__aeabi_fadd+0x106>
 8000480:	e0db      	b.n	800063a <__aeabi_fadd+0x2be>
 8000482:	2e00      	cmp	r6, #0
 8000484:	d06c      	beq.n	8000560 <__aeabi_fadd+0x1e4>
 8000486:	1b98      	subs	r0, r3, r6
 8000488:	0145      	lsls	r5, r0, #5
 800048a:	d400      	bmi.n	800048e <__aeabi_fadd+0x112>
 800048c:	e0f7      	b.n	800067e <__aeabi_fadd+0x302>
 800048e:	000c      	movs	r4, r1
 8000490:	1af3      	subs	r3, r6, r3
 8000492:	e03d      	b.n	8000510 <__aeabi_fadd+0x194>
 8000494:	2e00      	cmp	r6, #0
 8000496:	d01b      	beq.n	80004d0 <__aeabi_fadd+0x154>
 8000498:	1e51      	subs	r1, r2, #1
 800049a:	2a01      	cmp	r2, #1
 800049c:	d100      	bne.n	80004a0 <__aeabi_fadd+0x124>
 800049e:	e082      	b.n	80005a6 <__aeabi_fadd+0x22a>
 80004a0:	2aff      	cmp	r2, #255	@ 0xff
 80004a2:	d03a      	beq.n	800051a <__aeabi_fadd+0x19e>
 80004a4:	000a      	movs	r2, r1
 80004a6:	e7ab      	b.n	8000400 <__aeabi_fadd+0x84>
 80004a8:	0031      	movs	r1, r6
 80004aa:	2020      	movs	r0, #32
 80004ac:	40d1      	lsrs	r1, r2
 80004ae:	1a82      	subs	r2, r0, r2
 80004b0:	4096      	lsls	r6, r2
 80004b2:	0032      	movs	r2, r6
 80004b4:	1e50      	subs	r0, r2, #1
 80004b6:	4182      	sbcs	r2, r0
 80004b8:	430a      	orrs	r2, r1
 80004ba:	189b      	adds	r3, r3, r2
 80004bc:	015a      	lsls	r2, r3, #5
 80004be:	d5b9      	bpl.n	8000434 <__aeabi_fadd+0xb8>
 80004c0:	1c6a      	adds	r2, r5, #1
 80004c2:	2dfe      	cmp	r5, #254	@ 0xfe
 80004c4:	d175      	bne.n	80005b2 <__aeabi_fadd+0x236>
 80004c6:	20ff      	movs	r0, #255	@ 0xff
 80004c8:	2300      	movs	r3, #0
 80004ca:	e7c4      	b.n	8000456 <__aeabi_fadd+0xda>
 80004cc:	000c      	movs	r4, r1
 80004ce:	0033      	movs	r3, r6
 80004d0:	08db      	lsrs	r3, r3, #3
 80004d2:	2aff      	cmp	r2, #255	@ 0xff
 80004d4:	d146      	bne.n	8000564 <__aeabi_fadd+0x1e8>
 80004d6:	2b00      	cmp	r3, #0
 80004d8:	d0f5      	beq.n	80004c6 <__aeabi_fadd+0x14a>
 80004da:	2280      	movs	r2, #128	@ 0x80
 80004dc:	03d2      	lsls	r2, r2, #15
 80004de:	4313      	orrs	r3, r2
 80004e0:	025b      	lsls	r3, r3, #9
 80004e2:	20ff      	movs	r0, #255	@ 0xff
 80004e4:	0a5b      	lsrs	r3, r3, #9
 80004e6:	e7b6      	b.n	8000456 <__aeabi_fadd+0xda>
 80004e8:	019f      	lsls	r7, r3, #6
 80004ea:	09bf      	lsrs	r7, r7, #6
 80004ec:	0038      	movs	r0, r7
 80004ee:	f002 fda9 	bl	8003044 <__clzsi2>
 80004f2:	3805      	subs	r0, #5
 80004f4:	4087      	lsls	r7, r0
 80004f6:	4285      	cmp	r5, r0
 80004f8:	dc24      	bgt.n	8000544 <__aeabi_fadd+0x1c8>
 80004fa:	003b      	movs	r3, r7
 80004fc:	2120      	movs	r1, #32
 80004fe:	1b42      	subs	r2, r0, r5
 8000500:	3201      	adds	r2, #1
 8000502:	40d3      	lsrs	r3, r2
 8000504:	1a8a      	subs	r2, r1, r2
 8000506:	4097      	lsls	r7, r2
 8000508:	1e7a      	subs	r2, r7, #1
 800050a:	4197      	sbcs	r7, r2
 800050c:	2200      	movs	r2, #0
 800050e:	433b      	orrs	r3, r7
 8000510:	0759      	lsls	r1, r3, #29
 8000512:	d193      	bne.n	800043c <__aeabi_fadd+0xc0>
 8000514:	e797      	b.n	8000446 <__aeabi_fadd+0xca>
 8000516:	000c      	movs	r4, r1
 8000518:	0033      	movs	r3, r6
 800051a:	08db      	lsrs	r3, r3, #3
 800051c:	e7db      	b.n	80004d6 <__aeabi_fadd+0x15a>
 800051e:	2a00      	cmp	r2, #0
 8000520:	d014      	beq.n	800054c <__aeabi_fadd+0x1d0>
 8000522:	1b42      	subs	r2, r0, r5
 8000524:	2d00      	cmp	r5, #0
 8000526:	d14b      	bne.n	80005c0 <__aeabi_fadd+0x244>
 8000528:	2b00      	cmp	r3, #0
 800052a:	d0d0      	beq.n	80004ce <__aeabi_fadd+0x152>
 800052c:	1e51      	subs	r1, r2, #1
 800052e:	2a01      	cmp	r2, #1
 8000530:	d100      	bne.n	8000534 <__aeabi_fadd+0x1b8>
 8000532:	e09e      	b.n	8000672 <__aeabi_fadd+0x2f6>
 8000534:	2aff      	cmp	r2, #255	@ 0xff
 8000536:	d0ef      	beq.n	8000518 <__aeabi_fadd+0x19c>
 8000538:	000a      	movs	r2, r1
 800053a:	2a1b      	cmp	r2, #27
 800053c:	dd5f      	ble.n	80005fe <__aeabi_fadd+0x282>
 800053e:	0002      	movs	r2, r0
 8000540:	1c73      	adds	r3, r6, #1
 8000542:	e77b      	b.n	800043c <__aeabi_fadd+0xc0>
 8000544:	4b50      	ldr	r3, [pc, #320]	@ (8000688 <__aeabi_fadd+0x30c>)
 8000546:	1a2a      	subs	r2, r5, r0
 8000548:	403b      	ands	r3, r7
 800054a:	e7e1      	b.n	8000510 <__aeabi_fadd+0x194>
 800054c:	21fe      	movs	r1, #254	@ 0xfe
 800054e:	1c6a      	adds	r2, r5, #1
 8000550:	4211      	tst	r1, r2
 8000552:	d13b      	bne.n	80005cc <__aeabi_fadd+0x250>
 8000554:	2d00      	cmp	r5, #0
 8000556:	d15d      	bne.n	8000614 <__aeabi_fadd+0x298>
 8000558:	2b00      	cmp	r3, #0
 800055a:	d07f      	beq.n	800065c <__aeabi_fadd+0x2e0>
 800055c:	2e00      	cmp	r6, #0
 800055e:	d17f      	bne.n	8000660 <__aeabi_fadd+0x2e4>
 8000560:	2200      	movs	r2, #0
 8000562:	08db      	lsrs	r3, r3, #3
 8000564:	025b      	lsls	r3, r3, #9
 8000566:	0a5b      	lsrs	r3, r3, #9
 8000568:	b2d0      	uxtb	r0, r2
 800056a:	e774      	b.n	8000456 <__aeabi_fadd+0xda>
 800056c:	28ff      	cmp	r0, #255	@ 0xff
 800056e:	d0d2      	beq.n	8000516 <__aeabi_fadd+0x19a>
 8000570:	2480      	movs	r4, #128	@ 0x80
 8000572:	04e4      	lsls	r4, r4, #19
 8000574:	4323      	orrs	r3, r4
 8000576:	2401      	movs	r4, #1
 8000578:	2a1b      	cmp	r2, #27
 800057a:	dc07      	bgt.n	800058c <__aeabi_fadd+0x210>
 800057c:	001c      	movs	r4, r3
 800057e:	2520      	movs	r5, #32
 8000580:	40d4      	lsrs	r4, r2
 8000582:	1aaa      	subs	r2, r5, r2
 8000584:	4093      	lsls	r3, r2
 8000586:	1e5a      	subs	r2, r3, #1
 8000588:	4193      	sbcs	r3, r2
 800058a:	431c      	orrs	r4, r3
 800058c:	1b33      	subs	r3, r6, r4
 800058e:	0005      	movs	r5, r0
 8000590:	000c      	movs	r4, r1
 8000592:	e74d      	b.n	8000430 <__aeabi_fadd+0xb4>
 8000594:	1b9f      	subs	r7, r3, r6
 8000596:	017a      	lsls	r2, r7, #5
 8000598:	d422      	bmi.n	80005e0 <__aeabi_fadd+0x264>
 800059a:	2f00      	cmp	r7, #0
 800059c:	d1a6      	bne.n	80004ec <__aeabi_fadd+0x170>
 800059e:	2400      	movs	r4, #0
 80005a0:	2000      	movs	r0, #0
 80005a2:	2300      	movs	r3, #0
 80005a4:	e757      	b.n	8000456 <__aeabi_fadd+0xda>
 80005a6:	199b      	adds	r3, r3, r6
 80005a8:	2501      	movs	r5, #1
 80005aa:	3201      	adds	r2, #1
 80005ac:	0159      	lsls	r1, r3, #5
 80005ae:	d400      	bmi.n	80005b2 <__aeabi_fadd+0x236>
 80005b0:	e740      	b.n	8000434 <__aeabi_fadd+0xb8>
 80005b2:	2101      	movs	r1, #1
 80005b4:	4835      	ldr	r0, [pc, #212]	@ (800068c <__aeabi_fadd+0x310>)
 80005b6:	4019      	ands	r1, r3
 80005b8:	085b      	lsrs	r3, r3, #1
 80005ba:	4003      	ands	r3, r0
 80005bc:	430b      	orrs	r3, r1
 80005be:	e7a7      	b.n	8000510 <__aeabi_fadd+0x194>
 80005c0:	28ff      	cmp	r0, #255	@ 0xff
 80005c2:	d0a9      	beq.n	8000518 <__aeabi_fadd+0x19c>
 80005c4:	2180      	movs	r1, #128	@ 0x80
 80005c6:	04c9      	lsls	r1, r1, #19
 80005c8:	430b      	orrs	r3, r1
 80005ca:	e7b6      	b.n	800053a <__aeabi_fadd+0x1be>
 80005cc:	2aff      	cmp	r2, #255	@ 0xff
 80005ce:	d100      	bne.n	80005d2 <__aeabi_fadd+0x256>
 80005d0:	e779      	b.n	80004c6 <__aeabi_fadd+0x14a>
 80005d2:	199b      	adds	r3, r3, r6
 80005d4:	085b      	lsrs	r3, r3, #1
 80005d6:	0759      	lsls	r1, r3, #29
 80005d8:	d000      	beq.n	80005dc <__aeabi_fadd+0x260>
 80005da:	e72f      	b.n	800043c <__aeabi_fadd+0xc0>
 80005dc:	08db      	lsrs	r3, r3, #3
 80005de:	e7c1      	b.n	8000564 <__aeabi_fadd+0x1e8>
 80005e0:	000c      	movs	r4, r1
 80005e2:	1af7      	subs	r7, r6, r3
 80005e4:	e782      	b.n	80004ec <__aeabi_fadd+0x170>
 80005e6:	2b00      	cmp	r3, #0
 80005e8:	d12c      	bne.n	8000644 <__aeabi_fadd+0x2c8>
 80005ea:	2e00      	cmp	r6, #0
 80005ec:	d193      	bne.n	8000516 <__aeabi_fadd+0x19a>
 80005ee:	2380      	movs	r3, #128	@ 0x80
 80005f0:	2400      	movs	r4, #0
 80005f2:	20ff      	movs	r0, #255	@ 0xff
 80005f4:	03db      	lsls	r3, r3, #15
 80005f6:	e72e      	b.n	8000456 <__aeabi_fadd+0xda>
 80005f8:	2501      	movs	r5, #1
 80005fa:	1b9b      	subs	r3, r3, r6
 80005fc:	e718      	b.n	8000430 <__aeabi_fadd+0xb4>
 80005fe:	0019      	movs	r1, r3
 8000600:	2520      	movs	r5, #32
 8000602:	40d1      	lsrs	r1, r2
 8000604:	1aaa      	subs	r2, r5, r2
 8000606:	4093      	lsls	r3, r2
 8000608:	1e5a      	subs	r2, r3, #1
 800060a:	4193      	sbcs	r3, r2
 800060c:	430b      	orrs	r3, r1
 800060e:	0005      	movs	r5, r0
 8000610:	199b      	adds	r3, r3, r6
 8000612:	e753      	b.n	80004bc <__aeabi_fadd+0x140>
 8000614:	2b00      	cmp	r3, #0
 8000616:	d100      	bne.n	800061a <__aeabi_fadd+0x29e>
 8000618:	e77e      	b.n	8000518 <__aeabi_fadd+0x19c>
 800061a:	2e00      	cmp	r6, #0
 800061c:	d100      	bne.n	8000620 <__aeabi_fadd+0x2a4>
 800061e:	e77c      	b.n	800051a <__aeabi_fadd+0x19e>
 8000620:	2280      	movs	r2, #128	@ 0x80
 8000622:	03d2      	lsls	r2, r2, #15
 8000624:	4591      	cmp	r9, r2
 8000626:	d302      	bcc.n	800062e <__aeabi_fadd+0x2b2>
 8000628:	4594      	cmp	ip, r2
 800062a:	d200      	bcs.n	800062e <__aeabi_fadd+0x2b2>
 800062c:	0033      	movs	r3, r6
 800062e:	08db      	lsrs	r3, r3, #3
 8000630:	e753      	b.n	80004da <__aeabi_fadd+0x15e>
 8000632:	000c      	movs	r4, r1
 8000634:	1af3      	subs	r3, r6, r3
 8000636:	3501      	adds	r5, #1
 8000638:	e6fa      	b.n	8000430 <__aeabi_fadd+0xb4>
 800063a:	2e00      	cmp	r6, #0
 800063c:	d0af      	beq.n	800059e <__aeabi_fadd+0x222>
 800063e:	000c      	movs	r4, r1
 8000640:	0033      	movs	r3, r6
 8000642:	e78d      	b.n	8000560 <__aeabi_fadd+0x1e4>
 8000644:	2e00      	cmp	r6, #0
 8000646:	d100      	bne.n	800064a <__aeabi_fadd+0x2ce>
 8000648:	e767      	b.n	800051a <__aeabi_fadd+0x19e>
 800064a:	2280      	movs	r2, #128	@ 0x80
 800064c:	03d2      	lsls	r2, r2, #15
 800064e:	4591      	cmp	r9, r2
 8000650:	d3ed      	bcc.n	800062e <__aeabi_fadd+0x2b2>
 8000652:	4594      	cmp	ip, r2
 8000654:	d2eb      	bcs.n	800062e <__aeabi_fadd+0x2b2>
 8000656:	000c      	movs	r4, r1
 8000658:	0033      	movs	r3, r6
 800065a:	e7e8      	b.n	800062e <__aeabi_fadd+0x2b2>
 800065c:	0033      	movs	r3, r6
 800065e:	e77f      	b.n	8000560 <__aeabi_fadd+0x1e4>
 8000660:	199b      	adds	r3, r3, r6
 8000662:	2200      	movs	r2, #0
 8000664:	0159      	lsls	r1, r3, #5
 8000666:	d5b9      	bpl.n	80005dc <__aeabi_fadd+0x260>
 8000668:	4a07      	ldr	r2, [pc, #28]	@ (8000688 <__aeabi_fadd+0x30c>)
 800066a:	4013      	ands	r3, r2
 800066c:	08db      	lsrs	r3, r3, #3
 800066e:	2201      	movs	r2, #1
 8000670:	e778      	b.n	8000564 <__aeabi_fadd+0x1e8>
 8000672:	199b      	adds	r3, r3, r6
 8000674:	3201      	adds	r2, #1
 8000676:	3501      	adds	r5, #1
 8000678:	0159      	lsls	r1, r3, #5
 800067a:	d49a      	bmi.n	80005b2 <__aeabi_fadd+0x236>
 800067c:	e6da      	b.n	8000434 <__aeabi_fadd+0xb8>
 800067e:	1e03      	subs	r3, r0, #0
 8000680:	d08d      	beq.n	800059e <__aeabi_fadd+0x222>
 8000682:	08db      	lsrs	r3, r3, #3
 8000684:	e76e      	b.n	8000564 <__aeabi_fadd+0x1e8>
 8000686:	46c0      	nop			@ (mov r8, r8)
 8000688:	fbffffff 	.word	0xfbffffff
 800068c:	7dffffff 	.word	0x7dffffff

08000690 <__aeabi_fdiv>:
 8000690:	b5f0      	push	{r4, r5, r6, r7, lr}
 8000692:	464f      	mov	r7, r9
 8000694:	4646      	mov	r6, r8
 8000696:	46d6      	mov	lr, sl
 8000698:	0244      	lsls	r4, r0, #9
 800069a:	b5c0      	push	{r6, r7, lr}
 800069c:	0047      	lsls	r7, r0, #1
 800069e:	1c0e      	adds	r6, r1, #0
 80006a0:	0a64      	lsrs	r4, r4, #9
 80006a2:	0e3f      	lsrs	r7, r7, #24
 80006a4:	0fc5      	lsrs	r5, r0, #31
 80006a6:	2f00      	cmp	r7, #0
 80006a8:	d03c      	beq.n	8000724 <__aeabi_fdiv+0x94>
 80006aa:	2fff      	cmp	r7, #255	@ 0xff
 80006ac:	d042      	beq.n	8000734 <__aeabi_fdiv+0xa4>
 80006ae:	2300      	movs	r3, #0
 80006b0:	2280      	movs	r2, #128	@ 0x80
 80006b2:	4699      	mov	r9, r3
 80006b4:	469a      	mov	sl, r3
 80006b6:	00e4      	lsls	r4, r4, #3
 80006b8:	04d2      	lsls	r2, r2, #19
 80006ba:	4314      	orrs	r4, r2
 80006bc:	3f7f      	subs	r7, #127	@ 0x7f
 80006be:	0273      	lsls	r3, r6, #9
 80006c0:	0a5b      	lsrs	r3, r3, #9
 80006c2:	4698      	mov	r8, r3
 80006c4:	0073      	lsls	r3, r6, #1
 80006c6:	0e1b      	lsrs	r3, r3, #24
 80006c8:	0ff6      	lsrs	r6, r6, #31
 80006ca:	2b00      	cmp	r3, #0
 80006cc:	d01b      	beq.n	8000706 <__aeabi_fdiv+0x76>
 80006ce:	2bff      	cmp	r3, #255	@ 0xff
 80006d0:	d013      	beq.n	80006fa <__aeabi_fdiv+0x6a>
 80006d2:	4642      	mov	r2, r8
 80006d4:	2180      	movs	r1, #128	@ 0x80
 80006d6:	00d2      	lsls	r2, r2, #3
 80006d8:	04c9      	lsls	r1, r1, #19
 80006da:	4311      	orrs	r1, r2
 80006dc:	4688      	mov	r8, r1
 80006de:	2000      	movs	r0, #0
 80006e0:	3b7f      	subs	r3, #127	@ 0x7f
 80006e2:	0029      	movs	r1, r5
 80006e4:	1aff      	subs	r7, r7, r3
 80006e6:	464b      	mov	r3, r9
 80006e8:	4071      	eors	r1, r6
 80006ea:	b2c9      	uxtb	r1, r1
 80006ec:	2b0f      	cmp	r3, #15
 80006ee:	d900      	bls.n	80006f2 <__aeabi_fdiv+0x62>
 80006f0:	e0b5      	b.n	800085e <__aeabi_fdiv+0x1ce>
 80006f2:	4a74      	ldr	r2, [pc, #464]	@ (80008c4 <__aeabi_fdiv+0x234>)
 80006f4:	009b      	lsls	r3, r3, #2
 80006f6:	58d3      	ldr	r3, [r2, r3]
 80006f8:	469f      	mov	pc, r3
 80006fa:	4643      	mov	r3, r8
 80006fc:	2b00      	cmp	r3, #0
 80006fe:	d13f      	bne.n	8000780 <__aeabi_fdiv+0xf0>
 8000700:	3fff      	subs	r7, #255	@ 0xff
 8000702:	3302      	adds	r3, #2
 8000704:	e003      	b.n	800070e <__aeabi_fdiv+0x7e>
 8000706:	4643      	mov	r3, r8
 8000708:	2b00      	cmp	r3, #0
 800070a:	d12d      	bne.n	8000768 <__aeabi_fdiv+0xd8>
 800070c:	2301      	movs	r3, #1
 800070e:	0029      	movs	r1, r5
 8000710:	464a      	mov	r2, r9
 8000712:	4071      	eors	r1, r6
 8000714:	b2c9      	uxtb	r1, r1
 8000716:	431a      	orrs	r2, r3
 8000718:	2a0e      	cmp	r2, #14
 800071a:	d838      	bhi.n	800078e <__aeabi_fdiv+0xfe>
 800071c:	486a      	ldr	r0, [pc, #424]	@ (80008c8 <__aeabi_fdiv+0x238>)
 800071e:	0092      	lsls	r2, r2, #2
 8000720:	5882      	ldr	r2, [r0, r2]
 8000722:	4697      	mov	pc, r2
 8000724:	2c00      	cmp	r4, #0
 8000726:	d113      	bne.n	8000750 <__aeabi_fdiv+0xc0>
 8000728:	2304      	movs	r3, #4
 800072a:	4699      	mov	r9, r3
 800072c:	3b03      	subs	r3, #3
 800072e:	2700      	movs	r7, #0
 8000730:	469a      	mov	sl, r3
 8000732:	e7c4      	b.n	80006be <__aeabi_fdiv+0x2e>
 8000734:	2c00      	cmp	r4, #0
 8000736:	d105      	bne.n	8000744 <__aeabi_fdiv+0xb4>
 8000738:	2308      	movs	r3, #8
 800073a:	4699      	mov	r9, r3
 800073c:	3b06      	subs	r3, #6
 800073e:	27ff      	movs	r7, #255	@ 0xff
 8000740:	469a      	mov	sl, r3
 8000742:	e7bc      	b.n	80006be <__aeabi_fdiv+0x2e>
 8000744:	230c      	movs	r3, #12
 8000746:	4699      	mov	r9, r3
 8000748:	3b09      	subs	r3, #9
 800074a:	27ff      	movs	r7, #255	@ 0xff
 800074c:	469a      	mov	sl, r3
 800074e:	e7b6      	b.n	80006be <__aeabi_fdiv+0x2e>
 8000750:	0020      	movs	r0, r4
 8000752:	f002 fc77 	bl	8003044 <__clzsi2>
 8000756:	2776      	movs	r7, #118	@ 0x76
 8000758:	1f43      	subs	r3, r0, #5
 800075a:	409c      	lsls	r4, r3
 800075c:	2300      	movs	r3, #0
 800075e:	427f      	negs	r7, r7
 8000760:	4699      	mov	r9, r3
 8000762:	469a      	mov	sl, r3
 8000764:	1a3f      	subs	r7, r7, r0
 8000766:	e7aa      	b.n	80006be <__aeabi_fdiv+0x2e>
 8000768:	4640      	mov	r0, r8
 800076a:	f002 fc6b 	bl	8003044 <__clzsi2>
 800076e:	4642      	mov	r2, r8
 8000770:	1f43      	subs	r3, r0, #5
 8000772:	409a      	lsls	r2, r3
 8000774:	2376      	movs	r3, #118	@ 0x76
 8000776:	425b      	negs	r3, r3
 8000778:	1a1b      	subs	r3, r3, r0
 800077a:	4690      	mov	r8, r2
 800077c:	2000      	movs	r0, #0
 800077e:	e7b0      	b.n	80006e2 <__aeabi_fdiv+0x52>
 8000780:	2303      	movs	r3, #3
 8000782:	464a      	mov	r2, r9
 8000784:	431a      	orrs	r2, r3
 8000786:	4691      	mov	r9, r2
 8000788:	2003      	movs	r0, #3
 800078a:	33fc      	adds	r3, #252	@ 0xfc
 800078c:	e7a9      	b.n	80006e2 <__aeabi_fdiv+0x52>
 800078e:	000d      	movs	r5, r1
 8000790:	20ff      	movs	r0, #255	@ 0xff
 8000792:	2200      	movs	r2, #0
 8000794:	05c0      	lsls	r0, r0, #23
 8000796:	07ed      	lsls	r5, r5, #31
 8000798:	4310      	orrs	r0, r2
 800079a:	4328      	orrs	r0, r5
 800079c:	bce0      	pop	{r5, r6, r7}
 800079e:	46ba      	mov	sl, r7
 80007a0:	46b1      	mov	r9, r6
 80007a2:	46a8      	mov	r8, r5
 80007a4:	bdf0      	pop	{r4, r5, r6, r7, pc}
 80007a6:	000d      	movs	r5, r1
 80007a8:	2000      	movs	r0, #0
 80007aa:	2200      	movs	r2, #0
 80007ac:	e7f2      	b.n	8000794 <__aeabi_fdiv+0x104>
 80007ae:	4653      	mov	r3, sl
 80007b0:	2b02      	cmp	r3, #2
 80007b2:	d0ed      	beq.n	8000790 <__aeabi_fdiv+0x100>
 80007b4:	2b03      	cmp	r3, #3
 80007b6:	d033      	beq.n	8000820 <__aeabi_fdiv+0x190>
 80007b8:	46a0      	mov	r8, r4
 80007ba:	2b01      	cmp	r3, #1
 80007bc:	d105      	bne.n	80007ca <__aeabi_fdiv+0x13a>
 80007be:	2000      	movs	r0, #0
 80007c0:	2200      	movs	r2, #0
 80007c2:	e7e7      	b.n	8000794 <__aeabi_fdiv+0x104>
 80007c4:	0035      	movs	r5, r6
 80007c6:	2803      	cmp	r0, #3
 80007c8:	d07a      	beq.n	80008c0 <__aeabi_fdiv+0x230>
 80007ca:	003b      	movs	r3, r7
 80007cc:	337f      	adds	r3, #127	@ 0x7f
 80007ce:	2b00      	cmp	r3, #0
 80007d0:	dd2d      	ble.n	800082e <__aeabi_fdiv+0x19e>
 80007d2:	4642      	mov	r2, r8
 80007d4:	0752      	lsls	r2, r2, #29
 80007d6:	d007      	beq.n	80007e8 <__aeabi_fdiv+0x158>
 80007d8:	220f      	movs	r2, #15
 80007da:	4641      	mov	r1, r8
 80007dc:	400a      	ands	r2, r1
 80007de:	2a04      	cmp	r2, #4
 80007e0:	d002      	beq.n	80007e8 <__aeabi_fdiv+0x158>
 80007e2:	2204      	movs	r2, #4
 80007e4:	4694      	mov	ip, r2
 80007e6:	44e0      	add	r8, ip
 80007e8:	4642      	mov	r2, r8
 80007ea:	0112      	lsls	r2, r2, #4
 80007ec:	d505      	bpl.n	80007fa <__aeabi_fdiv+0x16a>
 80007ee:	4642      	mov	r2, r8
 80007f0:	4b36      	ldr	r3, [pc, #216]	@ (80008cc <__aeabi_fdiv+0x23c>)
 80007f2:	401a      	ands	r2, r3
 80007f4:	003b      	movs	r3, r7
 80007f6:	4690      	mov	r8, r2
 80007f8:	3380      	adds	r3, #128	@ 0x80
 80007fa:	2bfe      	cmp	r3, #254	@ 0xfe
 80007fc:	dcc8      	bgt.n	8000790 <__aeabi_fdiv+0x100>
 80007fe:	4642      	mov	r2, r8
 8000800:	0192      	lsls	r2, r2, #6
 8000802:	0a52      	lsrs	r2, r2, #9
 8000804:	b2d8      	uxtb	r0, r3
 8000806:	e7c5      	b.n	8000794 <__aeabi_fdiv+0x104>
 8000808:	2280      	movs	r2, #128	@ 0x80
 800080a:	2500      	movs	r5, #0
 800080c:	20ff      	movs	r0, #255	@ 0xff
 800080e:	03d2      	lsls	r2, r2, #15
 8000810:	e7c0      	b.n	8000794 <__aeabi_fdiv+0x104>
 8000812:	2280      	movs	r2, #128	@ 0x80
 8000814:	03d2      	lsls	r2, r2, #15
 8000816:	4214      	tst	r4, r2
 8000818:	d002      	beq.n	8000820 <__aeabi_fdiv+0x190>
 800081a:	4643      	mov	r3, r8
 800081c:	4213      	tst	r3, r2
 800081e:	d049      	beq.n	80008b4 <__aeabi_fdiv+0x224>
 8000820:	2280      	movs	r2, #128	@ 0x80
 8000822:	03d2      	lsls	r2, r2, #15
 8000824:	4322      	orrs	r2, r4
 8000826:	0252      	lsls	r2, r2, #9
 8000828:	20ff      	movs	r0, #255	@ 0xff
 800082a:	0a52      	lsrs	r2, r2, #9
 800082c:	e7b2      	b.n	8000794 <__aeabi_fdiv+0x104>
 800082e:	2201      	movs	r2, #1
 8000830:	1ad3      	subs	r3, r2, r3
 8000832:	2b1b      	cmp	r3, #27
 8000834:	dcc3      	bgt.n	80007be <__aeabi_fdiv+0x12e>
 8000836:	4642      	mov	r2, r8
 8000838:	40da      	lsrs	r2, r3
 800083a:	4643      	mov	r3, r8
 800083c:	379e      	adds	r7, #158	@ 0x9e
 800083e:	40bb      	lsls	r3, r7
 8000840:	1e59      	subs	r1, r3, #1
 8000842:	418b      	sbcs	r3, r1
 8000844:	431a      	orrs	r2, r3
 8000846:	0753      	lsls	r3, r2, #29
 8000848:	d004      	beq.n	8000854 <__aeabi_fdiv+0x1c4>
 800084a:	230f      	movs	r3, #15
 800084c:	4013      	ands	r3, r2
 800084e:	2b04      	cmp	r3, #4
 8000850:	d000      	beq.n	8000854 <__aeabi_fdiv+0x1c4>
 8000852:	3204      	adds	r2, #4
 8000854:	0153      	lsls	r3, r2, #5
 8000856:	d529      	bpl.n	80008ac <__aeabi_fdiv+0x21c>
 8000858:	2001      	movs	r0, #1
 800085a:	2200      	movs	r2, #0
 800085c:	e79a      	b.n	8000794 <__aeabi_fdiv+0x104>
 800085e:	4642      	mov	r2, r8
 8000860:	0163      	lsls	r3, r4, #5
 8000862:	0155      	lsls	r5, r2, #5
 8000864:	42ab      	cmp	r3, r5
 8000866:	d215      	bcs.n	8000894 <__aeabi_fdiv+0x204>
 8000868:	201b      	movs	r0, #27
 800086a:	2200      	movs	r2, #0
 800086c:	3f01      	subs	r7, #1
 800086e:	2601      	movs	r6, #1
 8000870:	001c      	movs	r4, r3
 8000872:	0052      	lsls	r2, r2, #1
 8000874:	005b      	lsls	r3, r3, #1
 8000876:	2c00      	cmp	r4, #0
 8000878:	db01      	blt.n	800087e <__aeabi_fdiv+0x1ee>
 800087a:	429d      	cmp	r5, r3
 800087c:	d801      	bhi.n	8000882 <__aeabi_fdiv+0x1f2>
 800087e:	1b5b      	subs	r3, r3, r5
 8000880:	4332      	orrs	r2, r6
 8000882:	3801      	subs	r0, #1
 8000884:	2800      	cmp	r0, #0
 8000886:	d1f3      	bne.n	8000870 <__aeabi_fdiv+0x1e0>
 8000888:	1e58      	subs	r0, r3, #1
 800088a:	4183      	sbcs	r3, r0
 800088c:	4313      	orrs	r3, r2
 800088e:	4698      	mov	r8, r3
 8000890:	000d      	movs	r5, r1
 8000892:	e79a      	b.n	80007ca <__aeabi_fdiv+0x13a>
 8000894:	201a      	movs	r0, #26
 8000896:	2201      	movs	r2, #1
 8000898:	1b5b      	subs	r3, r3, r5
 800089a:	e7e8      	b.n	800086e <__aeabi_fdiv+0x1de>
 800089c:	3b02      	subs	r3, #2
 800089e:	425a      	negs	r2, r3
 80008a0:	4153      	adcs	r3, r2
 80008a2:	425b      	negs	r3, r3
 80008a4:	0035      	movs	r5, r6
 80008a6:	2200      	movs	r2, #0
 80008a8:	b2d8      	uxtb	r0, r3
 80008aa:	e773      	b.n	8000794 <__aeabi_fdiv+0x104>
 80008ac:	0192      	lsls	r2, r2, #6
 80008ae:	2000      	movs	r0, #0
 80008b0:	0a52      	lsrs	r2, r2, #9
 80008b2:	e76f      	b.n	8000794 <__aeabi_fdiv+0x104>
 80008b4:	431a      	orrs	r2, r3
 80008b6:	0252      	lsls	r2, r2, #9
 80008b8:	0035      	movs	r5, r6
 80008ba:	20ff      	movs	r0, #255	@ 0xff
 80008bc:	0a52      	lsrs	r2, r2, #9
 80008be:	e769      	b.n	8000794 <__aeabi_fdiv+0x104>
 80008c0:	4644      	mov	r4, r8
 80008c2:	e7ad      	b.n	8000820 <__aeabi_fdiv+0x190>
 80008c4:	080061a4 	.word	0x080061a4
 80008c8:	080061e4 	.word	0x080061e4
 80008cc:	f7ffffff 	.word	0xf7ffffff

080008d0 <__eqsf2>:
 80008d0:	b570      	push	{r4, r5, r6, lr}
 80008d2:	0042      	lsls	r2, r0, #1
 80008d4:	024e      	lsls	r6, r1, #9
 80008d6:	004c      	lsls	r4, r1, #1
 80008d8:	0245      	lsls	r5, r0, #9
 80008da:	0a6d      	lsrs	r5, r5, #9
 80008dc:	0e12      	lsrs	r2, r2, #24
 80008de:	0fc3      	lsrs	r3, r0, #31
 80008e0:	0a76      	lsrs	r6, r6, #9
 80008e2:	0e24      	lsrs	r4, r4, #24
 80008e4:	0fc9      	lsrs	r1, r1, #31
 80008e6:	2aff      	cmp	r2, #255	@ 0xff
 80008e8:	d010      	beq.n	800090c <__eqsf2+0x3c>
 80008ea:	2cff      	cmp	r4, #255	@ 0xff
 80008ec:	d00c      	beq.n	8000908 <__eqsf2+0x38>
 80008ee:	2001      	movs	r0, #1
 80008f0:	42a2      	cmp	r2, r4
 80008f2:	d10a      	bne.n	800090a <__eqsf2+0x3a>
 80008f4:	42b5      	cmp	r5, r6
 80008f6:	d108      	bne.n	800090a <__eqsf2+0x3a>
 80008f8:	428b      	cmp	r3, r1
 80008fa:	d00f      	beq.n	800091c <__eqsf2+0x4c>
 80008fc:	2a00      	cmp	r2, #0
 80008fe:	d104      	bne.n	800090a <__eqsf2+0x3a>
 8000900:	0028      	movs	r0, r5
 8000902:	1e43      	subs	r3, r0, #1
 8000904:	4198      	sbcs	r0, r3
 8000906:	e000      	b.n	800090a <__eqsf2+0x3a>
 8000908:	2001      	movs	r0, #1
 800090a:	bd70      	pop	{r4, r5, r6, pc}
 800090c:	2001      	movs	r0, #1
 800090e:	2cff      	cmp	r4, #255	@ 0xff
 8000910:	d1fb      	bne.n	800090a <__eqsf2+0x3a>
 8000912:	4335      	orrs	r5, r6
 8000914:	d1f9      	bne.n	800090a <__eqsf2+0x3a>
 8000916:	404b      	eors	r3, r1
 8000918:	0018      	movs	r0, r3
 800091a:	e7f6      	b.n	800090a <__eqsf2+0x3a>
 800091c:	2000      	movs	r0, #0
 800091e:	e7f4      	b.n	800090a <__eqsf2+0x3a>

08000920 <__gesf2>:
 8000920:	b530      	push	{r4, r5, lr}
 8000922:	0042      	lsls	r2, r0, #1
 8000924:	0244      	lsls	r4, r0, #9
 8000926:	024d      	lsls	r5, r1, #9
 8000928:	0fc3      	lsrs	r3, r0, #31
 800092a:	0048      	lsls	r0, r1, #1
 800092c:	0a64      	lsrs	r4, r4, #9
 800092e:	0e12      	lsrs	r2, r2, #24
 8000930:	0a6d      	lsrs	r5, r5, #9
 8000932:	0e00      	lsrs	r0, r0, #24
 8000934:	0fc9      	lsrs	r1, r1, #31
 8000936:	2aff      	cmp	r2, #255	@ 0xff
 8000938:	d019      	beq.n	800096e <__gesf2+0x4e>
 800093a:	28ff      	cmp	r0, #255	@ 0xff
 800093c:	d00b      	beq.n	8000956 <__gesf2+0x36>
 800093e:	2a00      	cmp	r2, #0
 8000940:	d11e      	bne.n	8000980 <__gesf2+0x60>
 8000942:	2800      	cmp	r0, #0
 8000944:	d10b      	bne.n	800095e <__gesf2+0x3e>
 8000946:	2d00      	cmp	r5, #0
 8000948:	d027      	beq.n	800099a <__gesf2+0x7a>
 800094a:	2c00      	cmp	r4, #0
 800094c:	d134      	bne.n	80009b8 <__gesf2+0x98>
 800094e:	2900      	cmp	r1, #0
 8000950:	d02f      	beq.n	80009b2 <__gesf2+0x92>
 8000952:	0008      	movs	r0, r1
 8000954:	bd30      	pop	{r4, r5, pc}
 8000956:	2d00      	cmp	r5, #0
 8000958:	d128      	bne.n	80009ac <__gesf2+0x8c>
 800095a:	2a00      	cmp	r2, #0
 800095c:	d101      	bne.n	8000962 <__gesf2+0x42>
 800095e:	2c00      	cmp	r4, #0
 8000960:	d0f5      	beq.n	800094e <__gesf2+0x2e>
 8000962:	428b      	cmp	r3, r1
 8000964:	d107      	bne.n	8000976 <__gesf2+0x56>
 8000966:	2b00      	cmp	r3, #0
 8000968:	d023      	beq.n	80009b2 <__gesf2+0x92>
 800096a:	0018      	movs	r0, r3
 800096c:	e7f2      	b.n	8000954 <__gesf2+0x34>
 800096e:	2c00      	cmp	r4, #0
 8000970:	d11c      	bne.n	80009ac <__gesf2+0x8c>
 8000972:	28ff      	cmp	r0, #255	@ 0xff
 8000974:	d014      	beq.n	80009a0 <__gesf2+0x80>
 8000976:	1e58      	subs	r0, r3, #1
 8000978:	2302      	movs	r3, #2
 800097a:	4018      	ands	r0, r3
 800097c:	3801      	subs	r0, #1
 800097e:	e7e9      	b.n	8000954 <__gesf2+0x34>
 8000980:	2800      	cmp	r0, #0
 8000982:	d0f8      	beq.n	8000976 <__gesf2+0x56>
 8000984:	428b      	cmp	r3, r1
 8000986:	d1f6      	bne.n	8000976 <__gesf2+0x56>
 8000988:	4282      	cmp	r2, r0
 800098a:	dcf4      	bgt.n	8000976 <__gesf2+0x56>
 800098c:	dbeb      	blt.n	8000966 <__gesf2+0x46>
 800098e:	42ac      	cmp	r4, r5
 8000990:	d8f1      	bhi.n	8000976 <__gesf2+0x56>
 8000992:	2000      	movs	r0, #0
 8000994:	42ac      	cmp	r4, r5
 8000996:	d2dd      	bcs.n	8000954 <__gesf2+0x34>
 8000998:	e7e5      	b.n	8000966 <__gesf2+0x46>
 800099a:	2c00      	cmp	r4, #0
 800099c:	d0da      	beq.n	8000954 <__gesf2+0x34>
 800099e:	e7ea      	b.n	8000976 <__gesf2+0x56>
 80009a0:	2d00      	cmp	r5, #0
 80009a2:	d103      	bne.n	80009ac <__gesf2+0x8c>
 80009a4:	428b      	cmp	r3, r1
 80009a6:	d1e6      	bne.n	8000976 <__gesf2+0x56>
 80009a8:	2000      	movs	r0, #0
 80009aa:	e7d3      	b.n	8000954 <__gesf2+0x34>
 80009ac:	2002      	movs	r0, #2
 80009ae:	4240      	negs	r0, r0
 80009b0:	e7d0      	b.n	8000954 <__gesf2+0x34>
 80009b2:	2001      	movs	r0, #1
 80009b4:	4240      	negs	r0, r0
 80009b6:	e7cd      	b.n	8000954 <__gesf2+0x34>
 80009b8:	428b      	cmp	r3, r1
 80009ba:	d0e8      	beq.n	800098e <__gesf2+0x6e>
 80009bc:	e7db      	b.n	8000976 <__gesf2+0x56>
 80009be:	46c0      	nop			@ (mov r8, r8)

080009c0 <__lesf2>:
 80009c0:	b530      	push	{r4, r5, lr}
 80009c2:	0042      	lsls	r2, r0, #1
 80009c4:	0244      	lsls	r4, r0, #9
 80009c6:	024d      	lsls	r5, r1, #9
 80009c8:	0fc3      	lsrs	r3, r0, #31
 80009ca:	0048      	lsls	r0, r1, #1
 80009cc:	0a64      	lsrs	r4, r4, #9
 80009ce:	0e12      	lsrs	r2, r2, #24
 80009d0:	0a6d      	lsrs	r5, r5, #9
 80009d2:	0e00      	lsrs	r0, r0, #24
 80009d4:	0fc9      	lsrs	r1, r1, #31
 80009d6:	2aff      	cmp	r2, #255	@ 0xff
 80009d8:	d01a      	beq.n	8000a10 <__lesf2+0x50>
 80009da:	28ff      	cmp	r0, #255	@ 0xff
 80009dc:	d00e      	beq.n	80009fc <__lesf2+0x3c>
 80009de:	2a00      	cmp	r2, #0
 80009e0:	d11e      	bne.n	8000a20 <__lesf2+0x60>
 80009e2:	2800      	cmp	r0, #0
 80009e4:	d10e      	bne.n	8000a04 <__lesf2+0x44>
 80009e6:	2d00      	cmp	r5, #0
 80009e8:	d02a      	beq.n	8000a40 <__lesf2+0x80>
 80009ea:	2c00      	cmp	r4, #0
 80009ec:	d00c      	beq.n	8000a08 <__lesf2+0x48>
 80009ee:	428b      	cmp	r3, r1
 80009f0:	d01d      	beq.n	8000a2e <__lesf2+0x6e>
 80009f2:	1e58      	subs	r0, r3, #1
 80009f4:	2302      	movs	r3, #2
 80009f6:	4018      	ands	r0, r3
 80009f8:	3801      	subs	r0, #1
 80009fa:	e010      	b.n	8000a1e <__lesf2+0x5e>
 80009fc:	2d00      	cmp	r5, #0
 80009fe:	d10d      	bne.n	8000a1c <__lesf2+0x5c>
 8000a00:	2a00      	cmp	r2, #0
 8000a02:	d120      	bne.n	8000a46 <__lesf2+0x86>
 8000a04:	2c00      	cmp	r4, #0
 8000a06:	d11e      	bne.n	8000a46 <__lesf2+0x86>
 8000a08:	2900      	cmp	r1, #0
 8000a0a:	d023      	beq.n	8000a54 <__lesf2+0x94>
 8000a0c:	0008      	movs	r0, r1
 8000a0e:	e006      	b.n	8000a1e <__lesf2+0x5e>
 8000a10:	2c00      	cmp	r4, #0
 8000a12:	d103      	bne.n	8000a1c <__lesf2+0x5c>
 8000a14:	28ff      	cmp	r0, #255	@ 0xff
 8000a16:	d1ec      	bne.n	80009f2 <__lesf2+0x32>
 8000a18:	2d00      	cmp	r5, #0
 8000a1a:	d017      	beq.n	8000a4c <__lesf2+0x8c>
 8000a1c:	2002      	movs	r0, #2
 8000a1e:	bd30      	pop	{r4, r5, pc}
 8000a20:	2800      	cmp	r0, #0
 8000a22:	d0e6      	beq.n	80009f2 <__lesf2+0x32>
 8000a24:	428b      	cmp	r3, r1
 8000a26:	d1e4      	bne.n	80009f2 <__lesf2+0x32>
 8000a28:	4282      	cmp	r2, r0
 8000a2a:	dce2      	bgt.n	80009f2 <__lesf2+0x32>
 8000a2c:	db04      	blt.n	8000a38 <__lesf2+0x78>
 8000a2e:	42ac      	cmp	r4, r5
 8000a30:	d8df      	bhi.n	80009f2 <__lesf2+0x32>
 8000a32:	2000      	movs	r0, #0
 8000a34:	42ac      	cmp	r4, r5
 8000a36:	d2f2      	bcs.n	8000a1e <__lesf2+0x5e>
 8000a38:	2b00      	cmp	r3, #0
 8000a3a:	d00b      	beq.n	8000a54 <__lesf2+0x94>
 8000a3c:	0018      	movs	r0, r3
 8000a3e:	e7ee      	b.n	8000a1e <__lesf2+0x5e>
 8000a40:	2c00      	cmp	r4, #0
 8000a42:	d0ec      	beq.n	8000a1e <__lesf2+0x5e>
 8000a44:	e7d5      	b.n	80009f2 <__lesf2+0x32>
 8000a46:	428b      	cmp	r3, r1
 8000a48:	d1d3      	bne.n	80009f2 <__lesf2+0x32>
 8000a4a:	e7f5      	b.n	8000a38 <__lesf2+0x78>
 8000a4c:	2000      	movs	r0, #0
 8000a4e:	428b      	cmp	r3, r1
 8000a50:	d0e5      	beq.n	8000a1e <__lesf2+0x5e>
 8000a52:	e7ce      	b.n	80009f2 <__lesf2+0x32>
 8000a54:	2001      	movs	r0, #1
 8000a56:	4240      	negs	r0, r0
 8000a58:	e7e1      	b.n	8000a1e <__lesf2+0x5e>
 8000a5a:	46c0      	nop			@ (mov r8, r8)

08000a5c <__aeabi_fmul>:
 8000a5c:	b5f0      	push	{r4, r5, r6, r7, lr}
 8000a5e:	464f      	mov	r7, r9
 8000a60:	4646      	mov	r6, r8
 8000a62:	46d6      	mov	lr, sl
 8000a64:	0243      	lsls	r3, r0, #9
 8000a66:	0a5b      	lsrs	r3, r3, #9
 8000a68:	0045      	lsls	r5, r0, #1
 8000a6a:	b5c0      	push	{r6, r7, lr}
 8000a6c:	4699      	mov	r9, r3
 8000a6e:	1c0f      	adds	r7, r1, #0
 8000a70:	0e2d      	lsrs	r5, r5, #24
 8000a72:	0fc6      	lsrs	r6, r0, #31
 8000a74:	2d00      	cmp	r5, #0
 8000a76:	d100      	bne.n	8000a7a <__aeabi_fmul+0x1e>
 8000a78:	e088      	b.n	8000b8c <__aeabi_fmul+0x130>
 8000a7a:	2dff      	cmp	r5, #255	@ 0xff
 8000a7c:	d100      	bne.n	8000a80 <__aeabi_fmul+0x24>
 8000a7e:	e08d      	b.n	8000b9c <__aeabi_fmul+0x140>
 8000a80:	2280      	movs	r2, #128	@ 0x80
 8000a82:	00db      	lsls	r3, r3, #3
 8000a84:	04d2      	lsls	r2, r2, #19
 8000a86:	431a      	orrs	r2, r3
 8000a88:	2300      	movs	r3, #0
 8000a8a:	4691      	mov	r9, r2
 8000a8c:	4698      	mov	r8, r3
 8000a8e:	469a      	mov	sl, r3
 8000a90:	3d7f      	subs	r5, #127	@ 0x7f
 8000a92:	027c      	lsls	r4, r7, #9
 8000a94:	007b      	lsls	r3, r7, #1
 8000a96:	0a64      	lsrs	r4, r4, #9
 8000a98:	0e1b      	lsrs	r3, r3, #24
 8000a9a:	0fff      	lsrs	r7, r7, #31
 8000a9c:	2b00      	cmp	r3, #0
 8000a9e:	d068      	beq.n	8000b72 <__aeabi_fmul+0x116>
 8000aa0:	2bff      	cmp	r3, #255	@ 0xff
 8000aa2:	d021      	beq.n	8000ae8 <__aeabi_fmul+0x8c>
 8000aa4:	2280      	movs	r2, #128	@ 0x80
 8000aa6:	00e4      	lsls	r4, r4, #3
 8000aa8:	04d2      	lsls	r2, r2, #19
 8000aaa:	4314      	orrs	r4, r2
 8000aac:	4642      	mov	r2, r8
 8000aae:	3b7f      	subs	r3, #127	@ 0x7f
 8000ab0:	195b      	adds	r3, r3, r5
 8000ab2:	2100      	movs	r1, #0
 8000ab4:	1c5d      	adds	r5, r3, #1
 8000ab6:	2a0a      	cmp	r2, #10
 8000ab8:	dc2e      	bgt.n	8000b18 <__aeabi_fmul+0xbc>
 8000aba:	407e      	eors	r6, r7
 8000abc:	4642      	mov	r2, r8
 8000abe:	2a02      	cmp	r2, #2
 8000ac0:	dc23      	bgt.n	8000b0a <__aeabi_fmul+0xae>
 8000ac2:	3a01      	subs	r2, #1
 8000ac4:	2a01      	cmp	r2, #1
 8000ac6:	d900      	bls.n	8000aca <__aeabi_fmul+0x6e>
 8000ac8:	e0bd      	b.n	8000c46 <__aeabi_fmul+0x1ea>
 8000aca:	2902      	cmp	r1, #2
 8000acc:	d06e      	beq.n	8000bac <__aeabi_fmul+0x150>
 8000ace:	2901      	cmp	r1, #1
 8000ad0:	d12c      	bne.n	8000b2c <__aeabi_fmul+0xd0>
 8000ad2:	2000      	movs	r0, #0
 8000ad4:	2200      	movs	r2, #0
 8000ad6:	05c0      	lsls	r0, r0, #23
 8000ad8:	07f6      	lsls	r6, r6, #31
 8000ada:	4310      	orrs	r0, r2
 8000adc:	4330      	orrs	r0, r6
 8000ade:	bce0      	pop	{r5, r6, r7}
 8000ae0:	46ba      	mov	sl, r7
 8000ae2:	46b1      	mov	r9, r6
 8000ae4:	46a8      	mov	r8, r5
 8000ae6:	bdf0      	pop	{r4, r5, r6, r7, pc}
 8000ae8:	002b      	movs	r3, r5
 8000aea:	33ff      	adds	r3, #255	@ 0xff
 8000aec:	2c00      	cmp	r4, #0
 8000aee:	d065      	beq.n	8000bbc <__aeabi_fmul+0x160>
 8000af0:	2203      	movs	r2, #3
 8000af2:	4641      	mov	r1, r8
 8000af4:	4311      	orrs	r1, r2
 8000af6:	0032      	movs	r2, r6
 8000af8:	3501      	adds	r5, #1
 8000afa:	4688      	mov	r8, r1
 8000afc:	407a      	eors	r2, r7
 8000afe:	35ff      	adds	r5, #255	@ 0xff
 8000b00:	290a      	cmp	r1, #10
 8000b02:	dd00      	ble.n	8000b06 <__aeabi_fmul+0xaa>
 8000b04:	e0d8      	b.n	8000cb8 <__aeabi_fmul+0x25c>
 8000b06:	0016      	movs	r6, r2
 8000b08:	2103      	movs	r1, #3
 8000b0a:	4640      	mov	r0, r8
 8000b0c:	2201      	movs	r2, #1
 8000b0e:	4082      	lsls	r2, r0
 8000b10:	20a6      	movs	r0, #166	@ 0xa6
 8000b12:	00c0      	lsls	r0, r0, #3
 8000b14:	4202      	tst	r2, r0
 8000b16:	d020      	beq.n	8000b5a <__aeabi_fmul+0xfe>
 8000b18:	4653      	mov	r3, sl
 8000b1a:	2b02      	cmp	r3, #2
 8000b1c:	d046      	beq.n	8000bac <__aeabi_fmul+0x150>
 8000b1e:	2b03      	cmp	r3, #3
 8000b20:	d100      	bne.n	8000b24 <__aeabi_fmul+0xc8>
 8000b22:	e0bb      	b.n	8000c9c <__aeabi_fmul+0x240>
 8000b24:	4651      	mov	r1, sl
 8000b26:	464c      	mov	r4, r9
 8000b28:	2901      	cmp	r1, #1
 8000b2a:	d0d2      	beq.n	8000ad2 <__aeabi_fmul+0x76>
 8000b2c:	002b      	movs	r3, r5
 8000b2e:	337f      	adds	r3, #127	@ 0x7f
 8000b30:	2b00      	cmp	r3, #0
 8000b32:	dd70      	ble.n	8000c16 <__aeabi_fmul+0x1ba>
 8000b34:	0762      	lsls	r2, r4, #29
 8000b36:	d004      	beq.n	8000b42 <__aeabi_fmul+0xe6>
 8000b38:	220f      	movs	r2, #15
 8000b3a:	4022      	ands	r2, r4
 8000b3c:	2a04      	cmp	r2, #4
 8000b3e:	d000      	beq.n	8000b42 <__aeabi_fmul+0xe6>
 8000b40:	3404      	adds	r4, #4
 8000b42:	0122      	lsls	r2, r4, #4
 8000b44:	d503      	bpl.n	8000b4e <__aeabi_fmul+0xf2>
 8000b46:	4b63      	ldr	r3, [pc, #396]	@ (8000cd4 <__aeabi_fmul+0x278>)
 8000b48:	401c      	ands	r4, r3
 8000b4a:	002b      	movs	r3, r5
 8000b4c:	3380      	adds	r3, #128	@ 0x80
 8000b4e:	2bfe      	cmp	r3, #254	@ 0xfe
 8000b50:	dc2c      	bgt.n	8000bac <__aeabi_fmul+0x150>
 8000b52:	01a2      	lsls	r2, r4, #6
 8000b54:	0a52      	lsrs	r2, r2, #9
 8000b56:	b2d8      	uxtb	r0, r3
 8000b58:	e7bd      	b.n	8000ad6 <__aeabi_fmul+0x7a>
 8000b5a:	2090      	movs	r0, #144	@ 0x90
 8000b5c:	0080      	lsls	r0, r0, #2
 8000b5e:	4202      	tst	r2, r0
 8000b60:	d127      	bne.n	8000bb2 <__aeabi_fmul+0x156>
 8000b62:	38b9      	subs	r0, #185	@ 0xb9
 8000b64:	38ff      	subs	r0, #255	@ 0xff
 8000b66:	4210      	tst	r0, r2
 8000b68:	d06d      	beq.n	8000c46 <__aeabi_fmul+0x1ea>
 8000b6a:	003e      	movs	r6, r7
 8000b6c:	46a1      	mov	r9, r4
 8000b6e:	468a      	mov	sl, r1
 8000b70:	e7d2      	b.n	8000b18 <__aeabi_fmul+0xbc>
 8000b72:	2c00      	cmp	r4, #0
 8000b74:	d141      	bne.n	8000bfa <__aeabi_fmul+0x19e>
 8000b76:	2301      	movs	r3, #1
 8000b78:	4642      	mov	r2, r8
 8000b7a:	431a      	orrs	r2, r3
 8000b7c:	4690      	mov	r8, r2
 8000b7e:	002b      	movs	r3, r5
 8000b80:	4642      	mov	r2, r8
 8000b82:	2101      	movs	r1, #1
 8000b84:	1c5d      	adds	r5, r3, #1
 8000b86:	2a0a      	cmp	r2, #10
 8000b88:	dd97      	ble.n	8000aba <__aeabi_fmul+0x5e>
 8000b8a:	e7c5      	b.n	8000b18 <__aeabi_fmul+0xbc>
 8000b8c:	2b00      	cmp	r3, #0
 8000b8e:	d126      	bne.n	8000bde <__aeabi_fmul+0x182>
 8000b90:	2304      	movs	r3, #4
 8000b92:	4698      	mov	r8, r3
 8000b94:	3b03      	subs	r3, #3
 8000b96:	2500      	movs	r5, #0
 8000b98:	469a      	mov	sl, r3
 8000b9a:	e77a      	b.n	8000a92 <__aeabi_fmul+0x36>
 8000b9c:	2b00      	cmp	r3, #0
 8000b9e:	d118      	bne.n	8000bd2 <__aeabi_fmul+0x176>
 8000ba0:	2308      	movs	r3, #8
 8000ba2:	4698      	mov	r8, r3
 8000ba4:	3b06      	subs	r3, #6
 8000ba6:	25ff      	movs	r5, #255	@ 0xff
 8000ba8:	469a      	mov	sl, r3
 8000baa:	e772      	b.n	8000a92 <__aeabi_fmul+0x36>
 8000bac:	20ff      	movs	r0, #255	@ 0xff
 8000bae:	2200      	movs	r2, #0
 8000bb0:	e791      	b.n	8000ad6 <__aeabi_fmul+0x7a>
 8000bb2:	2280      	movs	r2, #128	@ 0x80
 8000bb4:	2600      	movs	r6, #0
 8000bb6:	20ff      	movs	r0, #255	@ 0xff
 8000bb8:	03d2      	lsls	r2, r2, #15
 8000bba:	e78c      	b.n	8000ad6 <__aeabi_fmul+0x7a>
 8000bbc:	4641      	mov	r1, r8
 8000bbe:	2202      	movs	r2, #2
 8000bc0:	3501      	adds	r5, #1
 8000bc2:	4311      	orrs	r1, r2
 8000bc4:	4688      	mov	r8, r1
 8000bc6:	35ff      	adds	r5, #255	@ 0xff
 8000bc8:	290a      	cmp	r1, #10
 8000bca:	dca5      	bgt.n	8000b18 <__aeabi_fmul+0xbc>
 8000bcc:	2102      	movs	r1, #2
 8000bce:	407e      	eors	r6, r7
 8000bd0:	e774      	b.n	8000abc <__aeabi_fmul+0x60>
 8000bd2:	230c      	movs	r3, #12
 8000bd4:	4698      	mov	r8, r3
 8000bd6:	3b09      	subs	r3, #9
 8000bd8:	25ff      	movs	r5, #255	@ 0xff
 8000bda:	469a      	mov	sl, r3
 8000bdc:	e759      	b.n	8000a92 <__aeabi_fmul+0x36>
 8000bde:	0018      	movs	r0, r3
 8000be0:	f002 fa30 	bl	8003044 <__clzsi2>
 8000be4:	464a      	mov	r2, r9
 8000be6:	1f43      	subs	r3, r0, #5
 8000be8:	2576      	movs	r5, #118	@ 0x76
 8000bea:	409a      	lsls	r2, r3
 8000bec:	2300      	movs	r3, #0
 8000bee:	426d      	negs	r5, r5
 8000bf0:	4691      	mov	r9, r2
 8000bf2:	4698      	mov	r8, r3
 8000bf4:	469a      	mov	sl, r3
 8000bf6:	1a2d      	subs	r5, r5, r0
 8000bf8:	e74b      	b.n	8000a92 <__aeabi_fmul+0x36>
 8000bfa:	0020      	movs	r0, r4
 8000bfc:	f002 fa22 	bl	8003044 <__clzsi2>
 8000c00:	4642      	mov	r2, r8
 8000c02:	1f43      	subs	r3, r0, #5
 8000c04:	409c      	lsls	r4, r3
 8000c06:	1a2b      	subs	r3, r5, r0
 8000c08:	3b76      	subs	r3, #118	@ 0x76
 8000c0a:	2100      	movs	r1, #0
 8000c0c:	1c5d      	adds	r5, r3, #1
 8000c0e:	2a0a      	cmp	r2, #10
 8000c10:	dc00      	bgt.n	8000c14 <__aeabi_fmul+0x1b8>
 8000c12:	e752      	b.n	8000aba <__aeabi_fmul+0x5e>
 8000c14:	e780      	b.n	8000b18 <__aeabi_fmul+0xbc>
 8000c16:	2201      	movs	r2, #1
 8000c18:	1ad3      	subs	r3, r2, r3
 8000c1a:	2b1b      	cmp	r3, #27
 8000c1c:	dd00      	ble.n	8000c20 <__aeabi_fmul+0x1c4>
 8000c1e:	e758      	b.n	8000ad2 <__aeabi_fmul+0x76>
 8000c20:	359e      	adds	r5, #158	@ 0x9e
 8000c22:	0022      	movs	r2, r4
 8000c24:	40ac      	lsls	r4, r5
 8000c26:	40da      	lsrs	r2, r3
 8000c28:	1e63      	subs	r3, r4, #1
 8000c2a:	419c      	sbcs	r4, r3
 8000c2c:	4322      	orrs	r2, r4
 8000c2e:	0753      	lsls	r3, r2, #29
 8000c30:	d004      	beq.n	8000c3c <__aeabi_fmul+0x1e0>
 8000c32:	230f      	movs	r3, #15
 8000c34:	4013      	ands	r3, r2
 8000c36:	2b04      	cmp	r3, #4
 8000c38:	d000      	beq.n	8000c3c <__aeabi_fmul+0x1e0>
 8000c3a:	3204      	adds	r2, #4
 8000c3c:	0153      	lsls	r3, r2, #5
 8000c3e:	d537      	bpl.n	8000cb0 <__aeabi_fmul+0x254>
 8000c40:	2001      	movs	r0, #1
 8000c42:	2200      	movs	r2, #0
 8000c44:	e747      	b.n	8000ad6 <__aeabi_fmul+0x7a>
 8000c46:	0c21      	lsrs	r1, r4, #16
 8000c48:	464a      	mov	r2, r9
 8000c4a:	0424      	lsls	r4, r4, #16
 8000c4c:	0c24      	lsrs	r4, r4, #16
 8000c4e:	0027      	movs	r7, r4
 8000c50:	0c10      	lsrs	r0, r2, #16
 8000c52:	0412      	lsls	r2, r2, #16
 8000c54:	0c12      	lsrs	r2, r2, #16
 8000c56:	4344      	muls	r4, r0
 8000c58:	4357      	muls	r7, r2
 8000c5a:	4348      	muls	r0, r1
 8000c5c:	4351      	muls	r1, r2
 8000c5e:	0c3a      	lsrs	r2, r7, #16
 8000c60:	1909      	adds	r1, r1, r4
 8000c62:	1852      	adds	r2, r2, r1
 8000c64:	4294      	cmp	r4, r2
 8000c66:	d903      	bls.n	8000c70 <__aeabi_fmul+0x214>
 8000c68:	2180      	movs	r1, #128	@ 0x80
 8000c6a:	0249      	lsls	r1, r1, #9
 8000c6c:	468c      	mov	ip, r1
 8000c6e:	4460      	add	r0, ip
 8000c70:	043f      	lsls	r7, r7, #16
 8000c72:	0411      	lsls	r1, r2, #16
 8000c74:	0c3f      	lsrs	r7, r7, #16
 8000c76:	19c9      	adds	r1, r1, r7
 8000c78:	018c      	lsls	r4, r1, #6
 8000c7a:	1e67      	subs	r7, r4, #1
 8000c7c:	41bc      	sbcs	r4, r7
 8000c7e:	0c12      	lsrs	r2, r2, #16
 8000c80:	0e89      	lsrs	r1, r1, #26
 8000c82:	1812      	adds	r2, r2, r0
 8000c84:	430c      	orrs	r4, r1
 8000c86:	0192      	lsls	r2, r2, #6
 8000c88:	4314      	orrs	r4, r2
 8000c8a:	0112      	lsls	r2, r2, #4
 8000c8c:	d50e      	bpl.n	8000cac <__aeabi_fmul+0x250>
 8000c8e:	2301      	movs	r3, #1
 8000c90:	0862      	lsrs	r2, r4, #1
 8000c92:	401c      	ands	r4, r3
 8000c94:	4314      	orrs	r4, r2
 8000c96:	e749      	b.n	8000b2c <__aeabi_fmul+0xd0>
 8000c98:	003e      	movs	r6, r7
 8000c9a:	46a1      	mov	r9, r4
 8000c9c:	2280      	movs	r2, #128	@ 0x80
 8000c9e:	464b      	mov	r3, r9
 8000ca0:	03d2      	lsls	r2, r2, #15
 8000ca2:	431a      	orrs	r2, r3
 8000ca4:	0252      	lsls	r2, r2, #9
 8000ca6:	20ff      	movs	r0, #255	@ 0xff
 8000ca8:	0a52      	lsrs	r2, r2, #9
 8000caa:	e714      	b.n	8000ad6 <__aeabi_fmul+0x7a>
 8000cac:	001d      	movs	r5, r3
 8000cae:	e73d      	b.n	8000b2c <__aeabi_fmul+0xd0>
 8000cb0:	0192      	lsls	r2, r2, #6
 8000cb2:	2000      	movs	r0, #0
 8000cb4:	0a52      	lsrs	r2, r2, #9
 8000cb6:	e70e      	b.n	8000ad6 <__aeabi_fmul+0x7a>
 8000cb8:	290f      	cmp	r1, #15
 8000cba:	d1ed      	bne.n	8000c98 <__aeabi_fmul+0x23c>
 8000cbc:	2280      	movs	r2, #128	@ 0x80
 8000cbe:	464b      	mov	r3, r9
 8000cc0:	03d2      	lsls	r2, r2, #15
 8000cc2:	4213      	tst	r3, r2
 8000cc4:	d0ea      	beq.n	8000c9c <__aeabi_fmul+0x240>
 8000cc6:	4214      	tst	r4, r2
 8000cc8:	d1e8      	bne.n	8000c9c <__aeabi_fmul+0x240>
 8000cca:	003e      	movs	r6, r7
 8000ccc:	20ff      	movs	r0, #255	@ 0xff
 8000cce:	4322      	orrs	r2, r4
 8000cd0:	e701      	b.n	8000ad6 <__aeabi_fmul+0x7a>
 8000cd2:	46c0      	nop			@ (mov r8, r8)
 8000cd4:	f7ffffff 	.word	0xf7ffffff

08000cd8 <__aeabi_fsub>:
 8000cd8:	b5f8      	push	{r3, r4, r5, r6, r7, lr}
 8000cda:	4647      	mov	r7, r8
 8000cdc:	46ce      	mov	lr, r9
 8000cde:	024e      	lsls	r6, r1, #9
 8000ce0:	0243      	lsls	r3, r0, #9
 8000ce2:	0045      	lsls	r5, r0, #1
 8000ce4:	0a72      	lsrs	r2, r6, #9
 8000ce6:	0fc4      	lsrs	r4, r0, #31
 8000ce8:	0048      	lsls	r0, r1, #1
 8000cea:	b580      	push	{r7, lr}
 8000cec:	4694      	mov	ip, r2
 8000cee:	0a5f      	lsrs	r7, r3, #9
 8000cf0:	0e2d      	lsrs	r5, r5, #24
 8000cf2:	099b      	lsrs	r3, r3, #6
 8000cf4:	0e00      	lsrs	r0, r0, #24
 8000cf6:	0fc9      	lsrs	r1, r1, #31
 8000cf8:	09b6      	lsrs	r6, r6, #6
 8000cfa:	28ff      	cmp	r0, #255	@ 0xff
 8000cfc:	d024      	beq.n	8000d48 <__aeabi_fsub+0x70>
 8000cfe:	2201      	movs	r2, #1
 8000d00:	4051      	eors	r1, r2
 8000d02:	1a2a      	subs	r2, r5, r0
 8000d04:	428c      	cmp	r4, r1
 8000d06:	d00f      	beq.n	8000d28 <__aeabi_fsub+0x50>
 8000d08:	2a00      	cmp	r2, #0
 8000d0a:	dc00      	bgt.n	8000d0e <__aeabi_fsub+0x36>
 8000d0c:	e16a      	b.n	8000fe4 <__aeabi_fsub+0x30c>
 8000d0e:	2800      	cmp	r0, #0
 8000d10:	d135      	bne.n	8000d7e <__aeabi_fsub+0xa6>
 8000d12:	2e00      	cmp	r6, #0
 8000d14:	d100      	bne.n	8000d18 <__aeabi_fsub+0x40>
 8000d16:	e0a2      	b.n	8000e5e <__aeabi_fsub+0x186>
 8000d18:	1e51      	subs	r1, r2, #1
 8000d1a:	2a01      	cmp	r2, #1
 8000d1c:	d100      	bne.n	8000d20 <__aeabi_fsub+0x48>
 8000d1e:	e124      	b.n	8000f6a <__aeabi_fsub+0x292>
 8000d20:	2aff      	cmp	r2, #255	@ 0xff
 8000d22:	d021      	beq.n	8000d68 <__aeabi_fsub+0x90>
 8000d24:	000a      	movs	r2, r1
 8000d26:	e02f      	b.n	8000d88 <__aeabi_fsub+0xb0>
 8000d28:	2a00      	cmp	r2, #0
 8000d2a:	dc00      	bgt.n	8000d2e <__aeabi_fsub+0x56>
 8000d2c:	e167      	b.n	8000ffe <__aeabi_fsub+0x326>
 8000d2e:	2800      	cmp	r0, #0
 8000d30:	d05e      	beq.n	8000df0 <__aeabi_fsub+0x118>
 8000d32:	2dff      	cmp	r5, #255	@ 0xff
 8000d34:	d018      	beq.n	8000d68 <__aeabi_fsub+0x90>
 8000d36:	2180      	movs	r1, #128	@ 0x80
 8000d38:	04c9      	lsls	r1, r1, #19
 8000d3a:	430e      	orrs	r6, r1
 8000d3c:	2a1b      	cmp	r2, #27
 8000d3e:	dc00      	bgt.n	8000d42 <__aeabi_fsub+0x6a>
 8000d40:	e076      	b.n	8000e30 <__aeabi_fsub+0x158>
 8000d42:	002a      	movs	r2, r5
 8000d44:	3301      	adds	r3, #1
 8000d46:	e032      	b.n	8000dae <__aeabi_fsub+0xd6>
 8000d48:	002a      	movs	r2, r5
 8000d4a:	3aff      	subs	r2, #255	@ 0xff
 8000d4c:	4691      	mov	r9, r2
 8000d4e:	2e00      	cmp	r6, #0
 8000d50:	d042      	beq.n	8000dd8 <__aeabi_fsub+0x100>
 8000d52:	428c      	cmp	r4, r1
 8000d54:	d055      	beq.n	8000e02 <__aeabi_fsub+0x12a>
 8000d56:	464a      	mov	r2, r9
 8000d58:	2a00      	cmp	r2, #0
 8000d5a:	d100      	bne.n	8000d5e <__aeabi_fsub+0x86>
 8000d5c:	e09c      	b.n	8000e98 <__aeabi_fsub+0x1c0>
 8000d5e:	2d00      	cmp	r5, #0
 8000d60:	d100      	bne.n	8000d64 <__aeabi_fsub+0x8c>
 8000d62:	e077      	b.n	8000e54 <__aeabi_fsub+0x17c>
 8000d64:	000c      	movs	r4, r1
 8000d66:	0033      	movs	r3, r6
 8000d68:	08db      	lsrs	r3, r3, #3
 8000d6a:	2b00      	cmp	r3, #0
 8000d6c:	d100      	bne.n	8000d70 <__aeabi_fsub+0x98>
 8000d6e:	e06e      	b.n	8000e4e <__aeabi_fsub+0x176>
 8000d70:	2280      	movs	r2, #128	@ 0x80
 8000d72:	03d2      	lsls	r2, r2, #15
 8000d74:	4313      	orrs	r3, r2
 8000d76:	025b      	lsls	r3, r3, #9
 8000d78:	20ff      	movs	r0, #255	@ 0xff
 8000d7a:	0a5b      	lsrs	r3, r3, #9
 8000d7c:	e024      	b.n	8000dc8 <__aeabi_fsub+0xf0>
 8000d7e:	2dff      	cmp	r5, #255	@ 0xff
 8000d80:	d0f2      	beq.n	8000d68 <__aeabi_fsub+0x90>
 8000d82:	2180      	movs	r1, #128	@ 0x80
 8000d84:	04c9      	lsls	r1, r1, #19
 8000d86:	430e      	orrs	r6, r1
 8000d88:	2101      	movs	r1, #1
 8000d8a:	2a1b      	cmp	r2, #27
 8000d8c:	dc08      	bgt.n	8000da0 <__aeabi_fsub+0xc8>
 8000d8e:	0031      	movs	r1, r6
 8000d90:	2020      	movs	r0, #32
 8000d92:	40d1      	lsrs	r1, r2
 8000d94:	1a82      	subs	r2, r0, r2
 8000d96:	4096      	lsls	r6, r2
 8000d98:	0032      	movs	r2, r6
 8000d9a:	1e50      	subs	r0, r2, #1
 8000d9c:	4182      	sbcs	r2, r0
 8000d9e:	4311      	orrs	r1, r2
 8000da0:	1a5b      	subs	r3, r3, r1
 8000da2:	015a      	lsls	r2, r3, #5
 8000da4:	d460      	bmi.n	8000e68 <__aeabi_fsub+0x190>
 8000da6:	2107      	movs	r1, #7
 8000da8:	002a      	movs	r2, r5
 8000daa:	4019      	ands	r1, r3
 8000dac:	d057      	beq.n	8000e5e <__aeabi_fsub+0x186>
 8000dae:	210f      	movs	r1, #15
 8000db0:	4019      	ands	r1, r3
 8000db2:	2904      	cmp	r1, #4
 8000db4:	d000      	beq.n	8000db8 <__aeabi_fsub+0xe0>
 8000db6:	3304      	adds	r3, #4
 8000db8:	0159      	lsls	r1, r3, #5
 8000dba:	d550      	bpl.n	8000e5e <__aeabi_fsub+0x186>
 8000dbc:	1c50      	adds	r0, r2, #1
 8000dbe:	2afe      	cmp	r2, #254	@ 0xfe
 8000dc0:	d045      	beq.n	8000e4e <__aeabi_fsub+0x176>
 8000dc2:	019b      	lsls	r3, r3, #6
 8000dc4:	b2c0      	uxtb	r0, r0
 8000dc6:	0a5b      	lsrs	r3, r3, #9
 8000dc8:	05c0      	lsls	r0, r0, #23
 8000dca:	4318      	orrs	r0, r3
 8000dcc:	07e4      	lsls	r4, r4, #31
 8000dce:	4320      	orrs	r0, r4
 8000dd0:	bcc0      	pop	{r6, r7}
 8000dd2:	46b9      	mov	r9, r7
 8000dd4:	46b0      	mov	r8, r6
 8000dd6:	bdf8      	pop	{r3, r4, r5, r6, r7, pc}
 8000dd8:	2201      	movs	r2, #1
 8000dda:	4051      	eors	r1, r2
 8000ddc:	428c      	cmp	r4, r1
 8000dde:	d1ba      	bne.n	8000d56 <__aeabi_fsub+0x7e>
 8000de0:	464a      	mov	r2, r9
 8000de2:	2a00      	cmp	r2, #0
 8000de4:	d010      	beq.n	8000e08 <__aeabi_fsub+0x130>
 8000de6:	2d00      	cmp	r5, #0
 8000de8:	d100      	bne.n	8000dec <__aeabi_fsub+0x114>
 8000dea:	e098      	b.n	8000f1e <__aeabi_fsub+0x246>
 8000dec:	2300      	movs	r3, #0
 8000dee:	e7bb      	b.n	8000d68 <__aeabi_fsub+0x90>
 8000df0:	2e00      	cmp	r6, #0
 8000df2:	d034      	beq.n	8000e5e <__aeabi_fsub+0x186>
 8000df4:	1e51      	subs	r1, r2, #1
 8000df6:	2a01      	cmp	r2, #1
 8000df8:	d06e      	beq.n	8000ed8 <__aeabi_fsub+0x200>
 8000dfa:	2aff      	cmp	r2, #255	@ 0xff
 8000dfc:	d0b4      	beq.n	8000d68 <__aeabi_fsub+0x90>
 8000dfe:	000a      	movs	r2, r1
 8000e00:	e79c      	b.n	8000d3c <__aeabi_fsub+0x64>
 8000e02:	2a00      	cmp	r2, #0
 8000e04:	d000      	beq.n	8000e08 <__aeabi_fsub+0x130>
 8000e06:	e088      	b.n	8000f1a <__aeabi_fsub+0x242>
 8000e08:	20fe      	movs	r0, #254	@ 0xfe
 8000e0a:	1c6a      	adds	r2, r5, #1
 8000e0c:	4210      	tst	r0, r2
 8000e0e:	d000      	beq.n	8000e12 <__aeabi_fsub+0x13a>
 8000e10:	e092      	b.n	8000f38 <__aeabi_fsub+0x260>
 8000e12:	2d00      	cmp	r5, #0
 8000e14:	d000      	beq.n	8000e18 <__aeabi_fsub+0x140>
 8000e16:	e0a4      	b.n	8000f62 <__aeabi_fsub+0x28a>
 8000e18:	2b00      	cmp	r3, #0
 8000e1a:	d100      	bne.n	8000e1e <__aeabi_fsub+0x146>
 8000e1c:	e0cb      	b.n	8000fb6 <__aeabi_fsub+0x2de>
 8000e1e:	2e00      	cmp	r6, #0
 8000e20:	d000      	beq.n	8000e24 <__aeabi_fsub+0x14c>
 8000e22:	e0ca      	b.n	8000fba <__aeabi_fsub+0x2e2>
 8000e24:	2200      	movs	r2, #0
 8000e26:	08db      	lsrs	r3, r3, #3
 8000e28:	025b      	lsls	r3, r3, #9
 8000e2a:	0a5b      	lsrs	r3, r3, #9
 8000e2c:	b2d0      	uxtb	r0, r2
 8000e2e:	e7cb      	b.n	8000dc8 <__aeabi_fsub+0xf0>
 8000e30:	0031      	movs	r1, r6
 8000e32:	2020      	movs	r0, #32
 8000e34:	40d1      	lsrs	r1, r2
 8000e36:	1a82      	subs	r2, r0, r2
 8000e38:	4096      	lsls	r6, r2
 8000e3a:	0032      	movs	r2, r6
 8000e3c:	1e50      	subs	r0, r2, #1
 8000e3e:	4182      	sbcs	r2, r0
 8000e40:	430a      	orrs	r2, r1
 8000e42:	189b      	adds	r3, r3, r2
 8000e44:	015a      	lsls	r2, r3, #5
 8000e46:	d5ae      	bpl.n	8000da6 <__aeabi_fsub+0xce>
 8000e48:	1c6a      	adds	r2, r5, #1
 8000e4a:	2dfe      	cmp	r5, #254	@ 0xfe
 8000e4c:	d14a      	bne.n	8000ee4 <__aeabi_fsub+0x20c>
 8000e4e:	20ff      	movs	r0, #255	@ 0xff
 8000e50:	2300      	movs	r3, #0
 8000e52:	e7b9      	b.n	8000dc8 <__aeabi_fsub+0xf0>
 8000e54:	22ff      	movs	r2, #255	@ 0xff
 8000e56:	2b00      	cmp	r3, #0
 8000e58:	d14b      	bne.n	8000ef2 <__aeabi_fsub+0x21a>
 8000e5a:	000c      	movs	r4, r1
 8000e5c:	0033      	movs	r3, r6
 8000e5e:	08db      	lsrs	r3, r3, #3
 8000e60:	2aff      	cmp	r2, #255	@ 0xff
 8000e62:	d100      	bne.n	8000e66 <__aeabi_fsub+0x18e>
 8000e64:	e781      	b.n	8000d6a <__aeabi_fsub+0x92>
 8000e66:	e7df      	b.n	8000e28 <__aeabi_fsub+0x150>
 8000e68:	019f      	lsls	r7, r3, #6
 8000e6a:	09bf      	lsrs	r7, r7, #6
 8000e6c:	0038      	movs	r0, r7
 8000e6e:	f002 f8e9 	bl	8003044 <__clzsi2>
 8000e72:	3805      	subs	r0, #5
 8000e74:	4087      	lsls	r7, r0
 8000e76:	4285      	cmp	r5, r0
 8000e78:	dc21      	bgt.n	8000ebe <__aeabi_fsub+0x1e6>
 8000e7a:	003b      	movs	r3, r7
 8000e7c:	2120      	movs	r1, #32
 8000e7e:	1b42      	subs	r2, r0, r5
 8000e80:	3201      	adds	r2, #1
 8000e82:	40d3      	lsrs	r3, r2
 8000e84:	1a8a      	subs	r2, r1, r2
 8000e86:	4097      	lsls	r7, r2
 8000e88:	1e7a      	subs	r2, r7, #1
 8000e8a:	4197      	sbcs	r7, r2
 8000e8c:	2200      	movs	r2, #0
 8000e8e:	433b      	orrs	r3, r7
 8000e90:	0759      	lsls	r1, r3, #29
 8000e92:	d000      	beq.n	8000e96 <__aeabi_fsub+0x1be>
 8000e94:	e78b      	b.n	8000dae <__aeabi_fsub+0xd6>
 8000e96:	e78f      	b.n	8000db8 <__aeabi_fsub+0xe0>
 8000e98:	20fe      	movs	r0, #254	@ 0xfe
 8000e9a:	1c6a      	adds	r2, r5, #1
 8000e9c:	4210      	tst	r0, r2
 8000e9e:	d112      	bne.n	8000ec6 <__aeabi_fsub+0x1ee>
 8000ea0:	2d00      	cmp	r5, #0
 8000ea2:	d152      	bne.n	8000f4a <__aeabi_fsub+0x272>
 8000ea4:	2b00      	cmp	r3, #0
 8000ea6:	d07c      	beq.n	8000fa2 <__aeabi_fsub+0x2ca>
 8000ea8:	2e00      	cmp	r6, #0
 8000eaa:	d0bb      	beq.n	8000e24 <__aeabi_fsub+0x14c>
 8000eac:	1b9a      	subs	r2, r3, r6
 8000eae:	0150      	lsls	r0, r2, #5
 8000eb0:	d400      	bmi.n	8000eb4 <__aeabi_fsub+0x1dc>
 8000eb2:	e08b      	b.n	8000fcc <__aeabi_fsub+0x2f4>
 8000eb4:	2401      	movs	r4, #1
 8000eb6:	2200      	movs	r2, #0
 8000eb8:	1af3      	subs	r3, r6, r3
 8000eba:	400c      	ands	r4, r1
 8000ebc:	e7e8      	b.n	8000e90 <__aeabi_fsub+0x1b8>
 8000ebe:	4b56      	ldr	r3, [pc, #344]	@ (8001018 <__aeabi_fsub+0x340>)
 8000ec0:	1a2a      	subs	r2, r5, r0
 8000ec2:	403b      	ands	r3, r7
 8000ec4:	e7e4      	b.n	8000e90 <__aeabi_fsub+0x1b8>
 8000ec6:	1b9f      	subs	r7, r3, r6
 8000ec8:	017a      	lsls	r2, r7, #5
 8000eca:	d446      	bmi.n	8000f5a <__aeabi_fsub+0x282>
 8000ecc:	2f00      	cmp	r7, #0
 8000ece:	d1cd      	bne.n	8000e6c <__aeabi_fsub+0x194>
 8000ed0:	2400      	movs	r4, #0
 8000ed2:	2000      	movs	r0, #0
 8000ed4:	2300      	movs	r3, #0
 8000ed6:	e777      	b.n	8000dc8 <__aeabi_fsub+0xf0>
 8000ed8:	199b      	adds	r3, r3, r6
 8000eda:	2501      	movs	r5, #1
 8000edc:	3201      	adds	r2, #1
 8000ede:	0159      	lsls	r1, r3, #5
 8000ee0:	d400      	bmi.n	8000ee4 <__aeabi_fsub+0x20c>
 8000ee2:	e760      	b.n	8000da6 <__aeabi_fsub+0xce>
 8000ee4:	2101      	movs	r1, #1
 8000ee6:	484d      	ldr	r0, [pc, #308]	@ (800101c <__aeabi_fsub+0x344>)
 8000ee8:	4019      	ands	r1, r3
 8000eea:	085b      	lsrs	r3, r3, #1
 8000eec:	4003      	ands	r3, r0
 8000eee:	430b      	orrs	r3, r1
 8000ef0:	e7ce      	b.n	8000e90 <__aeabi_fsub+0x1b8>
 8000ef2:	1e57      	subs	r7, r2, #1
 8000ef4:	2a01      	cmp	r2, #1
 8000ef6:	d05a      	beq.n	8000fae <__aeabi_fsub+0x2d6>
 8000ef8:	000c      	movs	r4, r1
 8000efa:	2aff      	cmp	r2, #255	@ 0xff
 8000efc:	d033      	beq.n	8000f66 <__aeabi_fsub+0x28e>
 8000efe:	2201      	movs	r2, #1
 8000f00:	2f1b      	cmp	r7, #27
 8000f02:	dc07      	bgt.n	8000f14 <__aeabi_fsub+0x23c>
 8000f04:	2120      	movs	r1, #32
 8000f06:	1bc9      	subs	r1, r1, r7
 8000f08:	001a      	movs	r2, r3
 8000f0a:	408b      	lsls	r3, r1
 8000f0c:	40fa      	lsrs	r2, r7
 8000f0e:	1e59      	subs	r1, r3, #1
 8000f10:	418b      	sbcs	r3, r1
 8000f12:	431a      	orrs	r2, r3
 8000f14:	0005      	movs	r5, r0
 8000f16:	1ab3      	subs	r3, r6, r2
 8000f18:	e743      	b.n	8000da2 <__aeabi_fsub+0xca>
 8000f1a:	2d00      	cmp	r5, #0
 8000f1c:	d123      	bne.n	8000f66 <__aeabi_fsub+0x28e>
 8000f1e:	22ff      	movs	r2, #255	@ 0xff
 8000f20:	2b00      	cmp	r3, #0
 8000f22:	d09b      	beq.n	8000e5c <__aeabi_fsub+0x184>
 8000f24:	1e51      	subs	r1, r2, #1
 8000f26:	2a01      	cmp	r2, #1
 8000f28:	d0d6      	beq.n	8000ed8 <__aeabi_fsub+0x200>
 8000f2a:	2aff      	cmp	r2, #255	@ 0xff
 8000f2c:	d01b      	beq.n	8000f66 <__aeabi_fsub+0x28e>
 8000f2e:	291b      	cmp	r1, #27
 8000f30:	dd2c      	ble.n	8000f8c <__aeabi_fsub+0x2b4>
 8000f32:	0002      	movs	r2, r0
 8000f34:	1c73      	adds	r3, r6, #1
 8000f36:	e73a      	b.n	8000dae <__aeabi_fsub+0xd6>
 8000f38:	2aff      	cmp	r2, #255	@ 0xff
 8000f3a:	d088      	beq.n	8000e4e <__aeabi_fsub+0x176>
 8000f3c:	199b      	adds	r3, r3, r6
 8000f3e:	085b      	lsrs	r3, r3, #1
 8000f40:	0759      	lsls	r1, r3, #29
 8000f42:	d000      	beq.n	8000f46 <__aeabi_fsub+0x26e>
 8000f44:	e733      	b.n	8000dae <__aeabi_fsub+0xd6>
 8000f46:	08db      	lsrs	r3, r3, #3
 8000f48:	e76e      	b.n	8000e28 <__aeabi_fsub+0x150>
 8000f4a:	2b00      	cmp	r3, #0
 8000f4c:	d110      	bne.n	8000f70 <__aeabi_fsub+0x298>
 8000f4e:	2e00      	cmp	r6, #0
 8000f50:	d043      	beq.n	8000fda <__aeabi_fsub+0x302>
 8000f52:	2401      	movs	r4, #1
 8000f54:	0033      	movs	r3, r6
 8000f56:	400c      	ands	r4, r1
 8000f58:	e706      	b.n	8000d68 <__aeabi_fsub+0x90>
 8000f5a:	2401      	movs	r4, #1
 8000f5c:	1af7      	subs	r7, r6, r3
 8000f5e:	400c      	ands	r4, r1
 8000f60:	e784      	b.n	8000e6c <__aeabi_fsub+0x194>
 8000f62:	2b00      	cmp	r3, #0
 8000f64:	d104      	bne.n	8000f70 <__aeabi_fsub+0x298>
 8000f66:	0033      	movs	r3, r6
 8000f68:	e6fe      	b.n	8000d68 <__aeabi_fsub+0x90>
 8000f6a:	2501      	movs	r5, #1
 8000f6c:	1b9b      	subs	r3, r3, r6
 8000f6e:	e718      	b.n	8000da2 <__aeabi_fsub+0xca>
 8000f70:	2e00      	cmp	r6, #0
 8000f72:	d100      	bne.n	8000f76 <__aeabi_fsub+0x29e>
 8000f74:	e6f8      	b.n	8000d68 <__aeabi_fsub+0x90>
 8000f76:	2280      	movs	r2, #128	@ 0x80
 8000f78:	03d2      	lsls	r2, r2, #15
 8000f7a:	4297      	cmp	r7, r2
 8000f7c:	d304      	bcc.n	8000f88 <__aeabi_fsub+0x2b0>
 8000f7e:	4594      	cmp	ip, r2
 8000f80:	d202      	bcs.n	8000f88 <__aeabi_fsub+0x2b0>
 8000f82:	2401      	movs	r4, #1
 8000f84:	0033      	movs	r3, r6
 8000f86:	400c      	ands	r4, r1
 8000f88:	08db      	lsrs	r3, r3, #3
 8000f8a:	e6f1      	b.n	8000d70 <__aeabi_fsub+0x98>
 8000f8c:	001a      	movs	r2, r3
 8000f8e:	2520      	movs	r5, #32
 8000f90:	40ca      	lsrs	r2, r1
 8000f92:	1a69      	subs	r1, r5, r1
 8000f94:	408b      	lsls	r3, r1
 8000f96:	1e59      	subs	r1, r3, #1
 8000f98:	418b      	sbcs	r3, r1
 8000f9a:	4313      	orrs	r3, r2
 8000f9c:	0005      	movs	r5, r0
 8000f9e:	199b      	adds	r3, r3, r6
 8000fa0:	e750      	b.n	8000e44 <__aeabi_fsub+0x16c>
 8000fa2:	2e00      	cmp	r6, #0
 8000fa4:	d094      	beq.n	8000ed0 <__aeabi_fsub+0x1f8>
 8000fa6:	2401      	movs	r4, #1
 8000fa8:	0033      	movs	r3, r6
 8000faa:	400c      	ands	r4, r1
 8000fac:	e73a      	b.n	8000e24 <__aeabi_fsub+0x14c>
 8000fae:	000c      	movs	r4, r1
 8000fb0:	2501      	movs	r5, #1
 8000fb2:	1af3      	subs	r3, r6, r3
 8000fb4:	e6f5      	b.n	8000da2 <__aeabi_fsub+0xca>
 8000fb6:	0033      	movs	r3, r6
 8000fb8:	e734      	b.n	8000e24 <__aeabi_fsub+0x14c>
 8000fba:	199b      	adds	r3, r3, r6
 8000fbc:	2200      	movs	r2, #0
 8000fbe:	0159      	lsls	r1, r3, #5
 8000fc0:	d5c1      	bpl.n	8000f46 <__aeabi_fsub+0x26e>
 8000fc2:	4a15      	ldr	r2, [pc, #84]	@ (8001018 <__aeabi_fsub+0x340>)
 8000fc4:	4013      	ands	r3, r2
 8000fc6:	08db      	lsrs	r3, r3, #3
 8000fc8:	2201      	movs	r2, #1
 8000fca:	e72d      	b.n	8000e28 <__aeabi_fsub+0x150>
 8000fcc:	2a00      	cmp	r2, #0
 8000fce:	d100      	bne.n	8000fd2 <__aeabi_fsub+0x2fa>
 8000fd0:	e77e      	b.n	8000ed0 <__aeabi_fsub+0x1f8>
 8000fd2:	0013      	movs	r3, r2
 8000fd4:	2200      	movs	r2, #0
 8000fd6:	08db      	lsrs	r3, r3, #3
 8000fd8:	e726      	b.n	8000e28 <__aeabi_fsub+0x150>
 8000fda:	2380      	movs	r3, #128	@ 0x80
 8000fdc:	2400      	movs	r4, #0
 8000fde:	20ff      	movs	r0, #255	@ 0xff
 8000fe0:	03db      	lsls	r3, r3, #15
 8000fe2:	e6f1      	b.n	8000dc8 <__aeabi_fsub+0xf0>
 8000fe4:	2a00      	cmp	r2, #0
 8000fe6:	d100      	bne.n	8000fea <__aeabi_fsub+0x312>
 8000fe8:	e756      	b.n	8000e98 <__aeabi_fsub+0x1c0>
 8000fea:	1b47      	subs	r7, r0, r5
 8000fec:	003a      	movs	r2, r7
 8000fee:	2d00      	cmp	r5, #0
 8000ff0:	d100      	bne.n	8000ff4 <__aeabi_fsub+0x31c>
 8000ff2:	e730      	b.n	8000e56 <__aeabi_fsub+0x17e>
 8000ff4:	2280      	movs	r2, #128	@ 0x80
 8000ff6:	04d2      	lsls	r2, r2, #19
 8000ff8:	000c      	movs	r4, r1
 8000ffa:	4313      	orrs	r3, r2
 8000ffc:	e77f      	b.n	8000efe <__aeabi_fsub+0x226>
 8000ffe:	2a00      	cmp	r2, #0
 8001000:	d100      	bne.n	8001004 <__aeabi_fsub+0x32c>
 8001002:	e701      	b.n	8000e08 <__aeabi_fsub+0x130>
 8001004:	1b41      	subs	r1, r0, r5
 8001006:	2d00      	cmp	r5, #0
 8001008:	d101      	bne.n	800100e <__aeabi_fsub+0x336>
 800100a:	000a      	movs	r2, r1
 800100c:	e788      	b.n	8000f20 <__aeabi_fsub+0x248>
 800100e:	2280      	movs	r2, #128	@ 0x80
 8001010:	04d2      	lsls	r2, r2, #19
 8001012:	4313      	orrs	r3, r2
 8001014:	e78b      	b.n	8000f2e <__aeabi_fsub+0x256>
 8001016:	46c0      	nop			@ (mov r8, r8)
 8001018:	fbffffff 	.word	0xfbffffff
 800101c:	7dffffff 	.word	0x7dffffff

08001020 <__aeabi_f2iz>:
 8001020:	0241      	lsls	r1, r0, #9
 8001022:	0042      	lsls	r2, r0, #1
 8001024:	0fc3      	lsrs	r3, r0, #31
 8001026:	0a49      	lsrs	r1, r1, #9
 8001028:	2000      	movs	r0, #0
 800102a:	0e12      	lsrs	r2, r2, #24
 800102c:	2a7e      	cmp	r2, #126	@ 0x7e
 800102e:	dd03      	ble.n	8001038 <__aeabi_f2iz+0x18>
 8001030:	2a9d      	cmp	r2, #157	@ 0x9d
 8001032:	dd02      	ble.n	800103a <__aeabi_f2iz+0x1a>
 8001034:	4a09      	ldr	r2, [pc, #36]	@ (800105c <__aeabi_f2iz+0x3c>)
 8001036:	1898      	adds	r0, r3, r2
 8001038:	4770      	bx	lr
 800103a:	2080      	movs	r0, #128	@ 0x80
 800103c:	0400      	lsls	r0, r0, #16
 800103e:	4301      	orrs	r1, r0
 8001040:	2a95      	cmp	r2, #149	@ 0x95
 8001042:	dc07      	bgt.n	8001054 <__aeabi_f2iz+0x34>
 8001044:	2096      	movs	r0, #150	@ 0x96
 8001046:	1a82      	subs	r2, r0, r2
 8001048:	40d1      	lsrs	r1, r2
 800104a:	4248      	negs	r0, r1
 800104c:	2b00      	cmp	r3, #0
 800104e:	d1f3      	bne.n	8001038 <__aeabi_f2iz+0x18>
 8001050:	0008      	movs	r0, r1
 8001052:	e7f1      	b.n	8001038 <__aeabi_f2iz+0x18>
 8001054:	3a96      	subs	r2, #150	@ 0x96
 8001056:	4091      	lsls	r1, r2
 8001058:	e7f7      	b.n	800104a <__aeabi_f2iz+0x2a>
 800105a:	46c0      	nop			@ (mov r8, r8)
 800105c:	7fffffff 	.word	0x7fffffff

08001060 <__aeabi_i2f>:
 8001060:	b570      	push	{r4, r5, r6, lr}
 8001062:	2800      	cmp	r0, #0
 8001064:	d013      	beq.n	800108e <__aeabi_i2f+0x2e>
 8001066:	17c3      	asrs	r3, r0, #31
 8001068:	18c5      	adds	r5, r0, r3
 800106a:	405d      	eors	r5, r3
 800106c:	0fc4      	lsrs	r4, r0, #31
 800106e:	0028      	movs	r0, r5
 8001070:	f001 ffe8 	bl	8003044 <__clzsi2>
 8001074:	239e      	movs	r3, #158	@ 0x9e
 8001076:	0001      	movs	r1, r0
 8001078:	1a1b      	subs	r3, r3, r0
 800107a:	2b96      	cmp	r3, #150	@ 0x96
 800107c:	dc0f      	bgt.n	800109e <__aeabi_i2f+0x3e>
 800107e:	2808      	cmp	r0, #8
 8001080:	d034      	beq.n	80010ec <__aeabi_i2f+0x8c>
 8001082:	3908      	subs	r1, #8
 8001084:	408d      	lsls	r5, r1
 8001086:	026d      	lsls	r5, r5, #9
 8001088:	0a6d      	lsrs	r5, r5, #9
 800108a:	b2d8      	uxtb	r0, r3
 800108c:	e002      	b.n	8001094 <__aeabi_i2f+0x34>
 800108e:	2400      	movs	r4, #0
 8001090:	2000      	movs	r0, #0
 8001092:	2500      	movs	r5, #0
 8001094:	05c0      	lsls	r0, r0, #23
 8001096:	4328      	orrs	r0, r5
 8001098:	07e4      	lsls	r4, r4, #31
 800109a:	4320      	orrs	r0, r4
 800109c:	bd70      	pop	{r4, r5, r6, pc}
 800109e:	2b99      	cmp	r3, #153	@ 0x99
 80010a0:	dc16      	bgt.n	80010d0 <__aeabi_i2f+0x70>
 80010a2:	1f42      	subs	r2, r0, #5
 80010a4:	2805      	cmp	r0, #5
 80010a6:	d000      	beq.n	80010aa <__aeabi_i2f+0x4a>
 80010a8:	4095      	lsls	r5, r2
 80010aa:	002a      	movs	r2, r5
 80010ac:	4811      	ldr	r0, [pc, #68]	@ (80010f4 <__aeabi_i2f+0x94>)
 80010ae:	4002      	ands	r2, r0
 80010b0:	076e      	lsls	r6, r5, #29
 80010b2:	d009      	beq.n	80010c8 <__aeabi_i2f+0x68>
 80010b4:	260f      	movs	r6, #15
 80010b6:	4035      	ands	r5, r6
 80010b8:	2d04      	cmp	r5, #4
 80010ba:	d005      	beq.n	80010c8 <__aeabi_i2f+0x68>
 80010bc:	3204      	adds	r2, #4
 80010be:	0155      	lsls	r5, r2, #5
 80010c0:	d502      	bpl.n	80010c8 <__aeabi_i2f+0x68>
 80010c2:	239f      	movs	r3, #159	@ 0x9f
 80010c4:	4002      	ands	r2, r0
 80010c6:	1a5b      	subs	r3, r3, r1
 80010c8:	0192      	lsls	r2, r2, #6
 80010ca:	0a55      	lsrs	r5, r2, #9
 80010cc:	b2d8      	uxtb	r0, r3
 80010ce:	e7e1      	b.n	8001094 <__aeabi_i2f+0x34>
 80010d0:	2205      	movs	r2, #5
 80010d2:	1a12      	subs	r2, r2, r0
 80010d4:	0028      	movs	r0, r5
 80010d6:	40d0      	lsrs	r0, r2
 80010d8:	0002      	movs	r2, r0
 80010da:	0008      	movs	r0, r1
 80010dc:	301b      	adds	r0, #27
 80010de:	4085      	lsls	r5, r0
 80010e0:	0028      	movs	r0, r5
 80010e2:	1e45      	subs	r5, r0, #1
 80010e4:	41a8      	sbcs	r0, r5
 80010e6:	4302      	orrs	r2, r0
 80010e8:	0015      	movs	r5, r2
 80010ea:	e7de      	b.n	80010aa <__aeabi_i2f+0x4a>
 80010ec:	026d      	lsls	r5, r5, #9
 80010ee:	2096      	movs	r0, #150	@ 0x96
 80010f0:	0a6d      	lsrs	r5, r5, #9
 80010f2:	e7cf      	b.n	8001094 <__aeabi_i2f+0x34>
 80010f4:	fbffffff 	.word	0xfbffffff

080010f8 <__aeabi_ui2f>:
 80010f8:	b570      	push	{r4, r5, r6, lr}
 80010fa:	1e04      	subs	r4, r0, #0
 80010fc:	d00e      	beq.n	800111c <__aeabi_ui2f+0x24>
 80010fe:	f001 ffa1 	bl	8003044 <__clzsi2>
 8001102:	239e      	movs	r3, #158	@ 0x9e
 8001104:	0001      	movs	r1, r0
 8001106:	1a1b      	subs	r3, r3, r0
 8001108:	2b96      	cmp	r3, #150	@ 0x96
 800110a:	dc0c      	bgt.n	8001126 <__aeabi_ui2f+0x2e>
 800110c:	2808      	cmp	r0, #8
 800110e:	d02f      	beq.n	8001170 <__aeabi_ui2f+0x78>
 8001110:	3908      	subs	r1, #8
 8001112:	408c      	lsls	r4, r1
 8001114:	0264      	lsls	r4, r4, #9
 8001116:	0a64      	lsrs	r4, r4, #9
 8001118:	b2d8      	uxtb	r0, r3
 800111a:	e001      	b.n	8001120 <__aeabi_ui2f+0x28>
 800111c:	2000      	movs	r0, #0
 800111e:	2400      	movs	r4, #0
 8001120:	05c0      	lsls	r0, r0, #23
 8001122:	4320      	orrs	r0, r4
 8001124:	bd70      	pop	{r4, r5, r6, pc}
 8001126:	2b99      	cmp	r3, #153	@ 0x99
 8001128:	dc16      	bgt.n	8001158 <__aeabi_ui2f+0x60>
 800112a:	1f42      	subs	r2, r0, #5
 800112c:	2805      	cmp	r0, #5
 800112e:	d000      	beq.n	8001132 <__aeabi_ui2f+0x3a>
 8001130:	4094      	lsls	r4, r2
 8001132:	0022      	movs	r2, r4
 8001134:	4810      	ldr	r0, [pc, #64]	@ (8001178 <__aeabi_ui2f+0x80>)
 8001136:	4002      	ands	r2, r0
 8001138:	0765      	lsls	r5, r4, #29
 800113a:	d009      	beq.n	8001150 <__aeabi_ui2f+0x58>
 800113c:	250f      	movs	r5, #15
 800113e:	402c      	ands	r4, r5
 8001140:	2c04      	cmp	r4, #4
 8001142:	d005      	beq.n	8001150 <__aeabi_ui2f+0x58>
 8001144:	3204      	adds	r2, #4
 8001146:	0154      	lsls	r4, r2, #5
 8001148:	d502      	bpl.n	8001150 <__aeabi_ui2f+0x58>
 800114a:	239f      	movs	r3, #159	@ 0x9f
 800114c:	4002      	ands	r2, r0
 800114e:	1a5b      	subs	r3, r3, r1
 8001150:	0192      	lsls	r2, r2, #6
 8001152:	0a54      	lsrs	r4, r2, #9
 8001154:	b2d8      	uxtb	r0, r3
 8001156:	e7e3      	b.n	8001120 <__aeabi_ui2f+0x28>
 8001158:	0002      	movs	r2, r0
 800115a:	0020      	movs	r0, r4
 800115c:	321b      	adds	r2, #27
 800115e:	4090      	lsls	r0, r2
 8001160:	0002      	movs	r2, r0
 8001162:	1e50      	subs	r0, r2, #1
 8001164:	4182      	sbcs	r2, r0
 8001166:	2005      	movs	r0, #5
 8001168:	1a40      	subs	r0, r0, r1
 800116a:	40c4      	lsrs	r4, r0
 800116c:	4314      	orrs	r4, r2
 800116e:	e7e0      	b.n	8001132 <__aeabi_ui2f+0x3a>
 8001170:	0264      	lsls	r4, r4, #9
 8001172:	2096      	movs	r0, #150	@ 0x96
 8001174:	0a64      	lsrs	r4, r4, #9
 8001176:	e7d3      	b.n	8001120 <__aeabi_ui2f+0x28>
 8001178:	fbffffff 	.word	0xfbffffff

0800117c <__aeabi_dadd>:
 800117c:	b5f0      	push	{r4, r5, r6, r7, lr}
 800117e:	4657      	mov	r7, sl
 8001180:	464e      	mov	r6, r9
 8001182:	4645      	mov	r5, r8
 8001184:	46de      	mov	lr, fp
 8001186:	b5e0      	push	{r5, r6, r7, lr}
 8001188:	b083      	sub	sp, #12
 800118a:	9000      	str	r0, [sp, #0]
 800118c:	9101      	str	r1, [sp, #4]
 800118e:	030c      	lsls	r4, r1, #12
 8001190:	004f      	lsls	r7, r1, #1
 8001192:	0fce      	lsrs	r6, r1, #31
 8001194:	0a61      	lsrs	r1, r4, #9
 8001196:	9c00      	ldr	r4, [sp, #0]
 8001198:	031d      	lsls	r5, r3, #12
 800119a:	0f64      	lsrs	r4, r4, #29
 800119c:	430c      	orrs	r4, r1
 800119e:	9900      	ldr	r1, [sp, #0]
 80011a0:	9200      	str	r2, [sp, #0]
 80011a2:	9301      	str	r3, [sp, #4]
 80011a4:	00c8      	lsls	r0, r1, #3
 80011a6:	0059      	lsls	r1, r3, #1
 80011a8:	0d4b      	lsrs	r3, r1, #21
 80011aa:	4699      	mov	r9, r3
 80011ac:	9a00      	ldr	r2, [sp, #0]
 80011ae:	9b01      	ldr	r3, [sp, #4]
 80011b0:	0a6d      	lsrs	r5, r5, #9
 80011b2:	0fd9      	lsrs	r1, r3, #31
 80011b4:	0f53      	lsrs	r3, r2, #29
 80011b6:	432b      	orrs	r3, r5
 80011b8:	469a      	mov	sl, r3
 80011ba:	9b00      	ldr	r3, [sp, #0]
 80011bc:	0d7f      	lsrs	r7, r7, #21
 80011be:	00da      	lsls	r2, r3, #3
 80011c0:	4694      	mov	ip, r2
 80011c2:	464a      	mov	r2, r9
 80011c4:	46b0      	mov	r8, r6
 80011c6:	1aba      	subs	r2, r7, r2
 80011c8:	428e      	cmp	r6, r1
 80011ca:	d100      	bne.n	80011ce <__aeabi_dadd+0x52>
 80011cc:	e0b0      	b.n	8001330 <__aeabi_dadd+0x1b4>
 80011ce:	2a00      	cmp	r2, #0
 80011d0:	dc00      	bgt.n	80011d4 <__aeabi_dadd+0x58>
 80011d2:	e078      	b.n	80012c6 <__aeabi_dadd+0x14a>
 80011d4:	4649      	mov	r1, r9
 80011d6:	2900      	cmp	r1, #0
 80011d8:	d100      	bne.n	80011dc <__aeabi_dadd+0x60>
 80011da:	e0e9      	b.n	80013b0 <__aeabi_dadd+0x234>
 80011dc:	49c9      	ldr	r1, [pc, #804]	@ (8001504 <__aeabi_dadd+0x388>)
 80011de:	428f      	cmp	r7, r1
 80011e0:	d100      	bne.n	80011e4 <__aeabi_dadd+0x68>
 80011e2:	e195      	b.n	8001510 <__aeabi_dadd+0x394>
 80011e4:	2501      	movs	r5, #1
 80011e6:	2a38      	cmp	r2, #56	@ 0x38
 80011e8:	dc16      	bgt.n	8001218 <__aeabi_dadd+0x9c>
 80011ea:	2180      	movs	r1, #128	@ 0x80
 80011ec:	4653      	mov	r3, sl
 80011ee:	0409      	lsls	r1, r1, #16
 80011f0:	430b      	orrs	r3, r1
 80011f2:	469a      	mov	sl, r3
 80011f4:	2a1f      	cmp	r2, #31
 80011f6:	dd00      	ble.n	80011fa <__aeabi_dadd+0x7e>
 80011f8:	e1e7      	b.n	80015ca <__aeabi_dadd+0x44e>
 80011fa:	2120      	movs	r1, #32
 80011fc:	4655      	mov	r5, sl
 80011fe:	1a8b      	subs	r3, r1, r2
 8001200:	4661      	mov	r1, ip
 8001202:	409d      	lsls	r5, r3
 8001204:	40d1      	lsrs	r1, r2
 8001206:	430d      	orrs	r5, r1
 8001208:	4661      	mov	r1, ip
 800120a:	4099      	lsls	r1, r3
 800120c:	1e4b      	subs	r3, r1, #1
 800120e:	4199      	sbcs	r1, r3
 8001210:	4653      	mov	r3, sl
 8001212:	40d3      	lsrs	r3, r2
 8001214:	430d      	orrs	r5, r1
 8001216:	1ae4      	subs	r4, r4, r3
 8001218:	1b45      	subs	r5, r0, r5
 800121a:	42a8      	cmp	r0, r5
 800121c:	4180      	sbcs	r0, r0
 800121e:	4240      	negs	r0, r0
 8001220:	1a24      	subs	r4, r4, r0
 8001222:	0223      	lsls	r3, r4, #8
 8001224:	d400      	bmi.n	8001228 <__aeabi_dadd+0xac>
 8001226:	e10f      	b.n	8001448 <__aeabi_dadd+0x2cc>
 8001228:	0264      	lsls	r4, r4, #9
 800122a:	0a64      	lsrs	r4, r4, #9
 800122c:	2c00      	cmp	r4, #0
 800122e:	d100      	bne.n	8001232 <__aeabi_dadd+0xb6>
 8001230:	e139      	b.n	80014a6 <__aeabi_dadd+0x32a>
 8001232:	0020      	movs	r0, r4
 8001234:	f001 ff06 	bl	8003044 <__clzsi2>
 8001238:	0003      	movs	r3, r0
 800123a:	3b08      	subs	r3, #8
 800123c:	2120      	movs	r1, #32
 800123e:	0028      	movs	r0, r5
 8001240:	1aca      	subs	r2, r1, r3
 8001242:	40d0      	lsrs	r0, r2
 8001244:	409c      	lsls	r4, r3
 8001246:	0002      	movs	r2, r0
 8001248:	409d      	lsls	r5, r3
 800124a:	4322      	orrs	r2, r4
 800124c:	429f      	cmp	r7, r3
 800124e:	dd00      	ble.n	8001252 <__aeabi_dadd+0xd6>
 8001250:	e173      	b.n	800153a <__aeabi_dadd+0x3be>
 8001252:	1bd8      	subs	r0, r3, r7
 8001254:	3001      	adds	r0, #1
 8001256:	1a09      	subs	r1, r1, r0
 8001258:	002c      	movs	r4, r5
 800125a:	408d      	lsls	r5, r1
 800125c:	40c4      	lsrs	r4, r0
 800125e:	1e6b      	subs	r3, r5, #1
 8001260:	419d      	sbcs	r5, r3
 8001262:	0013      	movs	r3, r2
 8001264:	40c2      	lsrs	r2, r0
 8001266:	408b      	lsls	r3, r1
 8001268:	4325      	orrs	r5, r4
 800126a:	2700      	movs	r7, #0
 800126c:	0014      	movs	r4, r2
 800126e:	431d      	orrs	r5, r3
 8001270:	076b      	lsls	r3, r5, #29
 8001272:	d009      	beq.n	8001288 <__aeabi_dadd+0x10c>
 8001274:	230f      	movs	r3, #15
 8001276:	402b      	ands	r3, r5
 8001278:	2b04      	cmp	r3, #4
 800127a:	d005      	beq.n	8001288 <__aeabi_dadd+0x10c>
 800127c:	1d2b      	adds	r3, r5, #4
 800127e:	42ab      	cmp	r3, r5
 8001280:	41ad      	sbcs	r5, r5
 8001282:	426d      	negs	r5, r5
 8001284:	1964      	adds	r4, r4, r5
 8001286:	001d      	movs	r5, r3
 8001288:	0223      	lsls	r3, r4, #8
 800128a:	d400      	bmi.n	800128e <__aeabi_dadd+0x112>
 800128c:	e12d      	b.n	80014ea <__aeabi_dadd+0x36e>
 800128e:	4a9d      	ldr	r2, [pc, #628]	@ (8001504 <__aeabi_dadd+0x388>)
 8001290:	3701      	adds	r7, #1
 8001292:	4297      	cmp	r7, r2
 8001294:	d100      	bne.n	8001298 <__aeabi_dadd+0x11c>
 8001296:	e0d3      	b.n	8001440 <__aeabi_dadd+0x2c4>
 8001298:	4646      	mov	r6, r8
 800129a:	499b      	ldr	r1, [pc, #620]	@ (8001508 <__aeabi_dadd+0x38c>)
 800129c:	08ed      	lsrs	r5, r5, #3
 800129e:	4021      	ands	r1, r4
 80012a0:	074a      	lsls	r2, r1, #29
 80012a2:	432a      	orrs	r2, r5
 80012a4:	057c      	lsls	r4, r7, #21
 80012a6:	024d      	lsls	r5, r1, #9
 80012a8:	0b2d      	lsrs	r5, r5, #12
 80012aa:	0d64      	lsrs	r4, r4, #21
 80012ac:	0524      	lsls	r4, r4, #20
 80012ae:	432c      	orrs	r4, r5
 80012b0:	07f6      	lsls	r6, r6, #31
 80012b2:	4334      	orrs	r4, r6
 80012b4:	0010      	movs	r0, r2
 80012b6:	0021      	movs	r1, r4
 80012b8:	b003      	add	sp, #12
 80012ba:	bcf0      	pop	{r4, r5, r6, r7}
 80012bc:	46bb      	mov	fp, r7
 80012be:	46b2      	mov	sl, r6
 80012c0:	46a9      	mov	r9, r5
 80012c2:	46a0      	mov	r8, r4
 80012c4:	bdf0      	pop	{r4, r5, r6, r7, pc}
 80012c6:	2a00      	cmp	r2, #0
 80012c8:	d100      	bne.n	80012cc <__aeabi_dadd+0x150>
 80012ca:	e084      	b.n	80013d6 <__aeabi_dadd+0x25a>
 80012cc:	464a      	mov	r2, r9
 80012ce:	1bd2      	subs	r2, r2, r7
 80012d0:	2f00      	cmp	r7, #0
 80012d2:	d000      	beq.n	80012d6 <__aeabi_dadd+0x15a>
 80012d4:	e16d      	b.n	80015b2 <__aeabi_dadd+0x436>
 80012d6:	0025      	movs	r5, r4
 80012d8:	4305      	orrs	r5, r0
 80012da:	d100      	bne.n	80012de <__aeabi_dadd+0x162>
 80012dc:	e127      	b.n	800152e <__aeabi_dadd+0x3b2>
 80012de:	1e56      	subs	r6, r2, #1
 80012e0:	2a01      	cmp	r2, #1
 80012e2:	d100      	bne.n	80012e6 <__aeabi_dadd+0x16a>
 80012e4:	e23b      	b.n	800175e <__aeabi_dadd+0x5e2>
 80012e6:	4d87      	ldr	r5, [pc, #540]	@ (8001504 <__aeabi_dadd+0x388>)
 80012e8:	42aa      	cmp	r2, r5
 80012ea:	d100      	bne.n	80012ee <__aeabi_dadd+0x172>
 80012ec:	e26a      	b.n	80017c4 <__aeabi_dadd+0x648>
 80012ee:	2501      	movs	r5, #1
 80012f0:	2e38      	cmp	r6, #56	@ 0x38
 80012f2:	dc12      	bgt.n	800131a <__aeabi_dadd+0x19e>
 80012f4:	0032      	movs	r2, r6
 80012f6:	2a1f      	cmp	r2, #31
 80012f8:	dd00      	ble.n	80012fc <__aeabi_dadd+0x180>
 80012fa:	e1f8      	b.n	80016ee <__aeabi_dadd+0x572>
 80012fc:	2620      	movs	r6, #32
 80012fe:	0025      	movs	r5, r4
 8001300:	1ab6      	subs	r6, r6, r2
 8001302:	0007      	movs	r7, r0
 8001304:	4653      	mov	r3, sl
 8001306:	40b0      	lsls	r0, r6
 8001308:	40d4      	lsrs	r4, r2
 800130a:	40b5      	lsls	r5, r6
 800130c:	40d7      	lsrs	r7, r2
 800130e:	1e46      	subs	r6, r0, #1
 8001310:	41b0      	sbcs	r0, r6
 8001312:	1b1b      	subs	r3, r3, r4
 8001314:	469a      	mov	sl, r3
 8001316:	433d      	orrs	r5, r7
 8001318:	4305      	orrs	r5, r0
 800131a:	4662      	mov	r2, ip
 800131c:	1b55      	subs	r5, r2, r5
 800131e:	45ac      	cmp	ip, r5
 8001320:	4192      	sbcs	r2, r2
 8001322:	4653      	mov	r3, sl
 8001324:	4252      	negs	r2, r2
 8001326:	000e      	movs	r6, r1
 8001328:	464f      	mov	r7, r9
 800132a:	4688      	mov	r8, r1
 800132c:	1a9c      	subs	r4, r3, r2
 800132e:	e778      	b.n	8001222 <__aeabi_dadd+0xa6>
 8001330:	2a00      	cmp	r2, #0
 8001332:	dc00      	bgt.n	8001336 <__aeabi_dadd+0x1ba>
 8001334:	e08e      	b.n	8001454 <__aeabi_dadd+0x2d8>
 8001336:	4649      	mov	r1, r9
 8001338:	2900      	cmp	r1, #0
 800133a:	d175      	bne.n	8001428 <__aeabi_dadd+0x2ac>
 800133c:	4661      	mov	r1, ip
 800133e:	4653      	mov	r3, sl
 8001340:	4319      	orrs	r1, r3
 8001342:	d100      	bne.n	8001346 <__aeabi_dadd+0x1ca>
 8001344:	e0f6      	b.n	8001534 <__aeabi_dadd+0x3b8>
 8001346:	1e51      	subs	r1, r2, #1
 8001348:	2a01      	cmp	r2, #1
 800134a:	d100      	bne.n	800134e <__aeabi_dadd+0x1d2>
 800134c:	e191      	b.n	8001672 <__aeabi_dadd+0x4f6>
 800134e:	4d6d      	ldr	r5, [pc, #436]	@ (8001504 <__aeabi_dadd+0x388>)
 8001350:	42aa      	cmp	r2, r5
 8001352:	d100      	bne.n	8001356 <__aeabi_dadd+0x1da>
 8001354:	e0dc      	b.n	8001510 <__aeabi_dadd+0x394>
 8001356:	2501      	movs	r5, #1
 8001358:	2938      	cmp	r1, #56	@ 0x38
 800135a:	dc14      	bgt.n	8001386 <__aeabi_dadd+0x20a>
 800135c:	000a      	movs	r2, r1
 800135e:	2a1f      	cmp	r2, #31
 8001360:	dd00      	ble.n	8001364 <__aeabi_dadd+0x1e8>
 8001362:	e1a2      	b.n	80016aa <__aeabi_dadd+0x52e>
 8001364:	2120      	movs	r1, #32
 8001366:	4653      	mov	r3, sl
 8001368:	1a89      	subs	r1, r1, r2
 800136a:	408b      	lsls	r3, r1
 800136c:	001d      	movs	r5, r3
 800136e:	4663      	mov	r3, ip
 8001370:	40d3      	lsrs	r3, r2
 8001372:	431d      	orrs	r5, r3
 8001374:	4663      	mov	r3, ip
 8001376:	408b      	lsls	r3, r1
 8001378:	0019      	movs	r1, r3
 800137a:	1e4b      	subs	r3, r1, #1
 800137c:	4199      	sbcs	r1, r3
 800137e:	4653      	mov	r3, sl
 8001380:	40d3      	lsrs	r3, r2
 8001382:	430d      	orrs	r5, r1
 8001384:	18e4      	adds	r4, r4, r3
 8001386:	182d      	adds	r5, r5, r0
 8001388:	4285      	cmp	r5, r0
 800138a:	4180      	sbcs	r0, r0
 800138c:	4240      	negs	r0, r0
 800138e:	1824      	adds	r4, r4, r0
 8001390:	0223      	lsls	r3, r4, #8
 8001392:	d559      	bpl.n	8001448 <__aeabi_dadd+0x2cc>
 8001394:	4b5b      	ldr	r3, [pc, #364]	@ (8001504 <__aeabi_dadd+0x388>)
 8001396:	3701      	adds	r7, #1
 8001398:	429f      	cmp	r7, r3
 800139a:	d051      	beq.n	8001440 <__aeabi_dadd+0x2c4>
 800139c:	2101      	movs	r1, #1
 800139e:	4b5a      	ldr	r3, [pc, #360]	@ (8001508 <__aeabi_dadd+0x38c>)
 80013a0:	086a      	lsrs	r2, r5, #1
 80013a2:	401c      	ands	r4, r3
 80013a4:	4029      	ands	r1, r5
 80013a6:	430a      	orrs	r2, r1
 80013a8:	07e5      	lsls	r5, r4, #31
 80013aa:	4315      	orrs	r5, r2
 80013ac:	0864      	lsrs	r4, r4, #1
 80013ae:	e75f      	b.n	8001270 <__aeabi_dadd+0xf4>
 80013b0:	4661      	mov	r1, ip
 80013b2:	4653      	mov	r3, sl
 80013b4:	4319      	orrs	r1, r3
 80013b6:	d100      	bne.n	80013ba <__aeabi_dadd+0x23e>
 80013b8:	e0bc      	b.n	8001534 <__aeabi_dadd+0x3b8>
 80013ba:	1e51      	subs	r1, r2, #1
 80013bc:	2a01      	cmp	r2, #1
 80013be:	d100      	bne.n	80013c2 <__aeabi_dadd+0x246>
 80013c0:	e164      	b.n	800168c <__aeabi_dadd+0x510>
 80013c2:	4d50      	ldr	r5, [pc, #320]	@ (8001504 <__aeabi_dadd+0x388>)
 80013c4:	42aa      	cmp	r2, r5
 80013c6:	d100      	bne.n	80013ca <__aeabi_dadd+0x24e>
 80013c8:	e16a      	b.n	80016a0 <__aeabi_dadd+0x524>
 80013ca:	2501      	movs	r5, #1
 80013cc:	2938      	cmp	r1, #56	@ 0x38
 80013ce:	dd00      	ble.n	80013d2 <__aeabi_dadd+0x256>
 80013d0:	e722      	b.n	8001218 <__aeabi_dadd+0x9c>
 80013d2:	000a      	movs	r2, r1
 80013d4:	e70e      	b.n	80011f4 <__aeabi_dadd+0x78>
 80013d6:	4a4d      	ldr	r2, [pc, #308]	@ (800150c <__aeabi_dadd+0x390>)
 80013d8:	1c7d      	adds	r5, r7, #1
 80013da:	4215      	tst	r5, r2
 80013dc:	d000      	beq.n	80013e0 <__aeabi_dadd+0x264>
 80013de:	e0d0      	b.n	8001582 <__aeabi_dadd+0x406>
 80013e0:	0025      	movs	r5, r4
 80013e2:	4662      	mov	r2, ip
 80013e4:	4653      	mov	r3, sl
 80013e6:	4305      	orrs	r5, r0
 80013e8:	431a      	orrs	r2, r3
 80013ea:	2f00      	cmp	r7, #0
 80013ec:	d000      	beq.n	80013f0 <__aeabi_dadd+0x274>
 80013ee:	e137      	b.n	8001660 <__aeabi_dadd+0x4e4>
 80013f0:	2d00      	cmp	r5, #0
 80013f2:	d100      	bne.n	80013f6 <__aeabi_dadd+0x27a>
 80013f4:	e1a8      	b.n	8001748 <__aeabi_dadd+0x5cc>
 80013f6:	2a00      	cmp	r2, #0
 80013f8:	d100      	bne.n	80013fc <__aeabi_dadd+0x280>
 80013fa:	e16a      	b.n	80016d2 <__aeabi_dadd+0x556>
 80013fc:	4663      	mov	r3, ip
 80013fe:	1ac5      	subs	r5, r0, r3
 8001400:	4653      	mov	r3, sl
 8001402:	1ae2      	subs	r2, r4, r3
 8001404:	42a8      	cmp	r0, r5
 8001406:	419b      	sbcs	r3, r3
 8001408:	425b      	negs	r3, r3
 800140a:	1ad3      	subs	r3, r2, r3
 800140c:	021a      	lsls	r2, r3, #8
 800140e:	d400      	bmi.n	8001412 <__aeabi_dadd+0x296>
 8001410:	e203      	b.n	800181a <__aeabi_dadd+0x69e>
 8001412:	4663      	mov	r3, ip
 8001414:	1a1d      	subs	r5, r3, r0
 8001416:	45ac      	cmp	ip, r5
 8001418:	4192      	sbcs	r2, r2
 800141a:	4653      	mov	r3, sl
 800141c:	4252      	negs	r2, r2
 800141e:	1b1c      	subs	r4, r3, r4
 8001420:	000e      	movs	r6, r1
 8001422:	4688      	mov	r8, r1
 8001424:	1aa4      	subs	r4, r4, r2
 8001426:	e723      	b.n	8001270 <__aeabi_dadd+0xf4>
 8001428:	4936      	ldr	r1, [pc, #216]	@ (8001504 <__aeabi_dadd+0x388>)
 800142a:	428f      	cmp	r7, r1
 800142c:	d070      	beq.n	8001510 <__aeabi_dadd+0x394>
 800142e:	2501      	movs	r5, #1
 8001430:	2a38      	cmp	r2, #56	@ 0x38
 8001432:	dca8      	bgt.n	8001386 <__aeabi_dadd+0x20a>
 8001434:	2180      	movs	r1, #128	@ 0x80
 8001436:	4653      	mov	r3, sl
 8001438:	0409      	lsls	r1, r1, #16
 800143a:	430b      	orrs	r3, r1
 800143c:	469a      	mov	sl, r3
 800143e:	e78e      	b.n	800135e <__aeabi_dadd+0x1e2>
 8001440:	003c      	movs	r4, r7
 8001442:	2500      	movs	r5, #0
 8001444:	2200      	movs	r2, #0
 8001446:	e731      	b.n	80012ac <__aeabi_dadd+0x130>
 8001448:	2307      	movs	r3, #7
 800144a:	402b      	ands	r3, r5
 800144c:	2b00      	cmp	r3, #0
 800144e:	d000      	beq.n	8001452 <__aeabi_dadd+0x2d6>
 8001450:	e710      	b.n	8001274 <__aeabi_dadd+0xf8>
 8001452:	e093      	b.n	800157c <__aeabi_dadd+0x400>
 8001454:	2a00      	cmp	r2, #0
 8001456:	d074      	beq.n	8001542 <__aeabi_dadd+0x3c6>
 8001458:	464a      	mov	r2, r9
 800145a:	1bd2      	subs	r2, r2, r7
 800145c:	2f00      	cmp	r7, #0
 800145e:	d100      	bne.n	8001462 <__aeabi_dadd+0x2e6>
 8001460:	e0c7      	b.n	80015f2 <__aeabi_dadd+0x476>
 8001462:	4928      	ldr	r1, [pc, #160]	@ (8001504 <__aeabi_dadd+0x388>)
 8001464:	4589      	cmp	r9, r1
 8001466:	d100      	bne.n	800146a <__aeabi_dadd+0x2ee>
 8001468:	e185      	b.n	8001776 <__aeabi_dadd+0x5fa>
 800146a:	2501      	movs	r5, #1
 800146c:	2a38      	cmp	r2, #56	@ 0x38
 800146e:	dc12      	bgt.n	8001496 <__aeabi_dadd+0x31a>
 8001470:	2180      	movs	r1, #128	@ 0x80
 8001472:	0409      	lsls	r1, r1, #16
 8001474:	430c      	orrs	r4, r1
 8001476:	2a1f      	cmp	r2, #31
 8001478:	dd00      	ble.n	800147c <__aeabi_dadd+0x300>
 800147a:	e1ab      	b.n	80017d4 <__aeabi_dadd+0x658>
 800147c:	2120      	movs	r1, #32
 800147e:	0025      	movs	r5, r4
 8001480:	1a89      	subs	r1, r1, r2
 8001482:	0007      	movs	r7, r0
 8001484:	4088      	lsls	r0, r1
 8001486:	408d      	lsls	r5, r1
 8001488:	40d7      	lsrs	r7, r2
 800148a:	1e41      	subs	r1, r0, #1
 800148c:	4188      	sbcs	r0, r1
 800148e:	40d4      	lsrs	r4, r2
 8001490:	433d      	orrs	r5, r7
 8001492:	4305      	orrs	r5, r0
 8001494:	44a2      	add	sl, r4
 8001496:	4465      	add	r5, ip
 8001498:	4565      	cmp	r5, ip
 800149a:	4192      	sbcs	r2, r2
 800149c:	4252      	negs	r2, r2
 800149e:	4452      	add	r2, sl
 80014a0:	0014      	movs	r4, r2
 80014a2:	464f      	mov	r7, r9
 80014a4:	e774      	b.n	8001390 <__aeabi_dadd+0x214>
 80014a6:	0028      	movs	r0, r5
 80014a8:	f001 fdcc 	bl	8003044 <__clzsi2>
 80014ac:	0003      	movs	r3, r0
 80014ae:	3318      	adds	r3, #24
 80014b0:	2b1f      	cmp	r3, #31
 80014b2:	dc00      	bgt.n	80014b6 <__aeabi_dadd+0x33a>
 80014b4:	e6c2      	b.n	800123c <__aeabi_dadd+0xc0>
 80014b6:	002a      	movs	r2, r5
 80014b8:	3808      	subs	r0, #8
 80014ba:	4082      	lsls	r2, r0
 80014bc:	429f      	cmp	r7, r3
 80014be:	dd00      	ble.n	80014c2 <__aeabi_dadd+0x346>
 80014c0:	e0a9      	b.n	8001616 <__aeabi_dadd+0x49a>
 80014c2:	1bdb      	subs	r3, r3, r7
 80014c4:	1c58      	adds	r0, r3, #1
 80014c6:	281f      	cmp	r0, #31
 80014c8:	dc00      	bgt.n	80014cc <__aeabi_dadd+0x350>
 80014ca:	e1ac      	b.n	8001826 <__aeabi_dadd+0x6aa>
 80014cc:	0015      	movs	r5, r2
 80014ce:	3b1f      	subs	r3, #31
 80014d0:	40dd      	lsrs	r5, r3
 80014d2:	2820      	cmp	r0, #32
 80014d4:	d005      	beq.n	80014e2 <__aeabi_dadd+0x366>
 80014d6:	2340      	movs	r3, #64	@ 0x40
 80014d8:	1a1b      	subs	r3, r3, r0
 80014da:	409a      	lsls	r2, r3
 80014dc:	1e53      	subs	r3, r2, #1
 80014de:	419a      	sbcs	r2, r3
 80014e0:	4315      	orrs	r5, r2
 80014e2:	2307      	movs	r3, #7
 80014e4:	2700      	movs	r7, #0
 80014e6:	402b      	ands	r3, r5
 80014e8:	e7b0      	b.n	800144c <__aeabi_dadd+0x2d0>
 80014ea:	08ed      	lsrs	r5, r5, #3
 80014ec:	4b05      	ldr	r3, [pc, #20]	@ (8001504 <__aeabi_dadd+0x388>)
 80014ee:	0762      	lsls	r2, r4, #29
 80014f0:	432a      	orrs	r2, r5
 80014f2:	08e4      	lsrs	r4, r4, #3
 80014f4:	429f      	cmp	r7, r3
 80014f6:	d00f      	beq.n	8001518 <__aeabi_dadd+0x39c>
 80014f8:	0324      	lsls	r4, r4, #12
 80014fa:	0b25      	lsrs	r5, r4, #12
 80014fc:	057c      	lsls	r4, r7, #21
 80014fe:	0d64      	lsrs	r4, r4, #21
 8001500:	e6d4      	b.n	80012ac <__aeabi_dadd+0x130>
 8001502:	46c0      	nop			@ (mov r8, r8)
 8001504:	000007ff 	.word	0x000007ff
 8001508:	ff7fffff 	.word	0xff7fffff
 800150c:	000007fe 	.word	0x000007fe
 8001510:	08c0      	lsrs	r0, r0, #3
 8001512:	0762      	lsls	r2, r4, #29
 8001514:	4302      	orrs	r2, r0
 8001516:	08e4      	lsrs	r4, r4, #3
 8001518:	0013      	movs	r3, r2
 800151a:	4323      	orrs	r3, r4
 800151c:	d100      	bne.n	8001520 <__aeabi_dadd+0x3a4>
 800151e:	e186      	b.n	800182e <__aeabi_dadd+0x6b2>
 8001520:	2580      	movs	r5, #128	@ 0x80
 8001522:	032d      	lsls	r5, r5, #12
 8001524:	4325      	orrs	r5, r4
 8001526:	032d      	lsls	r5, r5, #12
 8001528:	4cc3      	ldr	r4, [pc, #780]	@ (8001838 <__aeabi_dadd+0x6bc>)
 800152a:	0b2d      	lsrs	r5, r5, #12
 800152c:	e6be      	b.n	80012ac <__aeabi_dadd+0x130>
 800152e:	4660      	mov	r0, ip
 8001530:	4654      	mov	r4, sl
 8001532:	000e      	movs	r6, r1
 8001534:	0017      	movs	r7, r2
 8001536:	08c5      	lsrs	r5, r0, #3
 8001538:	e7d8      	b.n	80014ec <__aeabi_dadd+0x370>
 800153a:	4cc0      	ldr	r4, [pc, #768]	@ (800183c <__aeabi_dadd+0x6c0>)
 800153c:	1aff      	subs	r7, r7, r3
 800153e:	4014      	ands	r4, r2
 8001540:	e696      	b.n	8001270 <__aeabi_dadd+0xf4>
 8001542:	4abf      	ldr	r2, [pc, #764]	@ (8001840 <__aeabi_dadd+0x6c4>)
 8001544:	1c79      	adds	r1, r7, #1
 8001546:	4211      	tst	r1, r2
 8001548:	d16b      	bne.n	8001622 <__aeabi_dadd+0x4a6>
 800154a:	0022      	movs	r2, r4
 800154c:	4302      	orrs	r2, r0
 800154e:	2f00      	cmp	r7, #0
 8001550:	d000      	beq.n	8001554 <__aeabi_dadd+0x3d8>
 8001552:	e0db      	b.n	800170c <__aeabi_dadd+0x590>
 8001554:	2a00      	cmp	r2, #0
 8001556:	d100      	bne.n	800155a <__aeabi_dadd+0x3de>
 8001558:	e12d      	b.n	80017b6 <__aeabi_dadd+0x63a>
 800155a:	4662      	mov	r2, ip
 800155c:	4653      	mov	r3, sl
 800155e:	431a      	orrs	r2, r3
 8001560:	d100      	bne.n	8001564 <__aeabi_dadd+0x3e8>
 8001562:	e0b6      	b.n	80016d2 <__aeabi_dadd+0x556>
 8001564:	4663      	mov	r3, ip
 8001566:	18c5      	adds	r5, r0, r3
 8001568:	4285      	cmp	r5, r0
 800156a:	4180      	sbcs	r0, r0
 800156c:	4454      	add	r4, sl
 800156e:	4240      	negs	r0, r0
 8001570:	1824      	adds	r4, r4, r0
 8001572:	0223      	lsls	r3, r4, #8
 8001574:	d502      	bpl.n	800157c <__aeabi_dadd+0x400>
 8001576:	000f      	movs	r7, r1
 8001578:	4bb0      	ldr	r3, [pc, #704]	@ (800183c <__aeabi_dadd+0x6c0>)
 800157a:	401c      	ands	r4, r3
 800157c:	003a      	movs	r2, r7
 800157e:	0028      	movs	r0, r5
 8001580:	e7d8      	b.n	8001534 <__aeabi_dadd+0x3b8>
 8001582:	4662      	mov	r2, ip
 8001584:	1a85      	subs	r5, r0, r2
 8001586:	42a8      	cmp	r0, r5
 8001588:	4192      	sbcs	r2, r2
 800158a:	4653      	mov	r3, sl
 800158c:	4252      	negs	r2, r2
 800158e:	4691      	mov	r9, r2
 8001590:	1ae3      	subs	r3, r4, r3
 8001592:	001a      	movs	r2, r3
 8001594:	464b      	mov	r3, r9
 8001596:	1ad2      	subs	r2, r2, r3
 8001598:	0013      	movs	r3, r2
 800159a:	4691      	mov	r9, r2
 800159c:	021a      	lsls	r2, r3, #8
 800159e:	d454      	bmi.n	800164a <__aeabi_dadd+0x4ce>
 80015a0:	464a      	mov	r2, r9
 80015a2:	464c      	mov	r4, r9
 80015a4:	432a      	orrs	r2, r5
 80015a6:	d000      	beq.n	80015aa <__aeabi_dadd+0x42e>
 80015a8:	e640      	b.n	800122c <__aeabi_dadd+0xb0>
 80015aa:	2600      	movs	r6, #0
 80015ac:	2400      	movs	r4, #0
 80015ae:	2500      	movs	r5, #0
 80015b0:	e67c      	b.n	80012ac <__aeabi_dadd+0x130>
 80015b2:	4da1      	ldr	r5, [pc, #644]	@ (8001838 <__aeabi_dadd+0x6bc>)
 80015b4:	45a9      	cmp	r9, r5
 80015b6:	d100      	bne.n	80015ba <__aeabi_dadd+0x43e>
 80015b8:	e090      	b.n	80016dc <__aeabi_dadd+0x560>
 80015ba:	2501      	movs	r5, #1
 80015bc:	2a38      	cmp	r2, #56	@ 0x38
 80015be:	dd00      	ble.n	80015c2 <__aeabi_dadd+0x446>
 80015c0:	e6ab      	b.n	800131a <__aeabi_dadd+0x19e>
 80015c2:	2580      	movs	r5, #128	@ 0x80
 80015c4:	042d      	lsls	r5, r5, #16
 80015c6:	432c      	orrs	r4, r5
 80015c8:	e695      	b.n	80012f6 <__aeabi_dadd+0x17a>
 80015ca:	0011      	movs	r1, r2
 80015cc:	4655      	mov	r5, sl
 80015ce:	3920      	subs	r1, #32
 80015d0:	40cd      	lsrs	r5, r1
 80015d2:	46a9      	mov	r9, r5
 80015d4:	2a20      	cmp	r2, #32
 80015d6:	d006      	beq.n	80015e6 <__aeabi_dadd+0x46a>
 80015d8:	2140      	movs	r1, #64	@ 0x40
 80015da:	4653      	mov	r3, sl
 80015dc:	1a8a      	subs	r2, r1, r2
 80015de:	4093      	lsls	r3, r2
 80015e0:	4662      	mov	r2, ip
 80015e2:	431a      	orrs	r2, r3
 80015e4:	4694      	mov	ip, r2
 80015e6:	4665      	mov	r5, ip
 80015e8:	1e6b      	subs	r3, r5, #1
 80015ea:	419d      	sbcs	r5, r3
 80015ec:	464b      	mov	r3, r9
 80015ee:	431d      	orrs	r5, r3
 80015f0:	e612      	b.n	8001218 <__aeabi_dadd+0x9c>
 80015f2:	0021      	movs	r1, r4
 80015f4:	4301      	orrs	r1, r0
 80015f6:	d100      	bne.n	80015fa <__aeabi_dadd+0x47e>
 80015f8:	e0c4      	b.n	8001784 <__aeabi_dadd+0x608>
 80015fa:	1e51      	subs	r1, r2, #1
 80015fc:	2a01      	cmp	r2, #1
 80015fe:	d100      	bne.n	8001602 <__aeabi_dadd+0x486>
 8001600:	e0fb      	b.n	80017fa <__aeabi_dadd+0x67e>
 8001602:	4d8d      	ldr	r5, [pc, #564]	@ (8001838 <__aeabi_dadd+0x6bc>)
 8001604:	42aa      	cmp	r2, r5
 8001606:	d100      	bne.n	800160a <__aeabi_dadd+0x48e>
 8001608:	e0b5      	b.n	8001776 <__aeabi_dadd+0x5fa>
 800160a:	2501      	movs	r5, #1
 800160c:	2938      	cmp	r1, #56	@ 0x38
 800160e:	dd00      	ble.n	8001612 <__aeabi_dadd+0x496>
 8001610:	e741      	b.n	8001496 <__aeabi_dadd+0x31a>
 8001612:	000a      	movs	r2, r1
 8001614:	e72f      	b.n	8001476 <__aeabi_dadd+0x2fa>
 8001616:	4c89      	ldr	r4, [pc, #548]	@ (800183c <__aeabi_dadd+0x6c0>)
 8001618:	1aff      	subs	r7, r7, r3
 800161a:	4014      	ands	r4, r2
 800161c:	0762      	lsls	r2, r4, #29
 800161e:	08e4      	lsrs	r4, r4, #3
 8001620:	e76a      	b.n	80014f8 <__aeabi_dadd+0x37c>
 8001622:	4a85      	ldr	r2, [pc, #532]	@ (8001838 <__aeabi_dadd+0x6bc>)
 8001624:	4291      	cmp	r1, r2
 8001626:	d100      	bne.n	800162a <__aeabi_dadd+0x4ae>
 8001628:	e0e3      	b.n	80017f2 <__aeabi_dadd+0x676>
 800162a:	4663      	mov	r3, ip
 800162c:	18c2      	adds	r2, r0, r3
 800162e:	4282      	cmp	r2, r0
 8001630:	4180      	sbcs	r0, r0
 8001632:	0023      	movs	r3, r4
 8001634:	4240      	negs	r0, r0
 8001636:	4453      	add	r3, sl
 8001638:	181b      	adds	r3, r3, r0
 800163a:	07dd      	lsls	r5, r3, #31
 800163c:	085c      	lsrs	r4, r3, #1
 800163e:	2307      	movs	r3, #7
 8001640:	0852      	lsrs	r2, r2, #1
 8001642:	4315      	orrs	r5, r2
 8001644:	000f      	movs	r7, r1
 8001646:	402b      	ands	r3, r5
 8001648:	e700      	b.n	800144c <__aeabi_dadd+0x2d0>
 800164a:	4663      	mov	r3, ip
 800164c:	1a1d      	subs	r5, r3, r0
 800164e:	45ac      	cmp	ip, r5
 8001650:	4192      	sbcs	r2, r2
 8001652:	4653      	mov	r3, sl
 8001654:	4252      	negs	r2, r2
 8001656:	1b1c      	subs	r4, r3, r4
 8001658:	000e      	movs	r6, r1
 800165a:	4688      	mov	r8, r1
 800165c:	1aa4      	subs	r4, r4, r2
 800165e:	e5e5      	b.n	800122c <__aeabi_dadd+0xb0>
 8001660:	2d00      	cmp	r5, #0
 8001662:	d000      	beq.n	8001666 <__aeabi_dadd+0x4ea>
 8001664:	e091      	b.n	800178a <__aeabi_dadd+0x60e>
 8001666:	2a00      	cmp	r2, #0
 8001668:	d138      	bne.n	80016dc <__aeabi_dadd+0x560>
 800166a:	2480      	movs	r4, #128	@ 0x80
 800166c:	2600      	movs	r6, #0
 800166e:	0324      	lsls	r4, r4, #12
 8001670:	e756      	b.n	8001520 <__aeabi_dadd+0x3a4>
 8001672:	4663      	mov	r3, ip
 8001674:	18c5      	adds	r5, r0, r3
 8001676:	4285      	cmp	r5, r0
 8001678:	4180      	sbcs	r0, r0
 800167a:	4454      	add	r4, sl
 800167c:	4240      	negs	r0, r0
 800167e:	1824      	adds	r4, r4, r0
 8001680:	2701      	movs	r7, #1
 8001682:	0223      	lsls	r3, r4, #8
 8001684:	d400      	bmi.n	8001688 <__aeabi_dadd+0x50c>
 8001686:	e6df      	b.n	8001448 <__aeabi_dadd+0x2cc>
 8001688:	2702      	movs	r7, #2
 800168a:	e687      	b.n	800139c <__aeabi_dadd+0x220>
 800168c:	4663      	mov	r3, ip
 800168e:	1ac5      	subs	r5, r0, r3
 8001690:	42a8      	cmp	r0, r5
 8001692:	4180      	sbcs	r0, r0
 8001694:	4653      	mov	r3, sl
 8001696:	4240      	negs	r0, r0
 8001698:	1ae4      	subs	r4, r4, r3
 800169a:	2701      	movs	r7, #1
 800169c:	1a24      	subs	r4, r4, r0
 800169e:	e5c0      	b.n	8001222 <__aeabi_dadd+0xa6>
 80016a0:	0762      	lsls	r2, r4, #29
 80016a2:	08c0      	lsrs	r0, r0, #3
 80016a4:	4302      	orrs	r2, r0
 80016a6:	08e4      	lsrs	r4, r4, #3
 80016a8:	e736      	b.n	8001518 <__aeabi_dadd+0x39c>
 80016aa:	0011      	movs	r1, r2
 80016ac:	4653      	mov	r3, sl
 80016ae:	3920      	subs	r1, #32
 80016b0:	40cb      	lsrs	r3, r1
 80016b2:	4699      	mov	r9, r3
 80016b4:	2a20      	cmp	r2, #32
 80016b6:	d006      	beq.n	80016c6 <__aeabi_dadd+0x54a>
 80016b8:	2140      	movs	r1, #64	@ 0x40
 80016ba:	4653      	mov	r3, sl
 80016bc:	1a8a      	subs	r2, r1, r2
 80016be:	4093      	lsls	r3, r2
 80016c0:	4662      	mov	r2, ip
 80016c2:	431a      	orrs	r2, r3
 80016c4:	4694      	mov	ip, r2
 80016c6:	4665      	mov	r5, ip
 80016c8:	1e6b      	subs	r3, r5, #1
 80016ca:	419d      	sbcs	r5, r3
 80016cc:	464b      	mov	r3, r9
 80016ce:	431d      	orrs	r5, r3
 80016d0:	e659      	b.n	8001386 <__aeabi_dadd+0x20a>
 80016d2:	0762      	lsls	r2, r4, #29
 80016d4:	08c0      	lsrs	r0, r0, #3
 80016d6:	4302      	orrs	r2, r0
 80016d8:	08e4      	lsrs	r4, r4, #3
 80016da:	e70d      	b.n	80014f8 <__aeabi_dadd+0x37c>
 80016dc:	4653      	mov	r3, sl
 80016de:	075a      	lsls	r2, r3, #29
 80016e0:	4663      	mov	r3, ip
 80016e2:	08d8      	lsrs	r0, r3, #3
 80016e4:	4653      	mov	r3, sl
 80016e6:	000e      	movs	r6, r1
 80016e8:	4302      	orrs	r2, r0
 80016ea:	08dc      	lsrs	r4, r3, #3
 80016ec:	e714      	b.n	8001518 <__aeabi_dadd+0x39c>
 80016ee:	0015      	movs	r5, r2
 80016f0:	0026      	movs	r6, r4
 80016f2:	3d20      	subs	r5, #32
 80016f4:	40ee      	lsrs	r6, r5
 80016f6:	2a20      	cmp	r2, #32
 80016f8:	d003      	beq.n	8001702 <__aeabi_dadd+0x586>
 80016fa:	2540      	movs	r5, #64	@ 0x40
 80016fc:	1aaa      	subs	r2, r5, r2
 80016fe:	4094      	lsls	r4, r2
 8001700:	4320      	orrs	r0, r4
 8001702:	1e42      	subs	r2, r0, #1
 8001704:	4190      	sbcs	r0, r2
 8001706:	0005      	movs	r5, r0
 8001708:	4335      	orrs	r5, r6
 800170a:	e606      	b.n	800131a <__aeabi_dadd+0x19e>
 800170c:	2a00      	cmp	r2, #0
 800170e:	d07c      	beq.n	800180a <__aeabi_dadd+0x68e>
 8001710:	4662      	mov	r2, ip
 8001712:	4653      	mov	r3, sl
 8001714:	08c0      	lsrs	r0, r0, #3
 8001716:	431a      	orrs	r2, r3
 8001718:	d100      	bne.n	800171c <__aeabi_dadd+0x5a0>
 800171a:	e6fa      	b.n	8001512 <__aeabi_dadd+0x396>
 800171c:	0762      	lsls	r2, r4, #29
 800171e:	4310      	orrs	r0, r2
 8001720:	2280      	movs	r2, #128	@ 0x80
 8001722:	08e4      	lsrs	r4, r4, #3
 8001724:	0312      	lsls	r2, r2, #12
 8001726:	4214      	tst	r4, r2
 8001728:	d008      	beq.n	800173c <__aeabi_dadd+0x5c0>
 800172a:	08d9      	lsrs	r1, r3, #3
 800172c:	4211      	tst	r1, r2
 800172e:	d105      	bne.n	800173c <__aeabi_dadd+0x5c0>
 8001730:	4663      	mov	r3, ip
 8001732:	08d8      	lsrs	r0, r3, #3
 8001734:	4653      	mov	r3, sl
 8001736:	000c      	movs	r4, r1
 8001738:	075b      	lsls	r3, r3, #29
 800173a:	4318      	orrs	r0, r3
 800173c:	0f42      	lsrs	r2, r0, #29
 800173e:	00c0      	lsls	r0, r0, #3
 8001740:	08c0      	lsrs	r0, r0, #3
 8001742:	0752      	lsls	r2, r2, #29
 8001744:	4302      	orrs	r2, r0
 8001746:	e6e7      	b.n	8001518 <__aeabi_dadd+0x39c>
 8001748:	2a00      	cmp	r2, #0
 800174a:	d100      	bne.n	800174e <__aeabi_dadd+0x5d2>
 800174c:	e72d      	b.n	80015aa <__aeabi_dadd+0x42e>
 800174e:	4663      	mov	r3, ip
 8001750:	08d8      	lsrs	r0, r3, #3
 8001752:	4653      	mov	r3, sl
 8001754:	075a      	lsls	r2, r3, #29
 8001756:	000e      	movs	r6, r1
 8001758:	4302      	orrs	r2, r0
 800175a:	08dc      	lsrs	r4, r3, #3
 800175c:	e6cc      	b.n	80014f8 <__aeabi_dadd+0x37c>
 800175e:	4663      	mov	r3, ip
 8001760:	1a1d      	subs	r5, r3, r0
 8001762:	45ac      	cmp	ip, r5
 8001764:	4192      	sbcs	r2, r2
 8001766:	4653      	mov	r3, sl
 8001768:	4252      	negs	r2, r2
 800176a:	1b1c      	subs	r4, r3, r4
 800176c:	000e      	movs	r6, r1
 800176e:	4688      	mov	r8, r1
 8001770:	1aa4      	subs	r4, r4, r2
 8001772:	3701      	adds	r7, #1
 8001774:	e555      	b.n	8001222 <__aeabi_dadd+0xa6>
 8001776:	4663      	mov	r3, ip
 8001778:	08d9      	lsrs	r1, r3, #3
 800177a:	4653      	mov	r3, sl
 800177c:	075a      	lsls	r2, r3, #29
 800177e:	430a      	orrs	r2, r1
 8001780:	08dc      	lsrs	r4, r3, #3
 8001782:	e6c9      	b.n	8001518 <__aeabi_dadd+0x39c>
 8001784:	4660      	mov	r0, ip
 8001786:	4654      	mov	r4, sl
 8001788:	e6d4      	b.n	8001534 <__aeabi_dadd+0x3b8>
 800178a:	08c0      	lsrs	r0, r0, #3
 800178c:	2a00      	cmp	r2, #0
 800178e:	d100      	bne.n	8001792 <__aeabi_dadd+0x616>
 8001790:	e6bf      	b.n	8001512 <__aeabi_dadd+0x396>
 8001792:	0762      	lsls	r2, r4, #29
 8001794:	4310      	orrs	r0, r2
 8001796:	2280      	movs	r2, #128	@ 0x80
 8001798:	08e4      	lsrs	r4, r4, #3
 800179a:	0312      	lsls	r2, r2, #12
 800179c:	4214      	tst	r4, r2
 800179e:	d0cd      	beq.n	800173c <__aeabi_dadd+0x5c0>
 80017a0:	08dd      	lsrs	r5, r3, #3
 80017a2:	4215      	tst	r5, r2
 80017a4:	d1ca      	bne.n	800173c <__aeabi_dadd+0x5c0>
 80017a6:	4663      	mov	r3, ip
 80017a8:	08d8      	lsrs	r0, r3, #3
 80017aa:	4653      	mov	r3, sl
 80017ac:	075b      	lsls	r3, r3, #29
 80017ae:	000e      	movs	r6, r1
 80017b0:	002c      	movs	r4, r5
 80017b2:	4318      	orrs	r0, r3
 80017b4:	e7c2      	b.n	800173c <__aeabi_dadd+0x5c0>
 80017b6:	4663      	mov	r3, ip
 80017b8:	08d9      	lsrs	r1, r3, #3
 80017ba:	4653      	mov	r3, sl
 80017bc:	075a      	lsls	r2, r3, #29
 80017be:	430a      	orrs	r2, r1
 80017c0:	08dc      	lsrs	r4, r3, #3
 80017c2:	e699      	b.n	80014f8 <__aeabi_dadd+0x37c>
 80017c4:	4663      	mov	r3, ip
 80017c6:	08d8      	lsrs	r0, r3, #3
 80017c8:	4653      	mov	r3, sl
 80017ca:	075a      	lsls	r2, r3, #29
 80017cc:	000e      	movs	r6, r1
 80017ce:	4302      	orrs	r2, r0
 80017d0:	08dc      	lsrs	r4, r3, #3
 80017d2:	e6a1      	b.n	8001518 <__aeabi_dadd+0x39c>
 80017d4:	0011      	movs	r1, r2
 80017d6:	0027      	movs	r7, r4
 80017d8:	3920      	subs	r1, #32
 80017da:	40cf      	lsrs	r7, r1
 80017dc:	2a20      	cmp	r2, #32
 80017de:	d003      	beq.n	80017e8 <__aeabi_dadd+0x66c>
 80017e0:	2140      	movs	r1, #64	@ 0x40
 80017e2:	1a8a      	subs	r2, r1, r2
 80017e4:	4094      	lsls	r4, r2
 80017e6:	4320      	orrs	r0, r4
 80017e8:	1e42      	subs	r2, r0, #1
 80017ea:	4190      	sbcs	r0, r2
 80017ec:	0005      	movs	r5, r0
 80017ee:	433d      	orrs	r5, r7
 80017f0:	e651      	b.n	8001496 <__aeabi_dadd+0x31a>
 80017f2:	000c      	movs	r4, r1
 80017f4:	2500      	movs	r5, #0
 80017f6:	2200      	movs	r2, #0
 80017f8:	e558      	b.n	80012ac <__aeabi_dadd+0x130>
 80017fa:	4460      	add	r0, ip
 80017fc:	4560      	cmp	r0, ip
 80017fe:	4192      	sbcs	r2, r2
 8001800:	4454      	add	r4, sl
 8001802:	4252      	negs	r2, r2
 8001804:	0005      	movs	r5, r0
 8001806:	18a4      	adds	r4, r4, r2
 8001808:	e73a      	b.n	8001680 <__aeabi_dadd+0x504>
 800180a:	4653      	mov	r3, sl
 800180c:	075a      	lsls	r2, r3, #29
 800180e:	4663      	mov	r3, ip
 8001810:	08d9      	lsrs	r1, r3, #3
 8001812:	4653      	mov	r3, sl
 8001814:	430a      	orrs	r2, r1
 8001816:	08dc      	lsrs	r4, r3, #3
 8001818:	e67e      	b.n	8001518 <__aeabi_dadd+0x39c>
 800181a:	001a      	movs	r2, r3
 800181c:	001c      	movs	r4, r3
 800181e:	432a      	orrs	r2, r5
 8001820:	d000      	beq.n	8001824 <__aeabi_dadd+0x6a8>
 8001822:	e6ab      	b.n	800157c <__aeabi_dadd+0x400>
 8001824:	e6c1      	b.n	80015aa <__aeabi_dadd+0x42e>
 8001826:	2120      	movs	r1, #32
 8001828:	2500      	movs	r5, #0
 800182a:	1a09      	subs	r1, r1, r0
 800182c:	e519      	b.n	8001262 <__aeabi_dadd+0xe6>
 800182e:	2200      	movs	r2, #0
 8001830:	2500      	movs	r5, #0
 8001832:	4c01      	ldr	r4, [pc, #4]	@ (8001838 <__aeabi_dadd+0x6bc>)
 8001834:	e53a      	b.n	80012ac <__aeabi_dadd+0x130>
 8001836:	46c0      	nop			@ (mov r8, r8)
 8001838:	000007ff 	.word	0x000007ff
 800183c:	ff7fffff 	.word	0xff7fffff
 8001840:	000007fe 	.word	0x000007fe

08001844 <__aeabi_ddiv>:
 8001844:	b5f0      	push	{r4, r5, r6, r7, lr}
 8001846:	46de      	mov	lr, fp
 8001848:	4645      	mov	r5, r8
 800184a:	4657      	mov	r7, sl
 800184c:	464e      	mov	r6, r9
 800184e:	b5e0      	push	{r5, r6, r7, lr}
 8001850:	b087      	sub	sp, #28
 8001852:	9200      	str	r2, [sp, #0]
 8001854:	9301      	str	r3, [sp, #4]
 8001856:	030b      	lsls	r3, r1, #12
 8001858:	0b1b      	lsrs	r3, r3, #12
 800185a:	469b      	mov	fp, r3
 800185c:	0fca      	lsrs	r2, r1, #31
 800185e:	004b      	lsls	r3, r1, #1
 8001860:	0004      	movs	r4, r0
 8001862:	4680      	mov	r8, r0
 8001864:	0d5b      	lsrs	r3, r3, #21
 8001866:	9202      	str	r2, [sp, #8]
 8001868:	d100      	bne.n	800186c <__aeabi_ddiv+0x28>
 800186a:	e16a      	b.n	8001b42 <__aeabi_ddiv+0x2fe>
 800186c:	4ad4      	ldr	r2, [pc, #848]	@ (8001bc0 <__aeabi_ddiv+0x37c>)
 800186e:	4293      	cmp	r3, r2
 8001870:	d100      	bne.n	8001874 <__aeabi_ddiv+0x30>
 8001872:	e18c      	b.n	8001b8e <__aeabi_ddiv+0x34a>
 8001874:	4659      	mov	r1, fp
 8001876:	0f42      	lsrs	r2, r0, #29
 8001878:	00c9      	lsls	r1, r1, #3
 800187a:	430a      	orrs	r2, r1
 800187c:	2180      	movs	r1, #128	@ 0x80
 800187e:	0409      	lsls	r1, r1, #16
 8001880:	4311      	orrs	r1, r2
 8001882:	00c2      	lsls	r2, r0, #3
 8001884:	4690      	mov	r8, r2
 8001886:	4acf      	ldr	r2, [pc, #828]	@ (8001bc4 <__aeabi_ddiv+0x380>)
 8001888:	4689      	mov	r9, r1
 800188a:	4692      	mov	sl, r2
 800188c:	449a      	add	sl, r3
 800188e:	2300      	movs	r3, #0
 8001890:	2400      	movs	r4, #0
 8001892:	9303      	str	r3, [sp, #12]
 8001894:	9e00      	ldr	r6, [sp, #0]
 8001896:	9f01      	ldr	r7, [sp, #4]
 8001898:	033b      	lsls	r3, r7, #12
 800189a:	0b1b      	lsrs	r3, r3, #12
 800189c:	469b      	mov	fp, r3
 800189e:	007b      	lsls	r3, r7, #1
 80018a0:	0030      	movs	r0, r6
 80018a2:	0d5b      	lsrs	r3, r3, #21
 80018a4:	0ffd      	lsrs	r5, r7, #31
 80018a6:	2b00      	cmp	r3, #0
 80018a8:	d100      	bne.n	80018ac <__aeabi_ddiv+0x68>
 80018aa:	e128      	b.n	8001afe <__aeabi_ddiv+0x2ba>
 80018ac:	4ac4      	ldr	r2, [pc, #784]	@ (8001bc0 <__aeabi_ddiv+0x37c>)
 80018ae:	4293      	cmp	r3, r2
 80018b0:	d100      	bne.n	80018b4 <__aeabi_ddiv+0x70>
 80018b2:	e177      	b.n	8001ba4 <__aeabi_ddiv+0x360>
 80018b4:	4659      	mov	r1, fp
 80018b6:	0f72      	lsrs	r2, r6, #29
 80018b8:	00c9      	lsls	r1, r1, #3
 80018ba:	430a      	orrs	r2, r1
 80018bc:	2180      	movs	r1, #128	@ 0x80
 80018be:	0409      	lsls	r1, r1, #16
 80018c0:	4311      	orrs	r1, r2
 80018c2:	468b      	mov	fp, r1
 80018c4:	49bf      	ldr	r1, [pc, #764]	@ (8001bc4 <__aeabi_ddiv+0x380>)
 80018c6:	00f2      	lsls	r2, r6, #3
 80018c8:	468c      	mov	ip, r1
 80018ca:	4651      	mov	r1, sl
 80018cc:	4463      	add	r3, ip
 80018ce:	1acb      	subs	r3, r1, r3
 80018d0:	469a      	mov	sl, r3
 80018d2:	2300      	movs	r3, #0
 80018d4:	9e02      	ldr	r6, [sp, #8]
 80018d6:	406e      	eors	r6, r5
 80018d8:	2c0f      	cmp	r4, #15
 80018da:	d827      	bhi.n	800192c <__aeabi_ddiv+0xe8>
 80018dc:	49ba      	ldr	r1, [pc, #744]	@ (8001bc8 <__aeabi_ddiv+0x384>)
 80018de:	00a4      	lsls	r4, r4, #2
 80018e0:	5909      	ldr	r1, [r1, r4]
 80018e2:	468f      	mov	pc, r1
 80018e4:	46cb      	mov	fp, r9
 80018e6:	4642      	mov	r2, r8
 80018e8:	9e02      	ldr	r6, [sp, #8]
 80018ea:	9b03      	ldr	r3, [sp, #12]
 80018ec:	2b02      	cmp	r3, #2
 80018ee:	d016      	beq.n	800191e <__aeabi_ddiv+0xda>
 80018f0:	2b03      	cmp	r3, #3
 80018f2:	d100      	bne.n	80018f6 <__aeabi_ddiv+0xb2>
 80018f4:	e2a6      	b.n	8001e44 <__aeabi_ddiv+0x600>
 80018f6:	2b01      	cmp	r3, #1
 80018f8:	d000      	beq.n	80018fc <__aeabi_ddiv+0xb8>
 80018fa:	e0df      	b.n	8001abc <__aeabi_ddiv+0x278>
 80018fc:	2200      	movs	r2, #0
 80018fe:	2300      	movs	r3, #0
 8001900:	2400      	movs	r4, #0
 8001902:	4690      	mov	r8, r2
 8001904:	051b      	lsls	r3, r3, #20
 8001906:	4323      	orrs	r3, r4
 8001908:	07f6      	lsls	r6, r6, #31
 800190a:	4333      	orrs	r3, r6
 800190c:	4640      	mov	r0, r8
 800190e:	0019      	movs	r1, r3
 8001910:	b007      	add	sp, #28
 8001912:	bcf0      	pop	{r4, r5, r6, r7}
 8001914:	46bb      	mov	fp, r7
 8001916:	46b2      	mov	sl, r6
 8001918:	46a9      	mov	r9, r5
 800191a:	46a0      	mov	r8, r4
 800191c:	bdf0      	pop	{r4, r5, r6, r7, pc}
 800191e:	2200      	movs	r2, #0
 8001920:	2400      	movs	r4, #0
 8001922:	4690      	mov	r8, r2
 8001924:	4ba6      	ldr	r3, [pc, #664]	@ (8001bc0 <__aeabi_ddiv+0x37c>)
 8001926:	e7ed      	b.n	8001904 <__aeabi_ddiv+0xc0>
 8001928:	002e      	movs	r6, r5
 800192a:	e7df      	b.n	80018ec <__aeabi_ddiv+0xa8>
 800192c:	45cb      	cmp	fp, r9
 800192e:	d200      	bcs.n	8001932 <__aeabi_ddiv+0xee>
 8001930:	e1d4      	b.n	8001cdc <__aeabi_ddiv+0x498>
 8001932:	d100      	bne.n	8001936 <__aeabi_ddiv+0xf2>
 8001934:	e1cf      	b.n	8001cd6 <__aeabi_ddiv+0x492>
 8001936:	2301      	movs	r3, #1
 8001938:	425b      	negs	r3, r3
 800193a:	469c      	mov	ip, r3
 800193c:	4644      	mov	r4, r8
 800193e:	4648      	mov	r0, r9
 8001940:	2700      	movs	r7, #0
 8001942:	44e2      	add	sl, ip
 8001944:	465b      	mov	r3, fp
 8001946:	0e15      	lsrs	r5, r2, #24
 8001948:	021b      	lsls	r3, r3, #8
 800194a:	431d      	orrs	r5, r3
 800194c:	0c19      	lsrs	r1, r3, #16
 800194e:	042b      	lsls	r3, r5, #16
 8001950:	0212      	lsls	r2, r2, #8
 8001952:	9500      	str	r5, [sp, #0]
 8001954:	0c1d      	lsrs	r5, r3, #16
 8001956:	4691      	mov	r9, r2
 8001958:	9102      	str	r1, [sp, #8]
 800195a:	9503      	str	r5, [sp, #12]
 800195c:	f7fe fc5a 	bl	8000214 <__aeabi_uidivmod>
 8001960:	0002      	movs	r2, r0
 8001962:	436a      	muls	r2, r5
 8001964:	040b      	lsls	r3, r1, #16
 8001966:	0c21      	lsrs	r1, r4, #16
 8001968:	4680      	mov	r8, r0
 800196a:	4319      	orrs	r1, r3
 800196c:	428a      	cmp	r2, r1
 800196e:	d909      	bls.n	8001984 <__aeabi_ddiv+0x140>
 8001970:	9d00      	ldr	r5, [sp, #0]
 8001972:	2301      	movs	r3, #1
 8001974:	46ac      	mov	ip, r5
 8001976:	425b      	negs	r3, r3
 8001978:	4461      	add	r1, ip
 800197a:	469c      	mov	ip, r3
 800197c:	44e0      	add	r8, ip
 800197e:	428d      	cmp	r5, r1
 8001980:	d800      	bhi.n	8001984 <__aeabi_ddiv+0x140>
 8001982:	e1fb      	b.n	8001d7c <__aeabi_ddiv+0x538>
 8001984:	1a88      	subs	r0, r1, r2
 8001986:	9902      	ldr	r1, [sp, #8]
 8001988:	f7fe fc44 	bl	8000214 <__aeabi_uidivmod>
 800198c:	9a03      	ldr	r2, [sp, #12]
 800198e:	0424      	lsls	r4, r4, #16
 8001990:	4342      	muls	r2, r0
 8001992:	0409      	lsls	r1, r1, #16
 8001994:	0c24      	lsrs	r4, r4, #16
 8001996:	0003      	movs	r3, r0
 8001998:	430c      	orrs	r4, r1
 800199a:	42a2      	cmp	r2, r4
 800199c:	d906      	bls.n	80019ac <__aeabi_ddiv+0x168>
 800199e:	9900      	ldr	r1, [sp, #0]
 80019a0:	3b01      	subs	r3, #1
 80019a2:	468c      	mov	ip, r1
 80019a4:	4464      	add	r4, ip
 80019a6:	42a1      	cmp	r1, r4
 80019a8:	d800      	bhi.n	80019ac <__aeabi_ddiv+0x168>
 80019aa:	e1e1      	b.n	8001d70 <__aeabi_ddiv+0x52c>
 80019ac:	1aa0      	subs	r0, r4, r2
 80019ae:	4642      	mov	r2, r8
 80019b0:	0412      	lsls	r2, r2, #16
 80019b2:	431a      	orrs	r2, r3
 80019b4:	4693      	mov	fp, r2
 80019b6:	464b      	mov	r3, r9
 80019b8:	4659      	mov	r1, fp
 80019ba:	0c1b      	lsrs	r3, r3, #16
 80019bc:	001d      	movs	r5, r3
 80019be:	9304      	str	r3, [sp, #16]
 80019c0:	040b      	lsls	r3, r1, #16
 80019c2:	4649      	mov	r1, r9
 80019c4:	0409      	lsls	r1, r1, #16
 80019c6:	0c09      	lsrs	r1, r1, #16
 80019c8:	000c      	movs	r4, r1
 80019ca:	0c1b      	lsrs	r3, r3, #16
 80019cc:	435c      	muls	r4, r3
 80019ce:	0c12      	lsrs	r2, r2, #16
 80019d0:	436b      	muls	r3, r5
 80019d2:	4688      	mov	r8, r1
 80019d4:	4351      	muls	r1, r2
 80019d6:	436a      	muls	r2, r5
 80019d8:	0c25      	lsrs	r5, r4, #16
 80019da:	46ac      	mov	ip, r5
 80019dc:	185b      	adds	r3, r3, r1
 80019de:	4463      	add	r3, ip
 80019e0:	4299      	cmp	r1, r3
 80019e2:	d903      	bls.n	80019ec <__aeabi_ddiv+0x1a8>
 80019e4:	2180      	movs	r1, #128	@ 0x80
 80019e6:	0249      	lsls	r1, r1, #9
 80019e8:	468c      	mov	ip, r1
 80019ea:	4462      	add	r2, ip
 80019ec:	0c19      	lsrs	r1, r3, #16
 80019ee:	0424      	lsls	r4, r4, #16
 80019f0:	041b      	lsls	r3, r3, #16
 80019f2:	0c24      	lsrs	r4, r4, #16
 80019f4:	188a      	adds	r2, r1, r2
 80019f6:	191c      	adds	r4, r3, r4
 80019f8:	4290      	cmp	r0, r2
 80019fa:	d302      	bcc.n	8001a02 <__aeabi_ddiv+0x1be>
 80019fc:	d116      	bne.n	8001a2c <__aeabi_ddiv+0x1e8>
 80019fe:	42a7      	cmp	r7, r4
 8001a00:	d214      	bcs.n	8001a2c <__aeabi_ddiv+0x1e8>
 8001a02:	465b      	mov	r3, fp
 8001a04:	9d00      	ldr	r5, [sp, #0]
 8001a06:	3b01      	subs	r3, #1
 8001a08:	444f      	add	r7, r9
 8001a0a:	9305      	str	r3, [sp, #20]
 8001a0c:	454f      	cmp	r7, r9
 8001a0e:	419b      	sbcs	r3, r3
 8001a10:	46ac      	mov	ip, r5
 8001a12:	425b      	negs	r3, r3
 8001a14:	4463      	add	r3, ip
 8001a16:	18c0      	adds	r0, r0, r3
 8001a18:	4285      	cmp	r5, r0
 8001a1a:	d300      	bcc.n	8001a1e <__aeabi_ddiv+0x1da>
 8001a1c:	e1a1      	b.n	8001d62 <__aeabi_ddiv+0x51e>
 8001a1e:	4282      	cmp	r2, r0
 8001a20:	d900      	bls.n	8001a24 <__aeabi_ddiv+0x1e0>
 8001a22:	e1f6      	b.n	8001e12 <__aeabi_ddiv+0x5ce>
 8001a24:	d100      	bne.n	8001a28 <__aeabi_ddiv+0x1e4>
 8001a26:	e1f1      	b.n	8001e0c <__aeabi_ddiv+0x5c8>
 8001a28:	9b05      	ldr	r3, [sp, #20]
 8001a2a:	469b      	mov	fp, r3
 8001a2c:	1b3c      	subs	r4, r7, r4
 8001a2e:	42a7      	cmp	r7, r4
 8001a30:	41bf      	sbcs	r7, r7
 8001a32:	9d00      	ldr	r5, [sp, #0]
 8001a34:	1a80      	subs	r0, r0, r2
 8001a36:	427f      	negs	r7, r7
 8001a38:	1bc0      	subs	r0, r0, r7
 8001a3a:	4285      	cmp	r5, r0
 8001a3c:	d100      	bne.n	8001a40 <__aeabi_ddiv+0x1fc>
 8001a3e:	e1d0      	b.n	8001de2 <__aeabi_ddiv+0x59e>
 8001a40:	9902      	ldr	r1, [sp, #8]
 8001a42:	f7fe fbe7 	bl	8000214 <__aeabi_uidivmod>
 8001a46:	9a03      	ldr	r2, [sp, #12]
 8001a48:	040b      	lsls	r3, r1, #16
 8001a4a:	4342      	muls	r2, r0
 8001a4c:	0c21      	lsrs	r1, r4, #16
 8001a4e:	0007      	movs	r7, r0
 8001a50:	4319      	orrs	r1, r3
 8001a52:	428a      	cmp	r2, r1
 8001a54:	d900      	bls.n	8001a58 <__aeabi_ddiv+0x214>
 8001a56:	e178      	b.n	8001d4a <__aeabi_ddiv+0x506>
 8001a58:	1a88      	subs	r0, r1, r2
 8001a5a:	9902      	ldr	r1, [sp, #8]
 8001a5c:	f7fe fbda 	bl	8000214 <__aeabi_uidivmod>
 8001a60:	9a03      	ldr	r2, [sp, #12]
 8001a62:	0424      	lsls	r4, r4, #16
 8001a64:	4342      	muls	r2, r0
 8001a66:	0409      	lsls	r1, r1, #16
 8001a68:	0c24      	lsrs	r4, r4, #16
 8001a6a:	0003      	movs	r3, r0
 8001a6c:	430c      	orrs	r4, r1
 8001a6e:	42a2      	cmp	r2, r4
 8001a70:	d900      	bls.n	8001a74 <__aeabi_ddiv+0x230>
 8001a72:	e15d      	b.n	8001d30 <__aeabi_ddiv+0x4ec>
 8001a74:	4641      	mov	r1, r8
 8001a76:	1aa4      	subs	r4, r4, r2
 8001a78:	043a      	lsls	r2, r7, #16
 8001a7a:	431a      	orrs	r2, r3
 8001a7c:	9d04      	ldr	r5, [sp, #16]
 8001a7e:	0413      	lsls	r3, r2, #16
 8001a80:	0c1b      	lsrs	r3, r3, #16
 8001a82:	4359      	muls	r1, r3
 8001a84:	4647      	mov	r7, r8
 8001a86:	436b      	muls	r3, r5
 8001a88:	469c      	mov	ip, r3
 8001a8a:	0c10      	lsrs	r0, r2, #16
 8001a8c:	4347      	muls	r7, r0
 8001a8e:	0c0b      	lsrs	r3, r1, #16
 8001a90:	44bc      	add	ip, r7
 8001a92:	4463      	add	r3, ip
 8001a94:	4368      	muls	r0, r5
 8001a96:	429f      	cmp	r7, r3
 8001a98:	d903      	bls.n	8001aa2 <__aeabi_ddiv+0x25e>
 8001a9a:	2580      	movs	r5, #128	@ 0x80
 8001a9c:	026d      	lsls	r5, r5, #9
 8001a9e:	46ac      	mov	ip, r5
 8001aa0:	4460      	add	r0, ip
 8001aa2:	0c1f      	lsrs	r7, r3, #16
 8001aa4:	0409      	lsls	r1, r1, #16
 8001aa6:	041b      	lsls	r3, r3, #16
 8001aa8:	0c09      	lsrs	r1, r1, #16
 8001aaa:	183f      	adds	r7, r7, r0
 8001aac:	185b      	adds	r3, r3, r1
 8001aae:	42bc      	cmp	r4, r7
 8001ab0:	d200      	bcs.n	8001ab4 <__aeabi_ddiv+0x270>
 8001ab2:	e102      	b.n	8001cba <__aeabi_ddiv+0x476>
 8001ab4:	d100      	bne.n	8001ab8 <__aeabi_ddiv+0x274>
 8001ab6:	e0fd      	b.n	8001cb4 <__aeabi_ddiv+0x470>
 8001ab8:	2301      	movs	r3, #1
 8001aba:	431a      	orrs	r2, r3
 8001abc:	4b43      	ldr	r3, [pc, #268]	@ (8001bcc <__aeabi_ddiv+0x388>)
 8001abe:	4453      	add	r3, sl
 8001ac0:	2b00      	cmp	r3, #0
 8001ac2:	dc00      	bgt.n	8001ac6 <__aeabi_ddiv+0x282>
 8001ac4:	e0ae      	b.n	8001c24 <__aeabi_ddiv+0x3e0>
 8001ac6:	0751      	lsls	r1, r2, #29
 8001ac8:	d000      	beq.n	8001acc <__aeabi_ddiv+0x288>
 8001aca:	e198      	b.n	8001dfe <__aeabi_ddiv+0x5ba>
 8001acc:	4659      	mov	r1, fp
 8001ace:	01c9      	lsls	r1, r1, #7
 8001ad0:	d506      	bpl.n	8001ae0 <__aeabi_ddiv+0x29c>
 8001ad2:	4659      	mov	r1, fp
 8001ad4:	4b3e      	ldr	r3, [pc, #248]	@ (8001bd0 <__aeabi_ddiv+0x38c>)
 8001ad6:	4019      	ands	r1, r3
 8001ad8:	2380      	movs	r3, #128	@ 0x80
 8001ada:	468b      	mov	fp, r1
 8001adc:	00db      	lsls	r3, r3, #3
 8001ade:	4453      	add	r3, sl
 8001ae0:	493c      	ldr	r1, [pc, #240]	@ (8001bd4 <__aeabi_ddiv+0x390>)
 8001ae2:	428b      	cmp	r3, r1
 8001ae4:	dd00      	ble.n	8001ae8 <__aeabi_ddiv+0x2a4>
 8001ae6:	e71a      	b.n	800191e <__aeabi_ddiv+0xda>
 8001ae8:	4659      	mov	r1, fp
 8001aea:	08d2      	lsrs	r2, r2, #3
 8001aec:	0749      	lsls	r1, r1, #29
 8001aee:	4311      	orrs	r1, r2
 8001af0:	465a      	mov	r2, fp
 8001af2:	055b      	lsls	r3, r3, #21
 8001af4:	0254      	lsls	r4, r2, #9
 8001af6:	4688      	mov	r8, r1
 8001af8:	0b24      	lsrs	r4, r4, #12
 8001afa:	0d5b      	lsrs	r3, r3, #21
 8001afc:	e702      	b.n	8001904 <__aeabi_ddiv+0xc0>
 8001afe:	465a      	mov	r2, fp
 8001b00:	9b00      	ldr	r3, [sp, #0]
 8001b02:	431a      	orrs	r2, r3
 8001b04:	d100      	bne.n	8001b08 <__aeabi_ddiv+0x2c4>
 8001b06:	e07e      	b.n	8001c06 <__aeabi_ddiv+0x3c2>
 8001b08:	465b      	mov	r3, fp
 8001b0a:	2b00      	cmp	r3, #0
 8001b0c:	d100      	bne.n	8001b10 <__aeabi_ddiv+0x2cc>
 8001b0e:	e100      	b.n	8001d12 <__aeabi_ddiv+0x4ce>
 8001b10:	4658      	mov	r0, fp
 8001b12:	f001 fa97 	bl	8003044 <__clzsi2>
 8001b16:	0002      	movs	r2, r0
 8001b18:	0003      	movs	r3, r0
 8001b1a:	3a0b      	subs	r2, #11
 8001b1c:	271d      	movs	r7, #29
 8001b1e:	9e00      	ldr	r6, [sp, #0]
 8001b20:	1aba      	subs	r2, r7, r2
 8001b22:	0019      	movs	r1, r3
 8001b24:	4658      	mov	r0, fp
 8001b26:	40d6      	lsrs	r6, r2
 8001b28:	3908      	subs	r1, #8
 8001b2a:	4088      	lsls	r0, r1
 8001b2c:	0032      	movs	r2, r6
 8001b2e:	4302      	orrs	r2, r0
 8001b30:	4693      	mov	fp, r2
 8001b32:	9a00      	ldr	r2, [sp, #0]
 8001b34:	408a      	lsls	r2, r1
 8001b36:	4928      	ldr	r1, [pc, #160]	@ (8001bd8 <__aeabi_ddiv+0x394>)
 8001b38:	4453      	add	r3, sl
 8001b3a:	468a      	mov	sl, r1
 8001b3c:	449a      	add	sl, r3
 8001b3e:	2300      	movs	r3, #0
 8001b40:	e6c8      	b.n	80018d4 <__aeabi_ddiv+0x90>
 8001b42:	465b      	mov	r3, fp
 8001b44:	4303      	orrs	r3, r0
 8001b46:	4699      	mov	r9, r3
 8001b48:	d056      	beq.n	8001bf8 <__aeabi_ddiv+0x3b4>
 8001b4a:	465b      	mov	r3, fp
 8001b4c:	2b00      	cmp	r3, #0
 8001b4e:	d100      	bne.n	8001b52 <__aeabi_ddiv+0x30e>
 8001b50:	e0cd      	b.n	8001cee <__aeabi_ddiv+0x4aa>
 8001b52:	4658      	mov	r0, fp
 8001b54:	f001 fa76 	bl	8003044 <__clzsi2>
 8001b58:	230b      	movs	r3, #11
 8001b5a:	425b      	negs	r3, r3
 8001b5c:	469c      	mov	ip, r3
 8001b5e:	0002      	movs	r2, r0
 8001b60:	4484      	add	ip, r0
 8001b62:	4666      	mov	r6, ip
 8001b64:	231d      	movs	r3, #29
 8001b66:	1b9b      	subs	r3, r3, r6
 8001b68:	0026      	movs	r6, r4
 8001b6a:	0011      	movs	r1, r2
 8001b6c:	4658      	mov	r0, fp
 8001b6e:	40de      	lsrs	r6, r3
 8001b70:	3908      	subs	r1, #8
 8001b72:	4088      	lsls	r0, r1
 8001b74:	0033      	movs	r3, r6
 8001b76:	4303      	orrs	r3, r0
 8001b78:	4699      	mov	r9, r3
 8001b7a:	0023      	movs	r3, r4
 8001b7c:	408b      	lsls	r3, r1
 8001b7e:	4698      	mov	r8, r3
 8001b80:	4b16      	ldr	r3, [pc, #88]	@ (8001bdc <__aeabi_ddiv+0x398>)
 8001b82:	2400      	movs	r4, #0
 8001b84:	1a9b      	subs	r3, r3, r2
 8001b86:	469a      	mov	sl, r3
 8001b88:	2300      	movs	r3, #0
 8001b8a:	9303      	str	r3, [sp, #12]
 8001b8c:	e682      	b.n	8001894 <__aeabi_ddiv+0x50>
 8001b8e:	465a      	mov	r2, fp
 8001b90:	4302      	orrs	r2, r0
 8001b92:	4691      	mov	r9, r2
 8001b94:	d12a      	bne.n	8001bec <__aeabi_ddiv+0x3a8>
 8001b96:	2200      	movs	r2, #0
 8001b98:	469a      	mov	sl, r3
 8001b9a:	2302      	movs	r3, #2
 8001b9c:	4690      	mov	r8, r2
 8001b9e:	2408      	movs	r4, #8
 8001ba0:	9303      	str	r3, [sp, #12]
 8001ba2:	e677      	b.n	8001894 <__aeabi_ddiv+0x50>
 8001ba4:	465a      	mov	r2, fp
 8001ba6:	9b00      	ldr	r3, [sp, #0]
 8001ba8:	431a      	orrs	r2, r3
 8001baa:	4b0d      	ldr	r3, [pc, #52]	@ (8001be0 <__aeabi_ddiv+0x39c>)
 8001bac:	469c      	mov	ip, r3
 8001bae:	44e2      	add	sl, ip
 8001bb0:	2a00      	cmp	r2, #0
 8001bb2:	d117      	bne.n	8001be4 <__aeabi_ddiv+0x3a0>
 8001bb4:	2302      	movs	r3, #2
 8001bb6:	431c      	orrs	r4, r3
 8001bb8:	2300      	movs	r3, #0
 8001bba:	469b      	mov	fp, r3
 8001bbc:	3302      	adds	r3, #2
 8001bbe:	e689      	b.n	80018d4 <__aeabi_ddiv+0x90>
 8001bc0:	000007ff 	.word	0x000007ff
 8001bc4:	fffffc01 	.word	0xfffffc01
 8001bc8:	08006220 	.word	0x08006220
 8001bcc:	000003ff 	.word	0x000003ff
 8001bd0:	feffffff 	.word	0xfeffffff
 8001bd4:	000007fe 	.word	0x000007fe
 8001bd8:	000003f3 	.word	0x000003f3
 8001bdc:	fffffc0d 	.word	0xfffffc0d
 8001be0:	fffff801 	.word	0xfffff801
 8001be4:	2303      	movs	r3, #3
 8001be6:	0032      	movs	r2, r6
 8001be8:	431c      	orrs	r4, r3
 8001bea:	e673      	b.n	80018d4 <__aeabi_ddiv+0x90>
 8001bec:	469a      	mov	sl, r3
 8001bee:	2303      	movs	r3, #3
 8001bf0:	46d9      	mov	r9, fp
 8001bf2:	240c      	movs	r4, #12
 8001bf4:	9303      	str	r3, [sp, #12]
 8001bf6:	e64d      	b.n	8001894 <__aeabi_ddiv+0x50>
 8001bf8:	2300      	movs	r3, #0
 8001bfa:	4698      	mov	r8, r3
 8001bfc:	469a      	mov	sl, r3
 8001bfe:	3301      	adds	r3, #1
 8001c00:	2404      	movs	r4, #4
 8001c02:	9303      	str	r3, [sp, #12]
 8001c04:	e646      	b.n	8001894 <__aeabi_ddiv+0x50>
 8001c06:	2301      	movs	r3, #1
 8001c08:	431c      	orrs	r4, r3
 8001c0a:	2300      	movs	r3, #0
 8001c0c:	469b      	mov	fp, r3
 8001c0e:	3301      	adds	r3, #1
 8001c10:	e660      	b.n	80018d4 <__aeabi_ddiv+0x90>
 8001c12:	2300      	movs	r3, #0
 8001c14:	2480      	movs	r4, #128	@ 0x80
 8001c16:	4698      	mov	r8, r3
 8001c18:	2600      	movs	r6, #0
 8001c1a:	4b92      	ldr	r3, [pc, #584]	@ (8001e64 <__aeabi_ddiv+0x620>)
 8001c1c:	0324      	lsls	r4, r4, #12
 8001c1e:	e671      	b.n	8001904 <__aeabi_ddiv+0xc0>
 8001c20:	2201      	movs	r2, #1
 8001c22:	4252      	negs	r2, r2
 8001c24:	2101      	movs	r1, #1
 8001c26:	1ac9      	subs	r1, r1, r3
 8001c28:	2938      	cmp	r1, #56	@ 0x38
 8001c2a:	dd00      	ble.n	8001c2e <__aeabi_ddiv+0x3ea>
 8001c2c:	e666      	b.n	80018fc <__aeabi_ddiv+0xb8>
 8001c2e:	291f      	cmp	r1, #31
 8001c30:	dc00      	bgt.n	8001c34 <__aeabi_ddiv+0x3f0>
 8001c32:	e0ab      	b.n	8001d8c <__aeabi_ddiv+0x548>
 8001c34:	201f      	movs	r0, #31
 8001c36:	4240      	negs	r0, r0
 8001c38:	1ac3      	subs	r3, r0, r3
 8001c3a:	4658      	mov	r0, fp
 8001c3c:	40d8      	lsrs	r0, r3
 8001c3e:	0003      	movs	r3, r0
 8001c40:	2920      	cmp	r1, #32
 8001c42:	d004      	beq.n	8001c4e <__aeabi_ddiv+0x40a>
 8001c44:	4658      	mov	r0, fp
 8001c46:	4988      	ldr	r1, [pc, #544]	@ (8001e68 <__aeabi_ddiv+0x624>)
 8001c48:	4451      	add	r1, sl
 8001c4a:	4088      	lsls	r0, r1
 8001c4c:	4302      	orrs	r2, r0
 8001c4e:	1e51      	subs	r1, r2, #1
 8001c50:	418a      	sbcs	r2, r1
 8001c52:	431a      	orrs	r2, r3
 8001c54:	2307      	movs	r3, #7
 8001c56:	0019      	movs	r1, r3
 8001c58:	2400      	movs	r4, #0
 8001c5a:	4011      	ands	r1, r2
 8001c5c:	4213      	tst	r3, r2
 8001c5e:	d00c      	beq.n	8001c7a <__aeabi_ddiv+0x436>
 8001c60:	230f      	movs	r3, #15
 8001c62:	4013      	ands	r3, r2
 8001c64:	2b04      	cmp	r3, #4
 8001c66:	d100      	bne.n	8001c6a <__aeabi_ddiv+0x426>
 8001c68:	e0f9      	b.n	8001e5e <__aeabi_ddiv+0x61a>
 8001c6a:	1d11      	adds	r1, r2, #4
 8001c6c:	4291      	cmp	r1, r2
 8001c6e:	419b      	sbcs	r3, r3
 8001c70:	000a      	movs	r2, r1
 8001c72:	425b      	negs	r3, r3
 8001c74:	0759      	lsls	r1, r3, #29
 8001c76:	025b      	lsls	r3, r3, #9
 8001c78:	0b1c      	lsrs	r4, r3, #12
 8001c7a:	08d2      	lsrs	r2, r2, #3
 8001c7c:	430a      	orrs	r2, r1
 8001c7e:	4690      	mov	r8, r2
 8001c80:	2300      	movs	r3, #0
 8001c82:	e63f      	b.n	8001904 <__aeabi_ddiv+0xc0>
 8001c84:	2480      	movs	r4, #128	@ 0x80
 8001c86:	464b      	mov	r3, r9
 8001c88:	0324      	lsls	r4, r4, #12
 8001c8a:	4223      	tst	r3, r4
 8001c8c:	d009      	beq.n	8001ca2 <__aeabi_ddiv+0x45e>
 8001c8e:	465b      	mov	r3, fp
 8001c90:	4223      	tst	r3, r4
 8001c92:	d106      	bne.n	8001ca2 <__aeabi_ddiv+0x45e>
 8001c94:	431c      	orrs	r4, r3
 8001c96:	0324      	lsls	r4, r4, #12
 8001c98:	002e      	movs	r6, r5
 8001c9a:	4690      	mov	r8, r2
 8001c9c:	4b71      	ldr	r3, [pc, #452]	@ (8001e64 <__aeabi_ddiv+0x620>)
 8001c9e:	0b24      	lsrs	r4, r4, #12
 8001ca0:	e630      	b.n	8001904 <__aeabi_ddiv+0xc0>
 8001ca2:	2480      	movs	r4, #128	@ 0x80
 8001ca4:	464b      	mov	r3, r9
 8001ca6:	0324      	lsls	r4, r4, #12
 8001ca8:	431c      	orrs	r4, r3
 8001caa:	0324      	lsls	r4, r4, #12
 8001cac:	9e02      	ldr	r6, [sp, #8]
 8001cae:	4b6d      	ldr	r3, [pc, #436]	@ (8001e64 <__aeabi_ddiv+0x620>)
 8001cb0:	0b24      	lsrs	r4, r4, #12
 8001cb2:	e627      	b.n	8001904 <__aeabi_ddiv+0xc0>
 8001cb4:	2b00      	cmp	r3, #0
 8001cb6:	d100      	bne.n	8001cba <__aeabi_ddiv+0x476>
 8001cb8:	e700      	b.n	8001abc <__aeabi_ddiv+0x278>
 8001cba:	9800      	ldr	r0, [sp, #0]
 8001cbc:	1e51      	subs	r1, r2, #1
 8001cbe:	4684      	mov	ip, r0
 8001cc0:	4464      	add	r4, ip
 8001cc2:	4284      	cmp	r4, r0
 8001cc4:	d200      	bcs.n	8001cc8 <__aeabi_ddiv+0x484>
 8001cc6:	e084      	b.n	8001dd2 <__aeabi_ddiv+0x58e>
 8001cc8:	42bc      	cmp	r4, r7
 8001cca:	d200      	bcs.n	8001cce <__aeabi_ddiv+0x48a>
 8001ccc:	e0ae      	b.n	8001e2c <__aeabi_ddiv+0x5e8>
 8001cce:	d100      	bne.n	8001cd2 <__aeabi_ddiv+0x48e>
 8001cd0:	e0c1      	b.n	8001e56 <__aeabi_ddiv+0x612>
 8001cd2:	000a      	movs	r2, r1
 8001cd4:	e6f0      	b.n	8001ab8 <__aeabi_ddiv+0x274>
 8001cd6:	4542      	cmp	r2, r8
 8001cd8:	d900      	bls.n	8001cdc <__aeabi_ddiv+0x498>
 8001cda:	e62c      	b.n	8001936 <__aeabi_ddiv+0xf2>
 8001cdc:	464b      	mov	r3, r9
 8001cde:	07dc      	lsls	r4, r3, #31
 8001ce0:	0858      	lsrs	r0, r3, #1
 8001ce2:	4643      	mov	r3, r8
 8001ce4:	085b      	lsrs	r3, r3, #1
 8001ce6:	431c      	orrs	r4, r3
 8001ce8:	4643      	mov	r3, r8
 8001cea:	07df      	lsls	r7, r3, #31
 8001cec:	e62a      	b.n	8001944 <__aeabi_ddiv+0x100>
 8001cee:	f001 f9a9 	bl	8003044 <__clzsi2>
 8001cf2:	2315      	movs	r3, #21
 8001cf4:	469c      	mov	ip, r3
 8001cf6:	4484      	add	ip, r0
 8001cf8:	0002      	movs	r2, r0
 8001cfa:	4663      	mov	r3, ip
 8001cfc:	3220      	adds	r2, #32
 8001cfe:	2b1c      	cmp	r3, #28
 8001d00:	dc00      	bgt.n	8001d04 <__aeabi_ddiv+0x4c0>
 8001d02:	e72e      	b.n	8001b62 <__aeabi_ddiv+0x31e>
 8001d04:	0023      	movs	r3, r4
 8001d06:	3808      	subs	r0, #8
 8001d08:	4083      	lsls	r3, r0
 8001d0a:	4699      	mov	r9, r3
 8001d0c:	2300      	movs	r3, #0
 8001d0e:	4698      	mov	r8, r3
 8001d10:	e736      	b.n	8001b80 <__aeabi_ddiv+0x33c>
 8001d12:	f001 f997 	bl	8003044 <__clzsi2>
 8001d16:	0002      	movs	r2, r0
 8001d18:	0003      	movs	r3, r0
 8001d1a:	3215      	adds	r2, #21
 8001d1c:	3320      	adds	r3, #32
 8001d1e:	2a1c      	cmp	r2, #28
 8001d20:	dc00      	bgt.n	8001d24 <__aeabi_ddiv+0x4e0>
 8001d22:	e6fb      	b.n	8001b1c <__aeabi_ddiv+0x2d8>
 8001d24:	9900      	ldr	r1, [sp, #0]
 8001d26:	3808      	subs	r0, #8
 8001d28:	4081      	lsls	r1, r0
 8001d2a:	2200      	movs	r2, #0
 8001d2c:	468b      	mov	fp, r1
 8001d2e:	e702      	b.n	8001b36 <__aeabi_ddiv+0x2f2>
 8001d30:	9900      	ldr	r1, [sp, #0]
 8001d32:	3b01      	subs	r3, #1
 8001d34:	468c      	mov	ip, r1
 8001d36:	4464      	add	r4, ip
 8001d38:	42a1      	cmp	r1, r4
 8001d3a:	d900      	bls.n	8001d3e <__aeabi_ddiv+0x4fa>
 8001d3c:	e69a      	b.n	8001a74 <__aeabi_ddiv+0x230>
 8001d3e:	42a2      	cmp	r2, r4
 8001d40:	d800      	bhi.n	8001d44 <__aeabi_ddiv+0x500>
 8001d42:	e697      	b.n	8001a74 <__aeabi_ddiv+0x230>
 8001d44:	1e83      	subs	r3, r0, #2
 8001d46:	4464      	add	r4, ip
 8001d48:	e694      	b.n	8001a74 <__aeabi_ddiv+0x230>
 8001d4a:	46ac      	mov	ip, r5
 8001d4c:	4461      	add	r1, ip
 8001d4e:	3f01      	subs	r7, #1
 8001d50:	428d      	cmp	r5, r1
 8001d52:	d900      	bls.n	8001d56 <__aeabi_ddiv+0x512>
 8001d54:	e680      	b.n	8001a58 <__aeabi_ddiv+0x214>
 8001d56:	428a      	cmp	r2, r1
 8001d58:	d800      	bhi.n	8001d5c <__aeabi_ddiv+0x518>
 8001d5a:	e67d      	b.n	8001a58 <__aeabi_ddiv+0x214>
 8001d5c:	1e87      	subs	r7, r0, #2
 8001d5e:	4461      	add	r1, ip
 8001d60:	e67a      	b.n	8001a58 <__aeabi_ddiv+0x214>
 8001d62:	4285      	cmp	r5, r0
 8001d64:	d000      	beq.n	8001d68 <__aeabi_ddiv+0x524>
 8001d66:	e65f      	b.n	8001a28 <__aeabi_ddiv+0x1e4>
 8001d68:	45b9      	cmp	r9, r7
 8001d6a:	d900      	bls.n	8001d6e <__aeabi_ddiv+0x52a>
 8001d6c:	e65c      	b.n	8001a28 <__aeabi_ddiv+0x1e4>
 8001d6e:	e656      	b.n	8001a1e <__aeabi_ddiv+0x1da>
 8001d70:	42a2      	cmp	r2, r4
 8001d72:	d800      	bhi.n	8001d76 <__aeabi_ddiv+0x532>
 8001d74:	e61a      	b.n	80019ac <__aeabi_ddiv+0x168>
 8001d76:	1e83      	subs	r3, r0, #2
 8001d78:	4464      	add	r4, ip
 8001d7a:	e617      	b.n	80019ac <__aeabi_ddiv+0x168>
 8001d7c:	428a      	cmp	r2, r1
 8001d7e:	d800      	bhi.n	8001d82 <__aeabi_ddiv+0x53e>
 8001d80:	e600      	b.n	8001984 <__aeabi_ddiv+0x140>
 8001d82:	46ac      	mov	ip, r5
 8001d84:	1e83      	subs	r3, r0, #2
 8001d86:	4698      	mov	r8, r3
 8001d88:	4461      	add	r1, ip
 8001d8a:	e5fb      	b.n	8001984 <__aeabi_ddiv+0x140>
 8001d8c:	4837      	ldr	r0, [pc, #220]	@ (8001e6c <__aeabi_ddiv+0x628>)
 8001d8e:	0014      	movs	r4, r2
 8001d90:	4450      	add	r0, sl
 8001d92:	4082      	lsls	r2, r0
 8001d94:	465b      	mov	r3, fp
 8001d96:	0017      	movs	r7, r2
 8001d98:	4083      	lsls	r3, r0
 8001d9a:	40cc      	lsrs	r4, r1
 8001d9c:	1e7a      	subs	r2, r7, #1
 8001d9e:	4197      	sbcs	r7, r2
 8001da0:	4323      	orrs	r3, r4
 8001da2:	433b      	orrs	r3, r7
 8001da4:	001a      	movs	r2, r3
 8001da6:	465b      	mov	r3, fp
 8001da8:	40cb      	lsrs	r3, r1
 8001daa:	0751      	lsls	r1, r2, #29
 8001dac:	d009      	beq.n	8001dc2 <__aeabi_ddiv+0x57e>
 8001dae:	210f      	movs	r1, #15
 8001db0:	4011      	ands	r1, r2
 8001db2:	2904      	cmp	r1, #4
 8001db4:	d005      	beq.n	8001dc2 <__aeabi_ddiv+0x57e>
 8001db6:	1d11      	adds	r1, r2, #4
 8001db8:	4291      	cmp	r1, r2
 8001dba:	4192      	sbcs	r2, r2
 8001dbc:	4252      	negs	r2, r2
 8001dbe:	189b      	adds	r3, r3, r2
 8001dc0:	000a      	movs	r2, r1
 8001dc2:	0219      	lsls	r1, r3, #8
 8001dc4:	d400      	bmi.n	8001dc8 <__aeabi_ddiv+0x584>
 8001dc6:	e755      	b.n	8001c74 <__aeabi_ddiv+0x430>
 8001dc8:	2200      	movs	r2, #0
 8001dca:	2301      	movs	r3, #1
 8001dcc:	2400      	movs	r4, #0
 8001dce:	4690      	mov	r8, r2
 8001dd0:	e598      	b.n	8001904 <__aeabi_ddiv+0xc0>
 8001dd2:	000a      	movs	r2, r1
 8001dd4:	42bc      	cmp	r4, r7
 8001dd6:	d000      	beq.n	8001dda <__aeabi_ddiv+0x596>
 8001dd8:	e66e      	b.n	8001ab8 <__aeabi_ddiv+0x274>
 8001dda:	454b      	cmp	r3, r9
 8001ddc:	d000      	beq.n	8001de0 <__aeabi_ddiv+0x59c>
 8001dde:	e66b      	b.n	8001ab8 <__aeabi_ddiv+0x274>
 8001de0:	e66c      	b.n	8001abc <__aeabi_ddiv+0x278>
 8001de2:	4b23      	ldr	r3, [pc, #140]	@ (8001e70 <__aeabi_ddiv+0x62c>)
 8001de4:	4a23      	ldr	r2, [pc, #140]	@ (8001e74 <__aeabi_ddiv+0x630>)
 8001de6:	4453      	add	r3, sl
 8001de8:	4592      	cmp	sl, r2
 8001dea:	da00      	bge.n	8001dee <__aeabi_ddiv+0x5aa>
 8001dec:	e718      	b.n	8001c20 <__aeabi_ddiv+0x3dc>
 8001dee:	2101      	movs	r1, #1
 8001df0:	4249      	negs	r1, r1
 8001df2:	1d0a      	adds	r2, r1, #4
 8001df4:	428a      	cmp	r2, r1
 8001df6:	4189      	sbcs	r1, r1
 8001df8:	4249      	negs	r1, r1
 8001dfa:	448b      	add	fp, r1
 8001dfc:	e666      	b.n	8001acc <__aeabi_ddiv+0x288>
 8001dfe:	210f      	movs	r1, #15
 8001e00:	4011      	ands	r1, r2
 8001e02:	2904      	cmp	r1, #4
 8001e04:	d100      	bne.n	8001e08 <__aeabi_ddiv+0x5c4>
 8001e06:	e661      	b.n	8001acc <__aeabi_ddiv+0x288>
 8001e08:	0011      	movs	r1, r2
 8001e0a:	e7f2      	b.n	8001df2 <__aeabi_ddiv+0x5ae>
 8001e0c:	42bc      	cmp	r4, r7
 8001e0e:	d800      	bhi.n	8001e12 <__aeabi_ddiv+0x5ce>
 8001e10:	e60a      	b.n	8001a28 <__aeabi_ddiv+0x1e4>
 8001e12:	2302      	movs	r3, #2
 8001e14:	425b      	negs	r3, r3
 8001e16:	469c      	mov	ip, r3
 8001e18:	9900      	ldr	r1, [sp, #0]
 8001e1a:	444f      	add	r7, r9
 8001e1c:	454f      	cmp	r7, r9
 8001e1e:	419b      	sbcs	r3, r3
 8001e20:	44e3      	add	fp, ip
 8001e22:	468c      	mov	ip, r1
 8001e24:	425b      	negs	r3, r3
 8001e26:	4463      	add	r3, ip
 8001e28:	18c0      	adds	r0, r0, r3
 8001e2a:	e5ff      	b.n	8001a2c <__aeabi_ddiv+0x1e8>
 8001e2c:	4649      	mov	r1, r9
 8001e2e:	9d00      	ldr	r5, [sp, #0]
 8001e30:	0048      	lsls	r0, r1, #1
 8001e32:	4548      	cmp	r0, r9
 8001e34:	4189      	sbcs	r1, r1
 8001e36:	46ac      	mov	ip, r5
 8001e38:	4249      	negs	r1, r1
 8001e3a:	4461      	add	r1, ip
 8001e3c:	4681      	mov	r9, r0
 8001e3e:	3a02      	subs	r2, #2
 8001e40:	1864      	adds	r4, r4, r1
 8001e42:	e7c7      	b.n	8001dd4 <__aeabi_ddiv+0x590>
 8001e44:	2480      	movs	r4, #128	@ 0x80
 8001e46:	465b      	mov	r3, fp
 8001e48:	0324      	lsls	r4, r4, #12
 8001e4a:	431c      	orrs	r4, r3
 8001e4c:	0324      	lsls	r4, r4, #12
 8001e4e:	4690      	mov	r8, r2
 8001e50:	4b04      	ldr	r3, [pc, #16]	@ (8001e64 <__aeabi_ddiv+0x620>)
 8001e52:	0b24      	lsrs	r4, r4, #12
 8001e54:	e556      	b.n	8001904 <__aeabi_ddiv+0xc0>
 8001e56:	4599      	cmp	r9, r3
 8001e58:	d3e8      	bcc.n	8001e2c <__aeabi_ddiv+0x5e8>
 8001e5a:	000a      	movs	r2, r1
 8001e5c:	e7bd      	b.n	8001dda <__aeabi_ddiv+0x596>
 8001e5e:	2300      	movs	r3, #0
 8001e60:	e708      	b.n	8001c74 <__aeabi_ddiv+0x430>
 8001e62:	46c0      	nop			@ (mov r8, r8)
 8001e64:	000007ff 	.word	0x000007ff
 8001e68:	0000043e 	.word	0x0000043e
 8001e6c:	0000041e 	.word	0x0000041e
 8001e70:	000003ff 	.word	0x000003ff
 8001e74:	fffffc02 	.word	0xfffffc02

08001e78 <__eqdf2>:
 8001e78:	b5f0      	push	{r4, r5, r6, r7, lr}
 8001e7a:	4657      	mov	r7, sl
 8001e7c:	46de      	mov	lr, fp
 8001e7e:	464e      	mov	r6, r9
 8001e80:	4645      	mov	r5, r8
 8001e82:	b5e0      	push	{r5, r6, r7, lr}
 8001e84:	000d      	movs	r5, r1
 8001e86:	0004      	movs	r4, r0
 8001e88:	0fe8      	lsrs	r0, r5, #31
 8001e8a:	4683      	mov	fp, r0
 8001e8c:	0309      	lsls	r1, r1, #12
 8001e8e:	0fd8      	lsrs	r0, r3, #31
 8001e90:	0b09      	lsrs	r1, r1, #12
 8001e92:	4682      	mov	sl, r0
 8001e94:	4819      	ldr	r0, [pc, #100]	@ (8001efc <__eqdf2+0x84>)
 8001e96:	468c      	mov	ip, r1
 8001e98:	031f      	lsls	r7, r3, #12
 8001e9a:	0069      	lsls	r1, r5, #1
 8001e9c:	005e      	lsls	r6, r3, #1
 8001e9e:	0d49      	lsrs	r1, r1, #21
 8001ea0:	0b3f      	lsrs	r7, r7, #12
 8001ea2:	0d76      	lsrs	r6, r6, #21
 8001ea4:	4281      	cmp	r1, r0
 8001ea6:	d018      	beq.n	8001eda <__eqdf2+0x62>
 8001ea8:	4286      	cmp	r6, r0
 8001eaa:	d00f      	beq.n	8001ecc <__eqdf2+0x54>
 8001eac:	2001      	movs	r0, #1
 8001eae:	42b1      	cmp	r1, r6
 8001eb0:	d10d      	bne.n	8001ece <__eqdf2+0x56>
 8001eb2:	45bc      	cmp	ip, r7
 8001eb4:	d10b      	bne.n	8001ece <__eqdf2+0x56>
 8001eb6:	4294      	cmp	r4, r2
 8001eb8:	d109      	bne.n	8001ece <__eqdf2+0x56>
 8001eba:	45d3      	cmp	fp, sl
 8001ebc:	d01c      	beq.n	8001ef8 <__eqdf2+0x80>
 8001ebe:	2900      	cmp	r1, #0
 8001ec0:	d105      	bne.n	8001ece <__eqdf2+0x56>
 8001ec2:	4660      	mov	r0, ip
 8001ec4:	4320      	orrs	r0, r4
 8001ec6:	1e43      	subs	r3, r0, #1
 8001ec8:	4198      	sbcs	r0, r3
 8001eca:	e000      	b.n	8001ece <__eqdf2+0x56>
 8001ecc:	2001      	movs	r0, #1
 8001ece:	bcf0      	pop	{r4, r5, r6, r7}
 8001ed0:	46bb      	mov	fp, r7
 8001ed2:	46b2      	mov	sl, r6
 8001ed4:	46a9      	mov	r9, r5
 8001ed6:	46a0      	mov	r8, r4
 8001ed8:	bdf0      	pop	{r4, r5, r6, r7, pc}
 8001eda:	2001      	movs	r0, #1
 8001edc:	428e      	cmp	r6, r1
 8001ede:	d1f6      	bne.n	8001ece <__eqdf2+0x56>
 8001ee0:	4661      	mov	r1, ip
 8001ee2:	4339      	orrs	r1, r7
 8001ee4:	000f      	movs	r7, r1
 8001ee6:	4317      	orrs	r7, r2
 8001ee8:	4327      	orrs	r7, r4
 8001eea:	d1f0      	bne.n	8001ece <__eqdf2+0x56>
 8001eec:	465b      	mov	r3, fp
 8001eee:	4652      	mov	r2, sl
 8001ef0:	1a98      	subs	r0, r3, r2
 8001ef2:	1e43      	subs	r3, r0, #1
 8001ef4:	4198      	sbcs	r0, r3
 8001ef6:	e7ea      	b.n	8001ece <__eqdf2+0x56>
 8001ef8:	2000      	movs	r0, #0
 8001efa:	e7e8      	b.n	8001ece <__eqdf2+0x56>
 8001efc:	000007ff 	.word	0x000007ff

08001f00 <__gedf2>:
 8001f00:	b5f0      	push	{r4, r5, r6, r7, lr}
 8001f02:	4657      	mov	r7, sl
 8001f04:	464e      	mov	r6, r9
 8001f06:	4645      	mov	r5, r8
 8001f08:	46de      	mov	lr, fp
 8001f0a:	b5e0      	push	{r5, r6, r7, lr}
 8001f0c:	000d      	movs	r5, r1
 8001f0e:	030f      	lsls	r7, r1, #12
 8001f10:	0b39      	lsrs	r1, r7, #12
 8001f12:	b083      	sub	sp, #12
 8001f14:	0004      	movs	r4, r0
 8001f16:	4680      	mov	r8, r0
 8001f18:	9101      	str	r1, [sp, #4]
 8001f1a:	0058      	lsls	r0, r3, #1
 8001f1c:	0fe9      	lsrs	r1, r5, #31
 8001f1e:	4f31      	ldr	r7, [pc, #196]	@ (8001fe4 <__gedf2+0xe4>)
 8001f20:	0d40      	lsrs	r0, r0, #21
 8001f22:	468c      	mov	ip, r1
 8001f24:	006e      	lsls	r6, r5, #1
 8001f26:	0319      	lsls	r1, r3, #12
 8001f28:	4682      	mov	sl, r0
 8001f2a:	4691      	mov	r9, r2
 8001f2c:	0d76      	lsrs	r6, r6, #21
 8001f2e:	0b09      	lsrs	r1, r1, #12
 8001f30:	0fd8      	lsrs	r0, r3, #31
 8001f32:	42be      	cmp	r6, r7
 8001f34:	d01f      	beq.n	8001f76 <__gedf2+0x76>
 8001f36:	45ba      	cmp	sl, r7
 8001f38:	d00f      	beq.n	8001f5a <__gedf2+0x5a>
 8001f3a:	2e00      	cmp	r6, #0
 8001f3c:	d12f      	bne.n	8001f9e <__gedf2+0x9e>
 8001f3e:	4655      	mov	r5, sl
 8001f40:	9e01      	ldr	r6, [sp, #4]
 8001f42:	4334      	orrs	r4, r6
 8001f44:	2d00      	cmp	r5, #0
 8001f46:	d127      	bne.n	8001f98 <__gedf2+0x98>
 8001f48:	430a      	orrs	r2, r1
 8001f4a:	d03a      	beq.n	8001fc2 <__gedf2+0xc2>
 8001f4c:	2c00      	cmp	r4, #0
 8001f4e:	d145      	bne.n	8001fdc <__gedf2+0xdc>
 8001f50:	2800      	cmp	r0, #0
 8001f52:	d11a      	bne.n	8001f8a <__gedf2+0x8a>
 8001f54:	2001      	movs	r0, #1
 8001f56:	4240      	negs	r0, r0
 8001f58:	e017      	b.n	8001f8a <__gedf2+0x8a>
 8001f5a:	4311      	orrs	r1, r2
 8001f5c:	d13b      	bne.n	8001fd6 <__gedf2+0xd6>
 8001f5e:	2e00      	cmp	r6, #0
 8001f60:	d102      	bne.n	8001f68 <__gedf2+0x68>
 8001f62:	9f01      	ldr	r7, [sp, #4]
 8001f64:	4327      	orrs	r7, r4
 8001f66:	d0f3      	beq.n	8001f50 <__gedf2+0x50>
 8001f68:	4584      	cmp	ip, r0
 8001f6a:	d109      	bne.n	8001f80 <__gedf2+0x80>
 8001f6c:	4663      	mov	r3, ip
 8001f6e:	2b00      	cmp	r3, #0
 8001f70:	d0f0      	beq.n	8001f54 <__gedf2+0x54>
 8001f72:	4660      	mov	r0, ip
 8001f74:	e009      	b.n	8001f8a <__gedf2+0x8a>
 8001f76:	9f01      	ldr	r7, [sp, #4]
 8001f78:	4327      	orrs	r7, r4
 8001f7a:	d12c      	bne.n	8001fd6 <__gedf2+0xd6>
 8001f7c:	45b2      	cmp	sl, r6
 8001f7e:	d024      	beq.n	8001fca <__gedf2+0xca>
 8001f80:	4663      	mov	r3, ip
 8001f82:	2002      	movs	r0, #2
 8001f84:	3b01      	subs	r3, #1
 8001f86:	4018      	ands	r0, r3
 8001f88:	3801      	subs	r0, #1
 8001f8a:	b003      	add	sp, #12
 8001f8c:	bcf0      	pop	{r4, r5, r6, r7}
 8001f8e:	46bb      	mov	fp, r7
 8001f90:	46b2      	mov	sl, r6
 8001f92:	46a9      	mov	r9, r5
 8001f94:	46a0      	mov	r8, r4
 8001f96:	bdf0      	pop	{r4, r5, r6, r7, pc}
 8001f98:	2c00      	cmp	r4, #0
 8001f9a:	d0d9      	beq.n	8001f50 <__gedf2+0x50>
 8001f9c:	e7e4      	b.n	8001f68 <__gedf2+0x68>
 8001f9e:	4654      	mov	r4, sl
 8001fa0:	2c00      	cmp	r4, #0
 8001fa2:	d0ed      	beq.n	8001f80 <__gedf2+0x80>
 8001fa4:	4584      	cmp	ip, r0
 8001fa6:	d1eb      	bne.n	8001f80 <__gedf2+0x80>
 8001fa8:	4556      	cmp	r6, sl
 8001faa:	dce9      	bgt.n	8001f80 <__gedf2+0x80>
 8001fac:	dbde      	blt.n	8001f6c <__gedf2+0x6c>
 8001fae:	9b01      	ldr	r3, [sp, #4]
 8001fb0:	428b      	cmp	r3, r1
 8001fb2:	d8e5      	bhi.n	8001f80 <__gedf2+0x80>
 8001fb4:	d1da      	bne.n	8001f6c <__gedf2+0x6c>
 8001fb6:	45c8      	cmp	r8, r9
 8001fb8:	d8e2      	bhi.n	8001f80 <__gedf2+0x80>
 8001fba:	2000      	movs	r0, #0
 8001fbc:	45c8      	cmp	r8, r9
 8001fbe:	d2e4      	bcs.n	8001f8a <__gedf2+0x8a>
 8001fc0:	e7d4      	b.n	8001f6c <__gedf2+0x6c>
 8001fc2:	2000      	movs	r0, #0
 8001fc4:	2c00      	cmp	r4, #0
 8001fc6:	d0e0      	beq.n	8001f8a <__gedf2+0x8a>
 8001fc8:	e7da      	b.n	8001f80 <__gedf2+0x80>
 8001fca:	4311      	orrs	r1, r2
 8001fcc:	d103      	bne.n	8001fd6 <__gedf2+0xd6>
 8001fce:	4584      	cmp	ip, r0
 8001fd0:	d1d6      	bne.n	8001f80 <__gedf2+0x80>
 8001fd2:	2000      	movs	r0, #0
 8001fd4:	e7d9      	b.n	8001f8a <__gedf2+0x8a>
 8001fd6:	2002      	movs	r0, #2
 8001fd8:	4240      	negs	r0, r0
 8001fda:	e7d6      	b.n	8001f8a <__gedf2+0x8a>
 8001fdc:	4584      	cmp	ip, r0
 8001fde:	d0e6      	beq.n	8001fae <__gedf2+0xae>
 8001fe0:	e7ce      	b.n	8001f80 <__gedf2+0x80>
 8001fe2:	46c0      	nop			@ (mov r8, r8)
 8001fe4:	000007ff 	.word	0x000007ff

08001fe8 <__ledf2>:
 8001fe8:	b5f0      	push	{r4, r5, r6, r7, lr}
 8001fea:	4657      	mov	r7, sl
 8001fec:	464e      	mov	r6, r9
 8001fee:	4645      	mov	r5, r8
 8001ff0:	46de      	mov	lr, fp
 8001ff2:	b5e0      	push	{r5, r6, r7, lr}
 8001ff4:	000d      	movs	r5, r1
 8001ff6:	030f      	lsls	r7, r1, #12
 8001ff8:	0004      	movs	r4, r0
 8001ffa:	4680      	mov	r8, r0
 8001ffc:	0fe8      	lsrs	r0, r5, #31
 8001ffe:	0b39      	lsrs	r1, r7, #12
 8002000:	4684      	mov	ip, r0
 8002002:	b083      	sub	sp, #12
 8002004:	0058      	lsls	r0, r3, #1
 8002006:	4f30      	ldr	r7, [pc, #192]	@ (80020c8 <__ledf2+0xe0>)
 8002008:	0d40      	lsrs	r0, r0, #21
 800200a:	9101      	str	r1, [sp, #4]
 800200c:	031e      	lsls	r6, r3, #12
 800200e:	0069      	lsls	r1, r5, #1
 8002010:	4682      	mov	sl, r0
 8002012:	4691      	mov	r9, r2
 8002014:	0d49      	lsrs	r1, r1, #21
 8002016:	0b36      	lsrs	r6, r6, #12
 8002018:	0fd8      	lsrs	r0, r3, #31
 800201a:	42b9      	cmp	r1, r7
 800201c:	d020      	beq.n	8002060 <__ledf2+0x78>
 800201e:	45ba      	cmp	sl, r7
 8002020:	d00f      	beq.n	8002042 <__ledf2+0x5a>
 8002022:	2900      	cmp	r1, #0
 8002024:	d12b      	bne.n	800207e <__ledf2+0x96>
 8002026:	9901      	ldr	r1, [sp, #4]
 8002028:	430c      	orrs	r4, r1
 800202a:	4651      	mov	r1, sl
 800202c:	2900      	cmp	r1, #0
 800202e:	d137      	bne.n	80020a0 <__ledf2+0xb8>
 8002030:	4332      	orrs	r2, r6
 8002032:	d038      	beq.n	80020a6 <__ledf2+0xbe>
 8002034:	2c00      	cmp	r4, #0
 8002036:	d144      	bne.n	80020c2 <__ledf2+0xda>
 8002038:	2800      	cmp	r0, #0
 800203a:	d119      	bne.n	8002070 <__ledf2+0x88>
 800203c:	2001      	movs	r0, #1
 800203e:	4240      	negs	r0, r0
 8002040:	e016      	b.n	8002070 <__ledf2+0x88>
 8002042:	4316      	orrs	r6, r2
 8002044:	d113      	bne.n	800206e <__ledf2+0x86>
 8002046:	2900      	cmp	r1, #0
 8002048:	d102      	bne.n	8002050 <__ledf2+0x68>
 800204a:	9f01      	ldr	r7, [sp, #4]
 800204c:	4327      	orrs	r7, r4
 800204e:	d0f3      	beq.n	8002038 <__ledf2+0x50>
 8002050:	4584      	cmp	ip, r0
 8002052:	d020      	beq.n	8002096 <__ledf2+0xae>
 8002054:	4663      	mov	r3, ip
 8002056:	2002      	movs	r0, #2
 8002058:	3b01      	subs	r3, #1
 800205a:	4018      	ands	r0, r3
 800205c:	3801      	subs	r0, #1
 800205e:	e007      	b.n	8002070 <__ledf2+0x88>
 8002060:	9f01      	ldr	r7, [sp, #4]
 8002062:	4327      	orrs	r7, r4
 8002064:	d103      	bne.n	800206e <__ledf2+0x86>
 8002066:	458a      	cmp	sl, r1
 8002068:	d1f4      	bne.n	8002054 <__ledf2+0x6c>
 800206a:	4316      	orrs	r6, r2
 800206c:	d01f      	beq.n	80020ae <__ledf2+0xc6>
 800206e:	2002      	movs	r0, #2
 8002070:	b003      	add	sp, #12
 8002072:	bcf0      	pop	{r4, r5, r6, r7}
 8002074:	46bb      	mov	fp, r7
 8002076:	46b2      	mov	sl, r6
 8002078:	46a9      	mov	r9, r5
 800207a:	46a0      	mov	r8, r4
 800207c:	bdf0      	pop	{r4, r5, r6, r7, pc}
 800207e:	4654      	mov	r4, sl
 8002080:	2c00      	cmp	r4, #0
 8002082:	d0e7      	beq.n	8002054 <__ledf2+0x6c>
 8002084:	4584      	cmp	ip, r0
 8002086:	d1e5      	bne.n	8002054 <__ledf2+0x6c>
 8002088:	4551      	cmp	r1, sl
 800208a:	dce3      	bgt.n	8002054 <__ledf2+0x6c>
 800208c:	db03      	blt.n	8002096 <__ledf2+0xae>
 800208e:	9b01      	ldr	r3, [sp, #4]
 8002090:	42b3      	cmp	r3, r6
 8002092:	d8df      	bhi.n	8002054 <__ledf2+0x6c>
 8002094:	d00f      	beq.n	80020b6 <__ledf2+0xce>
 8002096:	4663      	mov	r3, ip
 8002098:	2b00      	cmp	r3, #0
 800209a:	d0cf      	beq.n	800203c <__ledf2+0x54>
 800209c:	4660      	mov	r0, ip
 800209e:	e7e7      	b.n	8002070 <__ledf2+0x88>
 80020a0:	2c00      	cmp	r4, #0
 80020a2:	d0c9      	beq.n	8002038 <__ledf2+0x50>
 80020a4:	e7d4      	b.n	8002050 <__ledf2+0x68>
 80020a6:	2000      	movs	r0, #0
 80020a8:	2c00      	cmp	r4, #0
 80020aa:	d0e1      	beq.n	8002070 <__ledf2+0x88>
 80020ac:	e7d2      	b.n	8002054 <__ledf2+0x6c>
 80020ae:	4584      	cmp	ip, r0
 80020b0:	d1d0      	bne.n	8002054 <__ledf2+0x6c>
 80020b2:	2000      	movs	r0, #0
 80020b4:	e7dc      	b.n	8002070 <__ledf2+0x88>
 80020b6:	45c8      	cmp	r8, r9
 80020b8:	d8cc      	bhi.n	8002054 <__ledf2+0x6c>
 80020ba:	2000      	movs	r0, #0
 80020bc:	45c8      	cmp	r8, r9
 80020be:	d2d7      	bcs.n	8002070 <__ledf2+0x88>
 80020c0:	e7e9      	b.n	8002096 <__ledf2+0xae>
 80020c2:	4584      	cmp	ip, r0
 80020c4:	d0e3      	beq.n	800208e <__ledf2+0xa6>
 80020c6:	e7c5      	b.n	8002054 <__ledf2+0x6c>
 80020c8:	000007ff 	.word	0x000007ff

080020cc <__aeabi_dmul>:
 80020cc:	b5f0      	push	{r4, r5, r6, r7, lr}
 80020ce:	4657      	mov	r7, sl
 80020d0:	46de      	mov	lr, fp
 80020d2:	464e      	mov	r6, r9
 80020d4:	4645      	mov	r5, r8
 80020d6:	b5e0      	push	{r5, r6, r7, lr}
 80020d8:	001f      	movs	r7, r3
 80020da:	030b      	lsls	r3, r1, #12
 80020dc:	0b1b      	lsrs	r3, r3, #12
 80020de:	0016      	movs	r6, r2
 80020e0:	469a      	mov	sl, r3
 80020e2:	0fca      	lsrs	r2, r1, #31
 80020e4:	004b      	lsls	r3, r1, #1
 80020e6:	0004      	movs	r4, r0
 80020e8:	4693      	mov	fp, r2
 80020ea:	b087      	sub	sp, #28
 80020ec:	0d5b      	lsrs	r3, r3, #21
 80020ee:	d100      	bne.n	80020f2 <__aeabi_dmul+0x26>
 80020f0:	e0d5      	b.n	800229e <__aeabi_dmul+0x1d2>
 80020f2:	4abb      	ldr	r2, [pc, #748]	@ (80023e0 <__aeabi_dmul+0x314>)
 80020f4:	4293      	cmp	r3, r2
 80020f6:	d100      	bne.n	80020fa <__aeabi_dmul+0x2e>
 80020f8:	e0f8      	b.n	80022ec <__aeabi_dmul+0x220>
 80020fa:	4651      	mov	r1, sl
 80020fc:	0f42      	lsrs	r2, r0, #29
 80020fe:	00c9      	lsls	r1, r1, #3
 8002100:	430a      	orrs	r2, r1
 8002102:	2180      	movs	r1, #128	@ 0x80
 8002104:	0409      	lsls	r1, r1, #16
 8002106:	4311      	orrs	r1, r2
 8002108:	00c2      	lsls	r2, r0, #3
 800210a:	4691      	mov	r9, r2
 800210c:	4ab5      	ldr	r2, [pc, #724]	@ (80023e4 <__aeabi_dmul+0x318>)
 800210e:	468a      	mov	sl, r1
 8002110:	189d      	adds	r5, r3, r2
 8002112:	2300      	movs	r3, #0
 8002114:	4698      	mov	r8, r3
 8002116:	9302      	str	r3, [sp, #8]
 8002118:	033c      	lsls	r4, r7, #12
 800211a:	007b      	lsls	r3, r7, #1
 800211c:	0ffa      	lsrs	r2, r7, #31
 800211e:	0030      	movs	r0, r6
 8002120:	0b24      	lsrs	r4, r4, #12
 8002122:	0d5b      	lsrs	r3, r3, #21
 8002124:	9200      	str	r2, [sp, #0]
 8002126:	d100      	bne.n	800212a <__aeabi_dmul+0x5e>
 8002128:	e096      	b.n	8002258 <__aeabi_dmul+0x18c>
 800212a:	4aad      	ldr	r2, [pc, #692]	@ (80023e0 <__aeabi_dmul+0x314>)
 800212c:	4293      	cmp	r3, r2
 800212e:	d031      	beq.n	8002194 <__aeabi_dmul+0xc8>
 8002130:	0f72      	lsrs	r2, r6, #29
 8002132:	00e4      	lsls	r4, r4, #3
 8002134:	4322      	orrs	r2, r4
 8002136:	2480      	movs	r4, #128	@ 0x80
 8002138:	0424      	lsls	r4, r4, #16
 800213a:	4314      	orrs	r4, r2
 800213c:	4aa9      	ldr	r2, [pc, #676]	@ (80023e4 <__aeabi_dmul+0x318>)
 800213e:	00f0      	lsls	r0, r6, #3
 8002140:	4694      	mov	ip, r2
 8002142:	4463      	add	r3, ip
 8002144:	195b      	adds	r3, r3, r5
 8002146:	1c5a      	adds	r2, r3, #1
 8002148:	9201      	str	r2, [sp, #4]
 800214a:	4642      	mov	r2, r8
 800214c:	2600      	movs	r6, #0
 800214e:	2a0a      	cmp	r2, #10
 8002150:	dc42      	bgt.n	80021d8 <__aeabi_dmul+0x10c>
 8002152:	465a      	mov	r2, fp
 8002154:	9900      	ldr	r1, [sp, #0]
 8002156:	404a      	eors	r2, r1
 8002158:	4693      	mov	fp, r2
 800215a:	4642      	mov	r2, r8
 800215c:	2a02      	cmp	r2, #2
 800215e:	dc32      	bgt.n	80021c6 <__aeabi_dmul+0xfa>
 8002160:	3a01      	subs	r2, #1
 8002162:	2a01      	cmp	r2, #1
 8002164:	d900      	bls.n	8002168 <__aeabi_dmul+0x9c>
 8002166:	e149      	b.n	80023fc <__aeabi_dmul+0x330>
 8002168:	2e02      	cmp	r6, #2
 800216a:	d100      	bne.n	800216e <__aeabi_dmul+0xa2>
 800216c:	e0ca      	b.n	8002304 <__aeabi_dmul+0x238>
 800216e:	2e01      	cmp	r6, #1
 8002170:	d13d      	bne.n	80021ee <__aeabi_dmul+0x122>
 8002172:	2300      	movs	r3, #0
 8002174:	2400      	movs	r4, #0
 8002176:	2200      	movs	r2, #0
 8002178:	0010      	movs	r0, r2
 800217a:	465a      	mov	r2, fp
 800217c:	051b      	lsls	r3, r3, #20
 800217e:	4323      	orrs	r3, r4
 8002180:	07d2      	lsls	r2, r2, #31
 8002182:	4313      	orrs	r3, r2
 8002184:	0019      	movs	r1, r3
 8002186:	b007      	add	sp, #28
 8002188:	bcf0      	pop	{r4, r5, r6, r7}
 800218a:	46bb      	mov	fp, r7
 800218c:	46b2      	mov	sl, r6
 800218e:	46a9      	mov	r9, r5
 8002190:	46a0      	mov	r8, r4
 8002192:	bdf0      	pop	{r4, r5, r6, r7, pc}
 8002194:	4b92      	ldr	r3, [pc, #584]	@ (80023e0 <__aeabi_dmul+0x314>)
 8002196:	4326      	orrs	r6, r4
 8002198:	18eb      	adds	r3, r5, r3
 800219a:	2e00      	cmp	r6, #0
 800219c:	d100      	bne.n	80021a0 <__aeabi_dmul+0xd4>
 800219e:	e0bb      	b.n	8002318 <__aeabi_dmul+0x24c>
 80021a0:	2203      	movs	r2, #3
 80021a2:	4641      	mov	r1, r8
 80021a4:	4311      	orrs	r1, r2
 80021a6:	465a      	mov	r2, fp
 80021a8:	4688      	mov	r8, r1
 80021aa:	9900      	ldr	r1, [sp, #0]
 80021ac:	404a      	eors	r2, r1
 80021ae:	2180      	movs	r1, #128	@ 0x80
 80021b0:	0109      	lsls	r1, r1, #4
 80021b2:	468c      	mov	ip, r1
 80021b4:	0029      	movs	r1, r5
 80021b6:	4461      	add	r1, ip
 80021b8:	9101      	str	r1, [sp, #4]
 80021ba:	4641      	mov	r1, r8
 80021bc:	290a      	cmp	r1, #10
 80021be:	dd00      	ble.n	80021c2 <__aeabi_dmul+0xf6>
 80021c0:	e233      	b.n	800262a <__aeabi_dmul+0x55e>
 80021c2:	4693      	mov	fp, r2
 80021c4:	2603      	movs	r6, #3
 80021c6:	4642      	mov	r2, r8
 80021c8:	2701      	movs	r7, #1
 80021ca:	4097      	lsls	r7, r2
 80021cc:	21a6      	movs	r1, #166	@ 0xa6
 80021ce:	003a      	movs	r2, r7
 80021d0:	00c9      	lsls	r1, r1, #3
 80021d2:	400a      	ands	r2, r1
 80021d4:	420f      	tst	r7, r1
 80021d6:	d031      	beq.n	800223c <__aeabi_dmul+0x170>
 80021d8:	9e02      	ldr	r6, [sp, #8]
 80021da:	2e02      	cmp	r6, #2
 80021dc:	d100      	bne.n	80021e0 <__aeabi_dmul+0x114>
 80021de:	e235      	b.n	800264c <__aeabi_dmul+0x580>
 80021e0:	2e03      	cmp	r6, #3
 80021e2:	d100      	bne.n	80021e6 <__aeabi_dmul+0x11a>
 80021e4:	e1d2      	b.n	800258c <__aeabi_dmul+0x4c0>
 80021e6:	4654      	mov	r4, sl
 80021e8:	4648      	mov	r0, r9
 80021ea:	2e01      	cmp	r6, #1
 80021ec:	d0c1      	beq.n	8002172 <__aeabi_dmul+0xa6>
 80021ee:	9a01      	ldr	r2, [sp, #4]
 80021f0:	4b7d      	ldr	r3, [pc, #500]	@ (80023e8 <__aeabi_dmul+0x31c>)
 80021f2:	4694      	mov	ip, r2
 80021f4:	4463      	add	r3, ip
 80021f6:	2b00      	cmp	r3, #0
 80021f8:	dc00      	bgt.n	80021fc <__aeabi_dmul+0x130>
 80021fa:	e0c0      	b.n	800237e <__aeabi_dmul+0x2b2>
 80021fc:	0742      	lsls	r2, r0, #29
 80021fe:	d009      	beq.n	8002214 <__aeabi_dmul+0x148>
 8002200:	220f      	movs	r2, #15
 8002202:	4002      	ands	r2, r0
 8002204:	2a04      	cmp	r2, #4
 8002206:	d005      	beq.n	8002214 <__aeabi_dmul+0x148>
 8002208:	1d02      	adds	r2, r0, #4
 800220a:	4282      	cmp	r2, r0
 800220c:	4180      	sbcs	r0, r0
 800220e:	4240      	negs	r0, r0
 8002210:	1824      	adds	r4, r4, r0
 8002212:	0010      	movs	r0, r2
 8002214:	01e2      	lsls	r2, r4, #7
 8002216:	d506      	bpl.n	8002226 <__aeabi_dmul+0x15a>
 8002218:	4b74      	ldr	r3, [pc, #464]	@ (80023ec <__aeabi_dmul+0x320>)
 800221a:	9a01      	ldr	r2, [sp, #4]
 800221c:	401c      	ands	r4, r3
 800221e:	2380      	movs	r3, #128	@ 0x80
 8002220:	4694      	mov	ip, r2
 8002222:	00db      	lsls	r3, r3, #3
 8002224:	4463      	add	r3, ip
 8002226:	4a72      	ldr	r2, [pc, #456]	@ (80023f0 <__aeabi_dmul+0x324>)
 8002228:	4293      	cmp	r3, r2
 800222a:	dc6b      	bgt.n	8002304 <__aeabi_dmul+0x238>
 800222c:	0762      	lsls	r2, r4, #29
 800222e:	08c0      	lsrs	r0, r0, #3
 8002230:	0264      	lsls	r4, r4, #9
 8002232:	055b      	lsls	r3, r3, #21
 8002234:	4302      	orrs	r2, r0
 8002236:	0b24      	lsrs	r4, r4, #12
 8002238:	0d5b      	lsrs	r3, r3, #21
 800223a:	e79d      	b.n	8002178 <__aeabi_dmul+0xac>
 800223c:	2190      	movs	r1, #144	@ 0x90
 800223e:	0089      	lsls	r1, r1, #2
 8002240:	420f      	tst	r7, r1
 8002242:	d163      	bne.n	800230c <__aeabi_dmul+0x240>
 8002244:	2288      	movs	r2, #136	@ 0x88
 8002246:	423a      	tst	r2, r7
 8002248:	d100      	bne.n	800224c <__aeabi_dmul+0x180>
 800224a:	e0d7      	b.n	80023fc <__aeabi_dmul+0x330>
 800224c:	9b00      	ldr	r3, [sp, #0]
 800224e:	46a2      	mov	sl, r4
 8002250:	469b      	mov	fp, r3
 8002252:	4681      	mov	r9, r0
 8002254:	9602      	str	r6, [sp, #8]
 8002256:	e7bf      	b.n	80021d8 <__aeabi_dmul+0x10c>
 8002258:	0023      	movs	r3, r4
 800225a:	4333      	orrs	r3, r6
 800225c:	d100      	bne.n	8002260 <__aeabi_dmul+0x194>
 800225e:	e07f      	b.n	8002360 <__aeabi_dmul+0x294>
 8002260:	2c00      	cmp	r4, #0
 8002262:	d100      	bne.n	8002266 <__aeabi_dmul+0x19a>
 8002264:	e1ad      	b.n	80025c2 <__aeabi_dmul+0x4f6>
 8002266:	0020      	movs	r0, r4
 8002268:	f000 feec 	bl	8003044 <__clzsi2>
 800226c:	0002      	movs	r2, r0
 800226e:	0003      	movs	r3, r0
 8002270:	3a0b      	subs	r2, #11
 8002272:	201d      	movs	r0, #29
 8002274:	0019      	movs	r1, r3
 8002276:	1a82      	subs	r2, r0, r2
 8002278:	0030      	movs	r0, r6
 800227a:	3908      	subs	r1, #8
 800227c:	40d0      	lsrs	r0, r2
 800227e:	408c      	lsls	r4, r1
 8002280:	4304      	orrs	r4, r0
 8002282:	0030      	movs	r0, r6
 8002284:	4088      	lsls	r0, r1
 8002286:	4a5b      	ldr	r2, [pc, #364]	@ (80023f4 <__aeabi_dmul+0x328>)
 8002288:	1aeb      	subs	r3, r5, r3
 800228a:	4694      	mov	ip, r2
 800228c:	4463      	add	r3, ip
 800228e:	1c5a      	adds	r2, r3, #1
 8002290:	9201      	str	r2, [sp, #4]
 8002292:	4642      	mov	r2, r8
 8002294:	2600      	movs	r6, #0
 8002296:	2a0a      	cmp	r2, #10
 8002298:	dc00      	bgt.n	800229c <__aeabi_dmul+0x1d0>
 800229a:	e75a      	b.n	8002152 <__aeabi_dmul+0x86>
 800229c:	e79c      	b.n	80021d8 <__aeabi_dmul+0x10c>
 800229e:	4653      	mov	r3, sl
 80022a0:	4303      	orrs	r3, r0
 80022a2:	4699      	mov	r9, r3
 80022a4:	d054      	beq.n	8002350 <__aeabi_dmul+0x284>
 80022a6:	4653      	mov	r3, sl
 80022a8:	2b00      	cmp	r3, #0
 80022aa:	d100      	bne.n	80022ae <__aeabi_dmul+0x1e2>
 80022ac:	e177      	b.n	800259e <__aeabi_dmul+0x4d2>
 80022ae:	4650      	mov	r0, sl
 80022b0:	f000 fec8 	bl	8003044 <__clzsi2>
 80022b4:	230b      	movs	r3, #11
 80022b6:	425b      	negs	r3, r3
 80022b8:	469c      	mov	ip, r3
 80022ba:	0002      	movs	r2, r0
 80022bc:	4484      	add	ip, r0
 80022be:	0011      	movs	r1, r2
 80022c0:	4650      	mov	r0, sl
 80022c2:	3908      	subs	r1, #8
 80022c4:	4088      	lsls	r0, r1
 80022c6:	231d      	movs	r3, #29
 80022c8:	4680      	mov	r8, r0
 80022ca:	4660      	mov	r0, ip
 80022cc:	1a1b      	subs	r3, r3, r0
 80022ce:	0020      	movs	r0, r4
 80022d0:	40d8      	lsrs	r0, r3
 80022d2:	0003      	movs	r3, r0
 80022d4:	4640      	mov	r0, r8
 80022d6:	4303      	orrs	r3, r0
 80022d8:	469a      	mov	sl, r3
 80022da:	0023      	movs	r3, r4
 80022dc:	408b      	lsls	r3, r1
 80022de:	4699      	mov	r9, r3
 80022e0:	2300      	movs	r3, #0
 80022e2:	4d44      	ldr	r5, [pc, #272]	@ (80023f4 <__aeabi_dmul+0x328>)
 80022e4:	4698      	mov	r8, r3
 80022e6:	1aad      	subs	r5, r5, r2
 80022e8:	9302      	str	r3, [sp, #8]
 80022ea:	e715      	b.n	8002118 <__aeabi_dmul+0x4c>
 80022ec:	4652      	mov	r2, sl
 80022ee:	4302      	orrs	r2, r0
 80022f0:	4691      	mov	r9, r2
 80022f2:	d126      	bne.n	8002342 <__aeabi_dmul+0x276>
 80022f4:	2200      	movs	r2, #0
 80022f6:	001d      	movs	r5, r3
 80022f8:	2302      	movs	r3, #2
 80022fa:	4692      	mov	sl, r2
 80022fc:	3208      	adds	r2, #8
 80022fe:	4690      	mov	r8, r2
 8002300:	9302      	str	r3, [sp, #8]
 8002302:	e709      	b.n	8002118 <__aeabi_dmul+0x4c>
 8002304:	2400      	movs	r4, #0
 8002306:	2200      	movs	r2, #0
 8002308:	4b35      	ldr	r3, [pc, #212]	@ (80023e0 <__aeabi_dmul+0x314>)
 800230a:	e735      	b.n	8002178 <__aeabi_dmul+0xac>
 800230c:	2300      	movs	r3, #0
 800230e:	2480      	movs	r4, #128	@ 0x80
 8002310:	469b      	mov	fp, r3
 8002312:	0324      	lsls	r4, r4, #12
 8002314:	4b32      	ldr	r3, [pc, #200]	@ (80023e0 <__aeabi_dmul+0x314>)
 8002316:	e72f      	b.n	8002178 <__aeabi_dmul+0xac>
 8002318:	2202      	movs	r2, #2
 800231a:	4641      	mov	r1, r8
 800231c:	4311      	orrs	r1, r2
 800231e:	2280      	movs	r2, #128	@ 0x80
 8002320:	0112      	lsls	r2, r2, #4
 8002322:	4694      	mov	ip, r2
 8002324:	002a      	movs	r2, r5
 8002326:	4462      	add	r2, ip
 8002328:	4688      	mov	r8, r1
 800232a:	9201      	str	r2, [sp, #4]
 800232c:	290a      	cmp	r1, #10
 800232e:	dd00      	ble.n	8002332 <__aeabi_dmul+0x266>
 8002330:	e752      	b.n	80021d8 <__aeabi_dmul+0x10c>
 8002332:	465a      	mov	r2, fp
 8002334:	2000      	movs	r0, #0
 8002336:	9900      	ldr	r1, [sp, #0]
 8002338:	0004      	movs	r4, r0
 800233a:	404a      	eors	r2, r1
 800233c:	4693      	mov	fp, r2
 800233e:	2602      	movs	r6, #2
 8002340:	e70b      	b.n	800215a <__aeabi_dmul+0x8e>
 8002342:	220c      	movs	r2, #12
 8002344:	001d      	movs	r5, r3
 8002346:	2303      	movs	r3, #3
 8002348:	4681      	mov	r9, r0
 800234a:	4690      	mov	r8, r2
 800234c:	9302      	str	r3, [sp, #8]
 800234e:	e6e3      	b.n	8002118 <__aeabi_dmul+0x4c>
 8002350:	2300      	movs	r3, #0
 8002352:	469a      	mov	sl, r3
 8002354:	3304      	adds	r3, #4
 8002356:	4698      	mov	r8, r3
 8002358:	3b03      	subs	r3, #3
 800235a:	2500      	movs	r5, #0
 800235c:	9302      	str	r3, [sp, #8]
 800235e:	e6db      	b.n	8002118 <__aeabi_dmul+0x4c>
 8002360:	4642      	mov	r2, r8
 8002362:	3301      	adds	r3, #1
 8002364:	431a      	orrs	r2, r3
 8002366:	002b      	movs	r3, r5
 8002368:	4690      	mov	r8, r2
 800236a:	1c5a      	adds	r2, r3, #1
 800236c:	9201      	str	r2, [sp, #4]
 800236e:	4642      	mov	r2, r8
 8002370:	2400      	movs	r4, #0
 8002372:	2000      	movs	r0, #0
 8002374:	2601      	movs	r6, #1
 8002376:	2a0a      	cmp	r2, #10
 8002378:	dc00      	bgt.n	800237c <__aeabi_dmul+0x2b0>
 800237a:	e6ea      	b.n	8002152 <__aeabi_dmul+0x86>
 800237c:	e72c      	b.n	80021d8 <__aeabi_dmul+0x10c>
 800237e:	2201      	movs	r2, #1
 8002380:	1ad2      	subs	r2, r2, r3
 8002382:	2a38      	cmp	r2, #56	@ 0x38
 8002384:	dd00      	ble.n	8002388 <__aeabi_dmul+0x2bc>
 8002386:	e6f4      	b.n	8002172 <__aeabi_dmul+0xa6>
 8002388:	2a1f      	cmp	r2, #31
 800238a:	dc00      	bgt.n	800238e <__aeabi_dmul+0x2c2>
 800238c:	e12a      	b.n	80025e4 <__aeabi_dmul+0x518>
 800238e:	211f      	movs	r1, #31
 8002390:	4249      	negs	r1, r1
 8002392:	1acb      	subs	r3, r1, r3
 8002394:	0021      	movs	r1, r4
 8002396:	40d9      	lsrs	r1, r3
 8002398:	000b      	movs	r3, r1
 800239a:	2a20      	cmp	r2, #32
 800239c:	d005      	beq.n	80023aa <__aeabi_dmul+0x2de>
 800239e:	4a16      	ldr	r2, [pc, #88]	@ (80023f8 <__aeabi_dmul+0x32c>)
 80023a0:	9d01      	ldr	r5, [sp, #4]
 80023a2:	4694      	mov	ip, r2
 80023a4:	4465      	add	r5, ip
 80023a6:	40ac      	lsls	r4, r5
 80023a8:	4320      	orrs	r0, r4
 80023aa:	1e42      	subs	r2, r0, #1
 80023ac:	4190      	sbcs	r0, r2
 80023ae:	4318      	orrs	r0, r3
 80023b0:	2307      	movs	r3, #7
 80023b2:	0019      	movs	r1, r3
 80023b4:	2400      	movs	r4, #0
 80023b6:	4001      	ands	r1, r0
 80023b8:	4203      	tst	r3, r0
 80023ba:	d00c      	beq.n	80023d6 <__aeabi_dmul+0x30a>
 80023bc:	230f      	movs	r3, #15
 80023be:	4003      	ands	r3, r0
 80023c0:	2b04      	cmp	r3, #4
 80023c2:	d100      	bne.n	80023c6 <__aeabi_dmul+0x2fa>
 80023c4:	e140      	b.n	8002648 <__aeabi_dmul+0x57c>
 80023c6:	1d03      	adds	r3, r0, #4
 80023c8:	4283      	cmp	r3, r0
 80023ca:	41a4      	sbcs	r4, r4
 80023cc:	0018      	movs	r0, r3
 80023ce:	4264      	negs	r4, r4
 80023d0:	0761      	lsls	r1, r4, #29
 80023d2:	0264      	lsls	r4, r4, #9
 80023d4:	0b24      	lsrs	r4, r4, #12
 80023d6:	08c2      	lsrs	r2, r0, #3
 80023d8:	2300      	movs	r3, #0
 80023da:	430a      	orrs	r2, r1
 80023dc:	e6cc      	b.n	8002178 <__aeabi_dmul+0xac>
 80023de:	46c0      	nop			@ (mov r8, r8)
 80023e0:	000007ff 	.word	0x000007ff
 80023e4:	fffffc01 	.word	0xfffffc01
 80023e8:	000003ff 	.word	0x000003ff
 80023ec:	feffffff 	.word	0xfeffffff
 80023f0:	000007fe 	.word	0x000007fe
 80023f4:	fffffc0d 	.word	0xfffffc0d
 80023f8:	0000043e 	.word	0x0000043e
 80023fc:	4649      	mov	r1, r9
 80023fe:	464a      	mov	r2, r9
 8002400:	0409      	lsls	r1, r1, #16
 8002402:	0c09      	lsrs	r1, r1, #16
 8002404:	000d      	movs	r5, r1
 8002406:	0c16      	lsrs	r6, r2, #16
 8002408:	0c02      	lsrs	r2, r0, #16
 800240a:	0400      	lsls	r0, r0, #16
 800240c:	0c00      	lsrs	r0, r0, #16
 800240e:	4345      	muls	r5, r0
 8002410:	46ac      	mov	ip, r5
 8002412:	0005      	movs	r5, r0
 8002414:	4375      	muls	r5, r6
 8002416:	46a8      	mov	r8, r5
 8002418:	0015      	movs	r5, r2
 800241a:	000f      	movs	r7, r1
 800241c:	4375      	muls	r5, r6
 800241e:	9200      	str	r2, [sp, #0]
 8002420:	9502      	str	r5, [sp, #8]
 8002422:	002a      	movs	r2, r5
 8002424:	9d00      	ldr	r5, [sp, #0]
 8002426:	436f      	muls	r7, r5
 8002428:	4665      	mov	r5, ip
 800242a:	0c2d      	lsrs	r5, r5, #16
 800242c:	46a9      	mov	r9, r5
 800242e:	4447      	add	r7, r8
 8002430:	444f      	add	r7, r9
 8002432:	45b8      	cmp	r8, r7
 8002434:	d905      	bls.n	8002442 <__aeabi_dmul+0x376>
 8002436:	0015      	movs	r5, r2
 8002438:	2280      	movs	r2, #128	@ 0x80
 800243a:	0252      	lsls	r2, r2, #9
 800243c:	4690      	mov	r8, r2
 800243e:	4445      	add	r5, r8
 8002440:	9502      	str	r5, [sp, #8]
 8002442:	0c3d      	lsrs	r5, r7, #16
 8002444:	9503      	str	r5, [sp, #12]
 8002446:	4665      	mov	r5, ip
 8002448:	042d      	lsls	r5, r5, #16
 800244a:	043f      	lsls	r7, r7, #16
 800244c:	0c2d      	lsrs	r5, r5, #16
 800244e:	46ac      	mov	ip, r5
 8002450:	003d      	movs	r5, r7
 8002452:	4465      	add	r5, ip
 8002454:	9504      	str	r5, [sp, #16]
 8002456:	0c25      	lsrs	r5, r4, #16
 8002458:	0424      	lsls	r4, r4, #16
 800245a:	0c24      	lsrs	r4, r4, #16
 800245c:	46ac      	mov	ip, r5
 800245e:	0025      	movs	r5, r4
 8002460:	4375      	muls	r5, r6
 8002462:	46a8      	mov	r8, r5
 8002464:	4665      	mov	r5, ip
 8002466:	000f      	movs	r7, r1
 8002468:	4369      	muls	r1, r5
 800246a:	4441      	add	r1, r8
 800246c:	4689      	mov	r9, r1
 800246e:	4367      	muls	r7, r4
 8002470:	0c39      	lsrs	r1, r7, #16
 8002472:	4449      	add	r1, r9
 8002474:	436e      	muls	r6, r5
 8002476:	4588      	cmp	r8, r1
 8002478:	d903      	bls.n	8002482 <__aeabi_dmul+0x3b6>
 800247a:	2280      	movs	r2, #128	@ 0x80
 800247c:	0252      	lsls	r2, r2, #9
 800247e:	4690      	mov	r8, r2
 8002480:	4446      	add	r6, r8
 8002482:	0c0d      	lsrs	r5, r1, #16
 8002484:	46a8      	mov	r8, r5
 8002486:	0035      	movs	r5, r6
 8002488:	4445      	add	r5, r8
 800248a:	9505      	str	r5, [sp, #20]
 800248c:	9d03      	ldr	r5, [sp, #12]
 800248e:	043f      	lsls	r7, r7, #16
 8002490:	46a8      	mov	r8, r5
 8002492:	0c3f      	lsrs	r7, r7, #16
 8002494:	0409      	lsls	r1, r1, #16
 8002496:	19c9      	adds	r1, r1, r7
 8002498:	4488      	add	r8, r1
 800249a:	4645      	mov	r5, r8
 800249c:	9503      	str	r5, [sp, #12]
 800249e:	4655      	mov	r5, sl
 80024a0:	042e      	lsls	r6, r5, #16
 80024a2:	0c36      	lsrs	r6, r6, #16
 80024a4:	0c2f      	lsrs	r7, r5, #16
 80024a6:	0035      	movs	r5, r6
 80024a8:	4345      	muls	r5, r0
 80024aa:	4378      	muls	r0, r7
 80024ac:	4681      	mov	r9, r0
 80024ae:	0038      	movs	r0, r7
 80024b0:	46a8      	mov	r8, r5
 80024b2:	0c2d      	lsrs	r5, r5, #16
 80024b4:	46aa      	mov	sl, r5
 80024b6:	9a00      	ldr	r2, [sp, #0]
 80024b8:	4350      	muls	r0, r2
 80024ba:	4372      	muls	r2, r6
 80024bc:	444a      	add	r2, r9
 80024be:	4452      	add	r2, sl
 80024c0:	4591      	cmp	r9, r2
 80024c2:	d903      	bls.n	80024cc <__aeabi_dmul+0x400>
 80024c4:	2580      	movs	r5, #128	@ 0x80
 80024c6:	026d      	lsls	r5, r5, #9
 80024c8:	46a9      	mov	r9, r5
 80024ca:	4448      	add	r0, r9
 80024cc:	0c15      	lsrs	r5, r2, #16
 80024ce:	46a9      	mov	r9, r5
 80024d0:	4645      	mov	r5, r8
 80024d2:	042d      	lsls	r5, r5, #16
 80024d4:	0c2d      	lsrs	r5, r5, #16
 80024d6:	46a8      	mov	r8, r5
 80024d8:	4665      	mov	r5, ip
 80024da:	437d      	muls	r5, r7
 80024dc:	0412      	lsls	r2, r2, #16
 80024de:	4448      	add	r0, r9
 80024e0:	4490      	add	r8, r2
 80024e2:	46a9      	mov	r9, r5
 80024e4:	0032      	movs	r2, r6
 80024e6:	4665      	mov	r5, ip
 80024e8:	4362      	muls	r2, r4
 80024ea:	436e      	muls	r6, r5
 80024ec:	437c      	muls	r4, r7
 80024ee:	0c17      	lsrs	r7, r2, #16
 80024f0:	1936      	adds	r6, r6, r4
 80024f2:	19bf      	adds	r7, r7, r6
 80024f4:	42bc      	cmp	r4, r7
 80024f6:	d903      	bls.n	8002500 <__aeabi_dmul+0x434>
 80024f8:	2480      	movs	r4, #128	@ 0x80
 80024fa:	0264      	lsls	r4, r4, #9
 80024fc:	46a4      	mov	ip, r4
 80024fe:	44e1      	add	r9, ip
 8002500:	9c02      	ldr	r4, [sp, #8]
 8002502:	9e03      	ldr	r6, [sp, #12]
 8002504:	46a4      	mov	ip, r4
 8002506:	9d05      	ldr	r5, [sp, #20]
 8002508:	4466      	add	r6, ip
 800250a:	428e      	cmp	r6, r1
 800250c:	4189      	sbcs	r1, r1
 800250e:	46ac      	mov	ip, r5
 8002510:	0412      	lsls	r2, r2, #16
 8002512:	043c      	lsls	r4, r7, #16
 8002514:	0c12      	lsrs	r2, r2, #16
 8002516:	18a2      	adds	r2, r4, r2
 8002518:	4462      	add	r2, ip
 800251a:	4249      	negs	r1, r1
 800251c:	1854      	adds	r4, r2, r1
 800251e:	4446      	add	r6, r8
 8002520:	46a4      	mov	ip, r4
 8002522:	4546      	cmp	r6, r8
 8002524:	41a4      	sbcs	r4, r4
 8002526:	4682      	mov	sl, r0
 8002528:	4264      	negs	r4, r4
 800252a:	46a0      	mov	r8, r4
 800252c:	42aa      	cmp	r2, r5
 800252e:	4192      	sbcs	r2, r2
 8002530:	458c      	cmp	ip, r1
 8002532:	4189      	sbcs	r1, r1
 8002534:	44e2      	add	sl, ip
 8002536:	44d0      	add	r8, sl
 8002538:	4249      	negs	r1, r1
 800253a:	4252      	negs	r2, r2
 800253c:	430a      	orrs	r2, r1
 800253e:	45a0      	cmp	r8, r4
 8002540:	41a4      	sbcs	r4, r4
 8002542:	4582      	cmp	sl, r0
 8002544:	4189      	sbcs	r1, r1
 8002546:	4264      	negs	r4, r4
 8002548:	4249      	negs	r1, r1
 800254a:	430c      	orrs	r4, r1
 800254c:	4641      	mov	r1, r8
 800254e:	0c3f      	lsrs	r7, r7, #16
 8002550:	19d2      	adds	r2, r2, r7
 8002552:	1912      	adds	r2, r2, r4
 8002554:	0dcc      	lsrs	r4, r1, #23
 8002556:	9904      	ldr	r1, [sp, #16]
 8002558:	0270      	lsls	r0, r6, #9
 800255a:	4308      	orrs	r0, r1
 800255c:	1e41      	subs	r1, r0, #1
 800255e:	4188      	sbcs	r0, r1
 8002560:	4641      	mov	r1, r8
 8002562:	444a      	add	r2, r9
 8002564:	0df6      	lsrs	r6, r6, #23
 8002566:	0252      	lsls	r2, r2, #9
 8002568:	4330      	orrs	r0, r6
 800256a:	0249      	lsls	r1, r1, #9
 800256c:	4314      	orrs	r4, r2
 800256e:	4308      	orrs	r0, r1
 8002570:	01d2      	lsls	r2, r2, #7
 8002572:	d535      	bpl.n	80025e0 <__aeabi_dmul+0x514>
 8002574:	2201      	movs	r2, #1
 8002576:	0843      	lsrs	r3, r0, #1
 8002578:	4002      	ands	r2, r0
 800257a:	4313      	orrs	r3, r2
 800257c:	07e0      	lsls	r0, r4, #31
 800257e:	4318      	orrs	r0, r3
 8002580:	0864      	lsrs	r4, r4, #1
 8002582:	e634      	b.n	80021ee <__aeabi_dmul+0x122>
 8002584:	9b00      	ldr	r3, [sp, #0]
 8002586:	46a2      	mov	sl, r4
 8002588:	469b      	mov	fp, r3
 800258a:	4681      	mov	r9, r0
 800258c:	2480      	movs	r4, #128	@ 0x80
 800258e:	4653      	mov	r3, sl
 8002590:	0324      	lsls	r4, r4, #12
 8002592:	431c      	orrs	r4, r3
 8002594:	0324      	lsls	r4, r4, #12
 8002596:	464a      	mov	r2, r9
 8002598:	4b2e      	ldr	r3, [pc, #184]	@ (8002654 <__aeabi_dmul+0x588>)
 800259a:	0b24      	lsrs	r4, r4, #12
 800259c:	e5ec      	b.n	8002178 <__aeabi_dmul+0xac>
 800259e:	f000 fd51 	bl	8003044 <__clzsi2>
 80025a2:	2315      	movs	r3, #21
 80025a4:	469c      	mov	ip, r3
 80025a6:	4484      	add	ip, r0
 80025a8:	0002      	movs	r2, r0
 80025aa:	4663      	mov	r3, ip
 80025ac:	3220      	adds	r2, #32
 80025ae:	2b1c      	cmp	r3, #28
 80025b0:	dc00      	bgt.n	80025b4 <__aeabi_dmul+0x4e8>
 80025b2:	e684      	b.n	80022be <__aeabi_dmul+0x1f2>
 80025b4:	2300      	movs	r3, #0
 80025b6:	4699      	mov	r9, r3
 80025b8:	0023      	movs	r3, r4
 80025ba:	3808      	subs	r0, #8
 80025bc:	4083      	lsls	r3, r0
 80025be:	469a      	mov	sl, r3
 80025c0:	e68e      	b.n	80022e0 <__aeabi_dmul+0x214>
 80025c2:	f000 fd3f 	bl	8003044 <__clzsi2>
 80025c6:	0002      	movs	r2, r0
 80025c8:	0003      	movs	r3, r0
 80025ca:	3215      	adds	r2, #21
 80025cc:	3320      	adds	r3, #32
 80025ce:	2a1c      	cmp	r2, #28
 80025d0:	dc00      	bgt.n	80025d4 <__aeabi_dmul+0x508>
 80025d2:	e64e      	b.n	8002272 <__aeabi_dmul+0x1a6>
 80025d4:	0002      	movs	r2, r0
 80025d6:	0034      	movs	r4, r6
 80025d8:	3a08      	subs	r2, #8
 80025da:	2000      	movs	r0, #0
 80025dc:	4094      	lsls	r4, r2
 80025de:	e652      	b.n	8002286 <__aeabi_dmul+0x1ba>
 80025e0:	9301      	str	r3, [sp, #4]
 80025e2:	e604      	b.n	80021ee <__aeabi_dmul+0x122>
 80025e4:	4b1c      	ldr	r3, [pc, #112]	@ (8002658 <__aeabi_dmul+0x58c>)
 80025e6:	0021      	movs	r1, r4
 80025e8:	469c      	mov	ip, r3
 80025ea:	0003      	movs	r3, r0
 80025ec:	9d01      	ldr	r5, [sp, #4]
 80025ee:	40d3      	lsrs	r3, r2
 80025f0:	4465      	add	r5, ip
 80025f2:	40a9      	lsls	r1, r5
 80025f4:	4319      	orrs	r1, r3
 80025f6:	0003      	movs	r3, r0
 80025f8:	40ab      	lsls	r3, r5
 80025fa:	1e58      	subs	r0, r3, #1
 80025fc:	4183      	sbcs	r3, r0
 80025fe:	4319      	orrs	r1, r3
 8002600:	0008      	movs	r0, r1
 8002602:	40d4      	lsrs	r4, r2
 8002604:	074b      	lsls	r3, r1, #29
 8002606:	d009      	beq.n	800261c <__aeabi_dmul+0x550>
 8002608:	230f      	movs	r3, #15
 800260a:	400b      	ands	r3, r1
 800260c:	2b04      	cmp	r3, #4
 800260e:	d005      	beq.n	800261c <__aeabi_dmul+0x550>
 8002610:	1d0b      	adds	r3, r1, #4
 8002612:	428b      	cmp	r3, r1
 8002614:	4180      	sbcs	r0, r0
 8002616:	4240      	negs	r0, r0
 8002618:	1824      	adds	r4, r4, r0
 800261a:	0018      	movs	r0, r3
 800261c:	0223      	lsls	r3, r4, #8
 800261e:	d400      	bmi.n	8002622 <__aeabi_dmul+0x556>
 8002620:	e6d6      	b.n	80023d0 <__aeabi_dmul+0x304>
 8002622:	2301      	movs	r3, #1
 8002624:	2400      	movs	r4, #0
 8002626:	2200      	movs	r2, #0
 8002628:	e5a6      	b.n	8002178 <__aeabi_dmul+0xac>
 800262a:	290f      	cmp	r1, #15
 800262c:	d1aa      	bne.n	8002584 <__aeabi_dmul+0x4b8>
 800262e:	2380      	movs	r3, #128	@ 0x80
 8002630:	4652      	mov	r2, sl
 8002632:	031b      	lsls	r3, r3, #12
 8002634:	421a      	tst	r2, r3
 8002636:	d0a9      	beq.n	800258c <__aeabi_dmul+0x4c0>
 8002638:	421c      	tst	r4, r3
 800263a:	d1a7      	bne.n	800258c <__aeabi_dmul+0x4c0>
 800263c:	431c      	orrs	r4, r3
 800263e:	9b00      	ldr	r3, [sp, #0]
 8002640:	0002      	movs	r2, r0
 8002642:	469b      	mov	fp, r3
 8002644:	4b03      	ldr	r3, [pc, #12]	@ (8002654 <__aeabi_dmul+0x588>)
 8002646:	e597      	b.n	8002178 <__aeabi_dmul+0xac>
 8002648:	2400      	movs	r4, #0
 800264a:	e6c1      	b.n	80023d0 <__aeabi_dmul+0x304>
 800264c:	2400      	movs	r4, #0
 800264e:	4b01      	ldr	r3, [pc, #4]	@ (8002654 <__aeabi_dmul+0x588>)
 8002650:	0022      	movs	r2, r4
 8002652:	e591      	b.n	8002178 <__aeabi_dmul+0xac>
 8002654:	000007ff 	.word	0x000007ff
 8002658:	0000041e 	.word	0x0000041e

0800265c <__aeabi_dsub>:
 800265c:	b5f0      	push	{r4, r5, r6, r7, lr}
 800265e:	464e      	mov	r6, r9
 8002660:	4645      	mov	r5, r8
 8002662:	46de      	mov	lr, fp
 8002664:	4657      	mov	r7, sl
 8002666:	b5e0      	push	{r5, r6, r7, lr}
 8002668:	b085      	sub	sp, #20
 800266a:	9000      	str	r0, [sp, #0]
 800266c:	9101      	str	r1, [sp, #4]
 800266e:	030c      	lsls	r4, r1, #12
 8002670:	004f      	lsls	r7, r1, #1
 8002672:	0fce      	lsrs	r6, r1, #31
 8002674:	0a61      	lsrs	r1, r4, #9
 8002676:	9c00      	ldr	r4, [sp, #0]
 8002678:	46b0      	mov	r8, r6
 800267a:	0f64      	lsrs	r4, r4, #29
 800267c:	430c      	orrs	r4, r1
 800267e:	9900      	ldr	r1, [sp, #0]
 8002680:	0d7f      	lsrs	r7, r7, #21
 8002682:	00c8      	lsls	r0, r1, #3
 8002684:	0011      	movs	r1, r2
 8002686:	001a      	movs	r2, r3
 8002688:	031b      	lsls	r3, r3, #12
 800268a:	469c      	mov	ip, r3
 800268c:	9100      	str	r1, [sp, #0]
 800268e:	9201      	str	r2, [sp, #4]
 8002690:	0051      	lsls	r1, r2, #1
 8002692:	0d4b      	lsrs	r3, r1, #21
 8002694:	4699      	mov	r9, r3
 8002696:	9b01      	ldr	r3, [sp, #4]
 8002698:	9d00      	ldr	r5, [sp, #0]
 800269a:	0fd9      	lsrs	r1, r3, #31
 800269c:	4663      	mov	r3, ip
 800269e:	0f6a      	lsrs	r2, r5, #29
 80026a0:	0a5b      	lsrs	r3, r3, #9
 80026a2:	4313      	orrs	r3, r2
 80026a4:	00ea      	lsls	r2, r5, #3
 80026a6:	4694      	mov	ip, r2
 80026a8:	4693      	mov	fp, r2
 80026aa:	4ac1      	ldr	r2, [pc, #772]	@ (80029b0 <__aeabi_dsub+0x354>)
 80026ac:	9003      	str	r0, [sp, #12]
 80026ae:	9302      	str	r3, [sp, #8]
 80026b0:	4591      	cmp	r9, r2
 80026b2:	d100      	bne.n	80026b6 <__aeabi_dsub+0x5a>
 80026b4:	e0cd      	b.n	8002852 <__aeabi_dsub+0x1f6>
 80026b6:	2501      	movs	r5, #1
 80026b8:	4069      	eors	r1, r5
 80026ba:	464d      	mov	r5, r9
 80026bc:	1b7d      	subs	r5, r7, r5
 80026be:	46aa      	mov	sl, r5
 80026c0:	428e      	cmp	r6, r1
 80026c2:	d100      	bne.n	80026c6 <__aeabi_dsub+0x6a>
 80026c4:	e080      	b.n	80027c8 <__aeabi_dsub+0x16c>
 80026c6:	2d00      	cmp	r5, #0
 80026c8:	dc00      	bgt.n	80026cc <__aeabi_dsub+0x70>
 80026ca:	e335      	b.n	8002d38 <__aeabi_dsub+0x6dc>
 80026cc:	4649      	mov	r1, r9
 80026ce:	2900      	cmp	r1, #0
 80026d0:	d100      	bne.n	80026d4 <__aeabi_dsub+0x78>
 80026d2:	e0df      	b.n	8002894 <__aeabi_dsub+0x238>
 80026d4:	4297      	cmp	r7, r2
 80026d6:	d100      	bne.n	80026da <__aeabi_dsub+0x7e>
 80026d8:	e194      	b.n	8002a04 <__aeabi_dsub+0x3a8>
 80026da:	4652      	mov	r2, sl
 80026dc:	2501      	movs	r5, #1
 80026de:	2a38      	cmp	r2, #56	@ 0x38
 80026e0:	dc19      	bgt.n	8002716 <__aeabi_dsub+0xba>
 80026e2:	2280      	movs	r2, #128	@ 0x80
 80026e4:	9b02      	ldr	r3, [sp, #8]
 80026e6:	0412      	lsls	r2, r2, #16
 80026e8:	4313      	orrs	r3, r2
 80026ea:	9302      	str	r3, [sp, #8]
 80026ec:	4652      	mov	r2, sl
 80026ee:	2a1f      	cmp	r2, #31
 80026f0:	dd00      	ble.n	80026f4 <__aeabi_dsub+0x98>
 80026f2:	e1e3      	b.n	8002abc <__aeabi_dsub+0x460>
 80026f4:	4653      	mov	r3, sl
 80026f6:	2220      	movs	r2, #32
 80026f8:	4661      	mov	r1, ip
 80026fa:	9d02      	ldr	r5, [sp, #8]
 80026fc:	1ad2      	subs	r2, r2, r3
 80026fe:	4095      	lsls	r5, r2
 8002700:	40d9      	lsrs	r1, r3
 8002702:	430d      	orrs	r5, r1
 8002704:	4661      	mov	r1, ip
 8002706:	4091      	lsls	r1, r2
 8002708:	000a      	movs	r2, r1
 800270a:	1e51      	subs	r1, r2, #1
 800270c:	418a      	sbcs	r2, r1
 800270e:	4315      	orrs	r5, r2
 8002710:	9a02      	ldr	r2, [sp, #8]
 8002712:	40da      	lsrs	r2, r3
 8002714:	1aa4      	subs	r4, r4, r2
 8002716:	1b45      	subs	r5, r0, r5
 8002718:	42a8      	cmp	r0, r5
 800271a:	4180      	sbcs	r0, r0
 800271c:	4240      	negs	r0, r0
 800271e:	1a24      	subs	r4, r4, r0
 8002720:	0223      	lsls	r3, r4, #8
 8002722:	d400      	bmi.n	8002726 <__aeabi_dsub+0xca>
 8002724:	e13d      	b.n	80029a2 <__aeabi_dsub+0x346>
 8002726:	0264      	lsls	r4, r4, #9
 8002728:	0a64      	lsrs	r4, r4, #9
 800272a:	2c00      	cmp	r4, #0
 800272c:	d100      	bne.n	8002730 <__aeabi_dsub+0xd4>
 800272e:	e147      	b.n	80029c0 <__aeabi_dsub+0x364>
 8002730:	0020      	movs	r0, r4
 8002732:	f000 fc87 	bl	8003044 <__clzsi2>
 8002736:	0003      	movs	r3, r0
 8002738:	3b08      	subs	r3, #8
 800273a:	2120      	movs	r1, #32
 800273c:	0028      	movs	r0, r5
 800273e:	1aca      	subs	r2, r1, r3
 8002740:	40d0      	lsrs	r0, r2
 8002742:	409c      	lsls	r4, r3
 8002744:	0002      	movs	r2, r0
 8002746:	409d      	lsls	r5, r3
 8002748:	4322      	orrs	r2, r4
 800274a:	429f      	cmp	r7, r3
 800274c:	dd00      	ble.n	8002750 <__aeabi_dsub+0xf4>
 800274e:	e177      	b.n	8002a40 <__aeabi_dsub+0x3e4>
 8002750:	1bd8      	subs	r0, r3, r7
 8002752:	3001      	adds	r0, #1
 8002754:	1a09      	subs	r1, r1, r0
 8002756:	002c      	movs	r4, r5
 8002758:	408d      	lsls	r5, r1
 800275a:	40c4      	lsrs	r4, r0
 800275c:	1e6b      	subs	r3, r5, #1
 800275e:	419d      	sbcs	r5, r3
 8002760:	0013      	movs	r3, r2
 8002762:	40c2      	lsrs	r2, r0
 8002764:	408b      	lsls	r3, r1
 8002766:	4325      	orrs	r5, r4
 8002768:	2700      	movs	r7, #0
 800276a:	0014      	movs	r4, r2
 800276c:	431d      	orrs	r5, r3
 800276e:	076b      	lsls	r3, r5, #29
 8002770:	d009      	beq.n	8002786 <__aeabi_dsub+0x12a>
 8002772:	230f      	movs	r3, #15
 8002774:	402b      	ands	r3, r5
 8002776:	2b04      	cmp	r3, #4
 8002778:	d005      	beq.n	8002786 <__aeabi_dsub+0x12a>
 800277a:	1d2b      	adds	r3, r5, #4
 800277c:	42ab      	cmp	r3, r5
 800277e:	41ad      	sbcs	r5, r5
 8002780:	426d      	negs	r5, r5
 8002782:	1964      	adds	r4, r4, r5
 8002784:	001d      	movs	r5, r3
 8002786:	0223      	lsls	r3, r4, #8
 8002788:	d400      	bmi.n	800278c <__aeabi_dsub+0x130>
 800278a:	e140      	b.n	8002a0e <__aeabi_dsub+0x3b2>
 800278c:	4a88      	ldr	r2, [pc, #544]	@ (80029b0 <__aeabi_dsub+0x354>)
 800278e:	3701      	adds	r7, #1
 8002790:	4297      	cmp	r7, r2
 8002792:	d100      	bne.n	8002796 <__aeabi_dsub+0x13a>
 8002794:	e101      	b.n	800299a <__aeabi_dsub+0x33e>
 8002796:	2601      	movs	r6, #1
 8002798:	4643      	mov	r3, r8
 800279a:	4986      	ldr	r1, [pc, #536]	@ (80029b4 <__aeabi_dsub+0x358>)
 800279c:	08ed      	lsrs	r5, r5, #3
 800279e:	4021      	ands	r1, r4
 80027a0:	074a      	lsls	r2, r1, #29
 80027a2:	432a      	orrs	r2, r5
 80027a4:	057c      	lsls	r4, r7, #21
 80027a6:	024d      	lsls	r5, r1, #9
 80027a8:	0b2d      	lsrs	r5, r5, #12
 80027aa:	0d64      	lsrs	r4, r4, #21
 80027ac:	401e      	ands	r6, r3
 80027ae:	0524      	lsls	r4, r4, #20
 80027b0:	432c      	orrs	r4, r5
 80027b2:	07f6      	lsls	r6, r6, #31
 80027b4:	4334      	orrs	r4, r6
 80027b6:	0010      	movs	r0, r2
 80027b8:	0021      	movs	r1, r4
 80027ba:	b005      	add	sp, #20
 80027bc:	bcf0      	pop	{r4, r5, r6, r7}
 80027be:	46bb      	mov	fp, r7
 80027c0:	46b2      	mov	sl, r6
 80027c2:	46a9      	mov	r9, r5
 80027c4:	46a0      	mov	r8, r4
 80027c6:	bdf0      	pop	{r4, r5, r6, r7, pc}
 80027c8:	2d00      	cmp	r5, #0
 80027ca:	dc00      	bgt.n	80027ce <__aeabi_dsub+0x172>
 80027cc:	e2d0      	b.n	8002d70 <__aeabi_dsub+0x714>
 80027ce:	4649      	mov	r1, r9
 80027d0:	2900      	cmp	r1, #0
 80027d2:	d000      	beq.n	80027d6 <__aeabi_dsub+0x17a>
 80027d4:	e0d4      	b.n	8002980 <__aeabi_dsub+0x324>
 80027d6:	4661      	mov	r1, ip
 80027d8:	9b02      	ldr	r3, [sp, #8]
 80027da:	4319      	orrs	r1, r3
 80027dc:	d100      	bne.n	80027e0 <__aeabi_dsub+0x184>
 80027de:	e12b      	b.n	8002a38 <__aeabi_dsub+0x3dc>
 80027e0:	1e69      	subs	r1, r5, #1
 80027e2:	2d01      	cmp	r5, #1
 80027e4:	d100      	bne.n	80027e8 <__aeabi_dsub+0x18c>
 80027e6:	e1d9      	b.n	8002b9c <__aeabi_dsub+0x540>
 80027e8:	4295      	cmp	r5, r2
 80027ea:	d100      	bne.n	80027ee <__aeabi_dsub+0x192>
 80027ec:	e10a      	b.n	8002a04 <__aeabi_dsub+0x3a8>
 80027ee:	2501      	movs	r5, #1
 80027f0:	2938      	cmp	r1, #56	@ 0x38
 80027f2:	dc17      	bgt.n	8002824 <__aeabi_dsub+0x1c8>
 80027f4:	468a      	mov	sl, r1
 80027f6:	4653      	mov	r3, sl
 80027f8:	2b1f      	cmp	r3, #31
 80027fa:	dd00      	ble.n	80027fe <__aeabi_dsub+0x1a2>
 80027fc:	e1e7      	b.n	8002bce <__aeabi_dsub+0x572>
 80027fe:	2220      	movs	r2, #32
 8002800:	1ad2      	subs	r2, r2, r3
 8002802:	9b02      	ldr	r3, [sp, #8]
 8002804:	4661      	mov	r1, ip
 8002806:	4093      	lsls	r3, r2
 8002808:	001d      	movs	r5, r3
 800280a:	4653      	mov	r3, sl
 800280c:	40d9      	lsrs	r1, r3
 800280e:	4663      	mov	r3, ip
 8002810:	4093      	lsls	r3, r2
 8002812:	001a      	movs	r2, r3
 8002814:	430d      	orrs	r5, r1
 8002816:	1e51      	subs	r1, r2, #1
 8002818:	418a      	sbcs	r2, r1
 800281a:	4653      	mov	r3, sl
 800281c:	4315      	orrs	r5, r2
 800281e:	9a02      	ldr	r2, [sp, #8]
 8002820:	40da      	lsrs	r2, r3
 8002822:	18a4      	adds	r4, r4, r2
 8002824:	182d      	adds	r5, r5, r0
 8002826:	4285      	cmp	r5, r0
 8002828:	4180      	sbcs	r0, r0
 800282a:	4240      	negs	r0, r0
 800282c:	1824      	adds	r4, r4, r0
 800282e:	0223      	lsls	r3, r4, #8
 8002830:	d400      	bmi.n	8002834 <__aeabi_dsub+0x1d8>
 8002832:	e0b6      	b.n	80029a2 <__aeabi_dsub+0x346>
 8002834:	4b5e      	ldr	r3, [pc, #376]	@ (80029b0 <__aeabi_dsub+0x354>)
 8002836:	3701      	adds	r7, #1
 8002838:	429f      	cmp	r7, r3
 800283a:	d100      	bne.n	800283e <__aeabi_dsub+0x1e2>
 800283c:	e0ad      	b.n	800299a <__aeabi_dsub+0x33e>
 800283e:	2101      	movs	r1, #1
 8002840:	4b5c      	ldr	r3, [pc, #368]	@ (80029b4 <__aeabi_dsub+0x358>)
 8002842:	086a      	lsrs	r2, r5, #1
 8002844:	401c      	ands	r4, r3
 8002846:	4029      	ands	r1, r5
 8002848:	430a      	orrs	r2, r1
 800284a:	07e5      	lsls	r5, r4, #31
 800284c:	4315      	orrs	r5, r2
 800284e:	0864      	lsrs	r4, r4, #1
 8002850:	e78d      	b.n	800276e <__aeabi_dsub+0x112>
 8002852:	4a59      	ldr	r2, [pc, #356]	@ (80029b8 <__aeabi_dsub+0x35c>)
 8002854:	9b02      	ldr	r3, [sp, #8]
 8002856:	4692      	mov	sl, r2
 8002858:	4662      	mov	r2, ip
 800285a:	44ba      	add	sl, r7
 800285c:	431a      	orrs	r2, r3
 800285e:	d02c      	beq.n	80028ba <__aeabi_dsub+0x25e>
 8002860:	428e      	cmp	r6, r1
 8002862:	d02e      	beq.n	80028c2 <__aeabi_dsub+0x266>
 8002864:	4652      	mov	r2, sl
 8002866:	2a00      	cmp	r2, #0
 8002868:	d060      	beq.n	800292c <__aeabi_dsub+0x2d0>
 800286a:	2f00      	cmp	r7, #0
 800286c:	d100      	bne.n	8002870 <__aeabi_dsub+0x214>
 800286e:	e0db      	b.n	8002a28 <__aeabi_dsub+0x3cc>
 8002870:	4663      	mov	r3, ip
 8002872:	000e      	movs	r6, r1
 8002874:	9c02      	ldr	r4, [sp, #8]
 8002876:	08d8      	lsrs	r0, r3, #3
 8002878:	0762      	lsls	r2, r4, #29
 800287a:	4302      	orrs	r2, r0
 800287c:	08e4      	lsrs	r4, r4, #3
 800287e:	0013      	movs	r3, r2
 8002880:	4323      	orrs	r3, r4
 8002882:	d100      	bne.n	8002886 <__aeabi_dsub+0x22a>
 8002884:	e254      	b.n	8002d30 <__aeabi_dsub+0x6d4>
 8002886:	2580      	movs	r5, #128	@ 0x80
 8002888:	032d      	lsls	r5, r5, #12
 800288a:	4325      	orrs	r5, r4
 800288c:	032d      	lsls	r5, r5, #12
 800288e:	4c48      	ldr	r4, [pc, #288]	@ (80029b0 <__aeabi_dsub+0x354>)
 8002890:	0b2d      	lsrs	r5, r5, #12
 8002892:	e78c      	b.n	80027ae <__aeabi_dsub+0x152>
 8002894:	4661      	mov	r1, ip
 8002896:	9b02      	ldr	r3, [sp, #8]
 8002898:	4319      	orrs	r1, r3
 800289a:	d100      	bne.n	800289e <__aeabi_dsub+0x242>
 800289c:	e0cc      	b.n	8002a38 <__aeabi_dsub+0x3dc>
 800289e:	0029      	movs	r1, r5
 80028a0:	3901      	subs	r1, #1
 80028a2:	2d01      	cmp	r5, #1
 80028a4:	d100      	bne.n	80028a8 <__aeabi_dsub+0x24c>
 80028a6:	e188      	b.n	8002bba <__aeabi_dsub+0x55e>
 80028a8:	4295      	cmp	r5, r2
 80028aa:	d100      	bne.n	80028ae <__aeabi_dsub+0x252>
 80028ac:	e0aa      	b.n	8002a04 <__aeabi_dsub+0x3a8>
 80028ae:	2501      	movs	r5, #1
 80028b0:	2938      	cmp	r1, #56	@ 0x38
 80028b2:	dd00      	ble.n	80028b6 <__aeabi_dsub+0x25a>
 80028b4:	e72f      	b.n	8002716 <__aeabi_dsub+0xba>
 80028b6:	468a      	mov	sl, r1
 80028b8:	e718      	b.n	80026ec <__aeabi_dsub+0x90>
 80028ba:	2201      	movs	r2, #1
 80028bc:	4051      	eors	r1, r2
 80028be:	428e      	cmp	r6, r1
 80028c0:	d1d0      	bne.n	8002864 <__aeabi_dsub+0x208>
 80028c2:	4653      	mov	r3, sl
 80028c4:	2b00      	cmp	r3, #0
 80028c6:	d100      	bne.n	80028ca <__aeabi_dsub+0x26e>
 80028c8:	e0be      	b.n	8002a48 <__aeabi_dsub+0x3ec>
 80028ca:	2f00      	cmp	r7, #0
 80028cc:	d000      	beq.n	80028d0 <__aeabi_dsub+0x274>
 80028ce:	e138      	b.n	8002b42 <__aeabi_dsub+0x4e6>
 80028d0:	46ca      	mov	sl, r9
 80028d2:	0022      	movs	r2, r4
 80028d4:	4302      	orrs	r2, r0
 80028d6:	d100      	bne.n	80028da <__aeabi_dsub+0x27e>
 80028d8:	e1e2      	b.n	8002ca0 <__aeabi_dsub+0x644>
 80028da:	4653      	mov	r3, sl
 80028dc:	1e59      	subs	r1, r3, #1
 80028de:	2b01      	cmp	r3, #1
 80028e0:	d100      	bne.n	80028e4 <__aeabi_dsub+0x288>
 80028e2:	e20d      	b.n	8002d00 <__aeabi_dsub+0x6a4>
 80028e4:	4a32      	ldr	r2, [pc, #200]	@ (80029b0 <__aeabi_dsub+0x354>)
 80028e6:	4592      	cmp	sl, r2
 80028e8:	d100      	bne.n	80028ec <__aeabi_dsub+0x290>
 80028ea:	e1d2      	b.n	8002c92 <__aeabi_dsub+0x636>
 80028ec:	2701      	movs	r7, #1
 80028ee:	2938      	cmp	r1, #56	@ 0x38
 80028f0:	dc13      	bgt.n	800291a <__aeabi_dsub+0x2be>
 80028f2:	291f      	cmp	r1, #31
 80028f4:	dd00      	ble.n	80028f8 <__aeabi_dsub+0x29c>
 80028f6:	e1ee      	b.n	8002cd6 <__aeabi_dsub+0x67a>
 80028f8:	2220      	movs	r2, #32
 80028fa:	9b02      	ldr	r3, [sp, #8]
 80028fc:	1a52      	subs	r2, r2, r1
 80028fe:	0025      	movs	r5, r4
 8002900:	0007      	movs	r7, r0
 8002902:	469a      	mov	sl, r3
 8002904:	40cc      	lsrs	r4, r1
 8002906:	4090      	lsls	r0, r2
 8002908:	4095      	lsls	r5, r2
 800290a:	40cf      	lsrs	r7, r1
 800290c:	44a2      	add	sl, r4
 800290e:	1e42      	subs	r2, r0, #1
 8002910:	4190      	sbcs	r0, r2
 8002912:	4653      	mov	r3, sl
 8002914:	432f      	orrs	r7, r5
 8002916:	4307      	orrs	r7, r0
 8002918:	9302      	str	r3, [sp, #8]
 800291a:	003d      	movs	r5, r7
 800291c:	4465      	add	r5, ip
 800291e:	4565      	cmp	r5, ip
 8002920:	4192      	sbcs	r2, r2
 8002922:	9b02      	ldr	r3, [sp, #8]
 8002924:	4252      	negs	r2, r2
 8002926:	464f      	mov	r7, r9
 8002928:	18d4      	adds	r4, r2, r3
 800292a:	e780      	b.n	800282e <__aeabi_dsub+0x1d2>
 800292c:	4a23      	ldr	r2, [pc, #140]	@ (80029bc <__aeabi_dsub+0x360>)
 800292e:	1c7d      	adds	r5, r7, #1
 8002930:	4215      	tst	r5, r2
 8002932:	d000      	beq.n	8002936 <__aeabi_dsub+0x2da>
 8002934:	e0aa      	b.n	8002a8c <__aeabi_dsub+0x430>
 8002936:	4662      	mov	r2, ip
 8002938:	0025      	movs	r5, r4
 800293a:	9b02      	ldr	r3, [sp, #8]
 800293c:	4305      	orrs	r5, r0
 800293e:	431a      	orrs	r2, r3
 8002940:	2f00      	cmp	r7, #0
 8002942:	d000      	beq.n	8002946 <__aeabi_dsub+0x2ea>
 8002944:	e0f5      	b.n	8002b32 <__aeabi_dsub+0x4d6>
 8002946:	2d00      	cmp	r5, #0
 8002948:	d100      	bne.n	800294c <__aeabi_dsub+0x2f0>
 800294a:	e16b      	b.n	8002c24 <__aeabi_dsub+0x5c8>
 800294c:	2a00      	cmp	r2, #0
 800294e:	d100      	bne.n	8002952 <__aeabi_dsub+0x2f6>
 8002950:	e152      	b.n	8002bf8 <__aeabi_dsub+0x59c>
 8002952:	4663      	mov	r3, ip
 8002954:	1ac5      	subs	r5, r0, r3
 8002956:	9b02      	ldr	r3, [sp, #8]
 8002958:	1ae2      	subs	r2, r4, r3
 800295a:	42a8      	cmp	r0, r5
 800295c:	419b      	sbcs	r3, r3
 800295e:	425b      	negs	r3, r3
 8002960:	1ad3      	subs	r3, r2, r3
 8002962:	021a      	lsls	r2, r3, #8
 8002964:	d400      	bmi.n	8002968 <__aeabi_dsub+0x30c>
 8002966:	e1d5      	b.n	8002d14 <__aeabi_dsub+0x6b8>
 8002968:	4663      	mov	r3, ip
 800296a:	1a1d      	subs	r5, r3, r0
 800296c:	45ac      	cmp	ip, r5
 800296e:	4192      	sbcs	r2, r2
 8002970:	2601      	movs	r6, #1
 8002972:	9b02      	ldr	r3, [sp, #8]
 8002974:	4252      	negs	r2, r2
 8002976:	1b1c      	subs	r4, r3, r4
 8002978:	4688      	mov	r8, r1
 800297a:	1aa4      	subs	r4, r4, r2
 800297c:	400e      	ands	r6, r1
 800297e:	e6f6      	b.n	800276e <__aeabi_dsub+0x112>
 8002980:	4297      	cmp	r7, r2
 8002982:	d03f      	beq.n	8002a04 <__aeabi_dsub+0x3a8>
 8002984:	4652      	mov	r2, sl
 8002986:	2501      	movs	r5, #1
 8002988:	2a38      	cmp	r2, #56	@ 0x38
 800298a:	dd00      	ble.n	800298e <__aeabi_dsub+0x332>
 800298c:	e74a      	b.n	8002824 <__aeabi_dsub+0x1c8>
 800298e:	2280      	movs	r2, #128	@ 0x80
 8002990:	9b02      	ldr	r3, [sp, #8]
 8002992:	0412      	lsls	r2, r2, #16
 8002994:	4313      	orrs	r3, r2
 8002996:	9302      	str	r3, [sp, #8]
 8002998:	e72d      	b.n	80027f6 <__aeabi_dsub+0x19a>
 800299a:	003c      	movs	r4, r7
 800299c:	2500      	movs	r5, #0
 800299e:	2200      	movs	r2, #0
 80029a0:	e705      	b.n	80027ae <__aeabi_dsub+0x152>
 80029a2:	2307      	movs	r3, #7
 80029a4:	402b      	ands	r3, r5
 80029a6:	2b00      	cmp	r3, #0
 80029a8:	d000      	beq.n	80029ac <__aeabi_dsub+0x350>
 80029aa:	e6e2      	b.n	8002772 <__aeabi_dsub+0x116>
 80029ac:	e06b      	b.n	8002a86 <__aeabi_dsub+0x42a>
 80029ae:	46c0      	nop			@ (mov r8, r8)
 80029b0:	000007ff 	.word	0x000007ff
 80029b4:	ff7fffff 	.word	0xff7fffff
 80029b8:	fffff801 	.word	0xfffff801
 80029bc:	000007fe 	.word	0x000007fe
 80029c0:	0028      	movs	r0, r5
 80029c2:	f000 fb3f 	bl	8003044 <__clzsi2>
 80029c6:	0003      	movs	r3, r0
 80029c8:	3318      	adds	r3, #24
 80029ca:	2b1f      	cmp	r3, #31
 80029cc:	dc00      	bgt.n	80029d0 <__aeabi_dsub+0x374>
 80029ce:	e6b4      	b.n	800273a <__aeabi_dsub+0xde>
 80029d0:	002a      	movs	r2, r5
 80029d2:	3808      	subs	r0, #8
 80029d4:	4082      	lsls	r2, r0
 80029d6:	429f      	cmp	r7, r3
 80029d8:	dd00      	ble.n	80029dc <__aeabi_dsub+0x380>
 80029da:	e0b9      	b.n	8002b50 <__aeabi_dsub+0x4f4>
 80029dc:	1bdb      	subs	r3, r3, r7
 80029de:	1c58      	adds	r0, r3, #1
 80029e0:	281f      	cmp	r0, #31
 80029e2:	dc00      	bgt.n	80029e6 <__aeabi_dsub+0x38a>
 80029e4:	e1a0      	b.n	8002d28 <__aeabi_dsub+0x6cc>
 80029e6:	0015      	movs	r5, r2
 80029e8:	3b1f      	subs	r3, #31
 80029ea:	40dd      	lsrs	r5, r3
 80029ec:	2820      	cmp	r0, #32
 80029ee:	d005      	beq.n	80029fc <__aeabi_dsub+0x3a0>
 80029f0:	2340      	movs	r3, #64	@ 0x40
 80029f2:	1a1b      	subs	r3, r3, r0
 80029f4:	409a      	lsls	r2, r3
 80029f6:	1e53      	subs	r3, r2, #1
 80029f8:	419a      	sbcs	r2, r3
 80029fa:	4315      	orrs	r5, r2
 80029fc:	2307      	movs	r3, #7
 80029fe:	2700      	movs	r7, #0
 8002a00:	402b      	ands	r3, r5
 8002a02:	e7d0      	b.n	80029a6 <__aeabi_dsub+0x34a>
 8002a04:	08c0      	lsrs	r0, r0, #3
 8002a06:	0762      	lsls	r2, r4, #29
 8002a08:	4302      	orrs	r2, r0
 8002a0a:	08e4      	lsrs	r4, r4, #3
 8002a0c:	e737      	b.n	800287e <__aeabi_dsub+0x222>
 8002a0e:	08ea      	lsrs	r2, r5, #3
 8002a10:	0763      	lsls	r3, r4, #29
 8002a12:	431a      	orrs	r2, r3
 8002a14:	4bd3      	ldr	r3, [pc, #844]	@ (8002d64 <__aeabi_dsub+0x708>)
 8002a16:	08e4      	lsrs	r4, r4, #3
 8002a18:	429f      	cmp	r7, r3
 8002a1a:	d100      	bne.n	8002a1e <__aeabi_dsub+0x3c2>
 8002a1c:	e72f      	b.n	800287e <__aeabi_dsub+0x222>
 8002a1e:	0324      	lsls	r4, r4, #12
 8002a20:	0b25      	lsrs	r5, r4, #12
 8002a22:	057c      	lsls	r4, r7, #21
 8002a24:	0d64      	lsrs	r4, r4, #21
 8002a26:	e6c2      	b.n	80027ae <__aeabi_dsub+0x152>
 8002a28:	46ca      	mov	sl, r9
 8002a2a:	0022      	movs	r2, r4
 8002a2c:	4302      	orrs	r2, r0
 8002a2e:	d158      	bne.n	8002ae2 <__aeabi_dsub+0x486>
 8002a30:	4663      	mov	r3, ip
 8002a32:	000e      	movs	r6, r1
 8002a34:	9c02      	ldr	r4, [sp, #8]
 8002a36:	9303      	str	r3, [sp, #12]
 8002a38:	9b03      	ldr	r3, [sp, #12]
 8002a3a:	4657      	mov	r7, sl
 8002a3c:	08da      	lsrs	r2, r3, #3
 8002a3e:	e7e7      	b.n	8002a10 <__aeabi_dsub+0x3b4>
 8002a40:	4cc9      	ldr	r4, [pc, #804]	@ (8002d68 <__aeabi_dsub+0x70c>)
 8002a42:	1aff      	subs	r7, r7, r3
 8002a44:	4014      	ands	r4, r2
 8002a46:	e692      	b.n	800276e <__aeabi_dsub+0x112>
 8002a48:	4dc8      	ldr	r5, [pc, #800]	@ (8002d6c <__aeabi_dsub+0x710>)
 8002a4a:	1c7a      	adds	r2, r7, #1
 8002a4c:	422a      	tst	r2, r5
 8002a4e:	d000      	beq.n	8002a52 <__aeabi_dsub+0x3f6>
 8002a50:	e084      	b.n	8002b5c <__aeabi_dsub+0x500>
 8002a52:	0022      	movs	r2, r4
 8002a54:	4302      	orrs	r2, r0
 8002a56:	2f00      	cmp	r7, #0
 8002a58:	d000      	beq.n	8002a5c <__aeabi_dsub+0x400>
 8002a5a:	e0ef      	b.n	8002c3c <__aeabi_dsub+0x5e0>
 8002a5c:	2a00      	cmp	r2, #0
 8002a5e:	d100      	bne.n	8002a62 <__aeabi_dsub+0x406>
 8002a60:	e0e5      	b.n	8002c2e <__aeabi_dsub+0x5d2>
 8002a62:	4662      	mov	r2, ip
 8002a64:	9902      	ldr	r1, [sp, #8]
 8002a66:	430a      	orrs	r2, r1
 8002a68:	d100      	bne.n	8002a6c <__aeabi_dsub+0x410>
 8002a6a:	e0c5      	b.n	8002bf8 <__aeabi_dsub+0x59c>
 8002a6c:	4663      	mov	r3, ip
 8002a6e:	18c5      	adds	r5, r0, r3
 8002a70:	468c      	mov	ip, r1
 8002a72:	4285      	cmp	r5, r0
 8002a74:	4180      	sbcs	r0, r0
 8002a76:	4464      	add	r4, ip
 8002a78:	4240      	negs	r0, r0
 8002a7a:	1824      	adds	r4, r4, r0
 8002a7c:	0223      	lsls	r3, r4, #8
 8002a7e:	d502      	bpl.n	8002a86 <__aeabi_dsub+0x42a>
 8002a80:	4bb9      	ldr	r3, [pc, #740]	@ (8002d68 <__aeabi_dsub+0x70c>)
 8002a82:	3701      	adds	r7, #1
 8002a84:	401c      	ands	r4, r3
 8002a86:	46ba      	mov	sl, r7
 8002a88:	9503      	str	r5, [sp, #12]
 8002a8a:	e7d5      	b.n	8002a38 <__aeabi_dsub+0x3dc>
 8002a8c:	4662      	mov	r2, ip
 8002a8e:	1a85      	subs	r5, r0, r2
 8002a90:	42a8      	cmp	r0, r5
 8002a92:	4192      	sbcs	r2, r2
 8002a94:	4252      	negs	r2, r2
 8002a96:	4691      	mov	r9, r2
 8002a98:	9b02      	ldr	r3, [sp, #8]
 8002a9a:	1ae3      	subs	r3, r4, r3
 8002a9c:	001a      	movs	r2, r3
 8002a9e:	464b      	mov	r3, r9
 8002aa0:	1ad2      	subs	r2, r2, r3
 8002aa2:	0013      	movs	r3, r2
 8002aa4:	4691      	mov	r9, r2
 8002aa6:	021a      	lsls	r2, r3, #8
 8002aa8:	d46c      	bmi.n	8002b84 <__aeabi_dsub+0x528>
 8002aaa:	464a      	mov	r2, r9
 8002aac:	464c      	mov	r4, r9
 8002aae:	432a      	orrs	r2, r5
 8002ab0:	d000      	beq.n	8002ab4 <__aeabi_dsub+0x458>
 8002ab2:	e63a      	b.n	800272a <__aeabi_dsub+0xce>
 8002ab4:	2600      	movs	r6, #0
 8002ab6:	2400      	movs	r4, #0
 8002ab8:	2500      	movs	r5, #0
 8002aba:	e678      	b.n	80027ae <__aeabi_dsub+0x152>
 8002abc:	9902      	ldr	r1, [sp, #8]
 8002abe:	4653      	mov	r3, sl
 8002ac0:	000d      	movs	r5, r1
 8002ac2:	3a20      	subs	r2, #32
 8002ac4:	40d5      	lsrs	r5, r2
 8002ac6:	2b20      	cmp	r3, #32
 8002ac8:	d006      	beq.n	8002ad8 <__aeabi_dsub+0x47c>
 8002aca:	2240      	movs	r2, #64	@ 0x40
 8002acc:	1ad2      	subs	r2, r2, r3
 8002ace:	000b      	movs	r3, r1
 8002ad0:	4093      	lsls	r3, r2
 8002ad2:	4662      	mov	r2, ip
 8002ad4:	431a      	orrs	r2, r3
 8002ad6:	4693      	mov	fp, r2
 8002ad8:	465b      	mov	r3, fp
 8002ada:	1e5a      	subs	r2, r3, #1
 8002adc:	4193      	sbcs	r3, r2
 8002ade:	431d      	orrs	r5, r3
 8002ae0:	e619      	b.n	8002716 <__aeabi_dsub+0xba>
 8002ae2:	4653      	mov	r3, sl
 8002ae4:	1e5a      	subs	r2, r3, #1
 8002ae6:	2b01      	cmp	r3, #1
 8002ae8:	d100      	bne.n	8002aec <__aeabi_dsub+0x490>
 8002aea:	e0c6      	b.n	8002c7a <__aeabi_dsub+0x61e>
 8002aec:	4e9d      	ldr	r6, [pc, #628]	@ (8002d64 <__aeabi_dsub+0x708>)
 8002aee:	45b2      	cmp	sl, r6
 8002af0:	d100      	bne.n	8002af4 <__aeabi_dsub+0x498>
 8002af2:	e6bd      	b.n	8002870 <__aeabi_dsub+0x214>
 8002af4:	4688      	mov	r8, r1
 8002af6:	000e      	movs	r6, r1
 8002af8:	2501      	movs	r5, #1
 8002afa:	2a38      	cmp	r2, #56	@ 0x38
 8002afc:	dc10      	bgt.n	8002b20 <__aeabi_dsub+0x4c4>
 8002afe:	2a1f      	cmp	r2, #31
 8002b00:	dc7f      	bgt.n	8002c02 <__aeabi_dsub+0x5a6>
 8002b02:	2120      	movs	r1, #32
 8002b04:	0025      	movs	r5, r4
 8002b06:	1a89      	subs	r1, r1, r2
 8002b08:	0007      	movs	r7, r0
 8002b0a:	4088      	lsls	r0, r1
 8002b0c:	408d      	lsls	r5, r1
 8002b0e:	40d7      	lsrs	r7, r2
 8002b10:	40d4      	lsrs	r4, r2
 8002b12:	1e41      	subs	r1, r0, #1
 8002b14:	4188      	sbcs	r0, r1
 8002b16:	9b02      	ldr	r3, [sp, #8]
 8002b18:	433d      	orrs	r5, r7
 8002b1a:	1b1b      	subs	r3, r3, r4
 8002b1c:	4305      	orrs	r5, r0
 8002b1e:	9302      	str	r3, [sp, #8]
 8002b20:	4662      	mov	r2, ip
 8002b22:	1b55      	subs	r5, r2, r5
 8002b24:	45ac      	cmp	ip, r5
 8002b26:	4192      	sbcs	r2, r2
 8002b28:	9b02      	ldr	r3, [sp, #8]
 8002b2a:	4252      	negs	r2, r2
 8002b2c:	464f      	mov	r7, r9
 8002b2e:	1a9c      	subs	r4, r3, r2
 8002b30:	e5f6      	b.n	8002720 <__aeabi_dsub+0xc4>
 8002b32:	2d00      	cmp	r5, #0
 8002b34:	d000      	beq.n	8002b38 <__aeabi_dsub+0x4dc>
 8002b36:	e0b7      	b.n	8002ca8 <__aeabi_dsub+0x64c>
 8002b38:	2a00      	cmp	r2, #0
 8002b3a:	d100      	bne.n	8002b3e <__aeabi_dsub+0x4e2>
 8002b3c:	e0f0      	b.n	8002d20 <__aeabi_dsub+0x6c4>
 8002b3e:	2601      	movs	r6, #1
 8002b40:	400e      	ands	r6, r1
 8002b42:	4663      	mov	r3, ip
 8002b44:	9802      	ldr	r0, [sp, #8]
 8002b46:	08d9      	lsrs	r1, r3, #3
 8002b48:	0742      	lsls	r2, r0, #29
 8002b4a:	430a      	orrs	r2, r1
 8002b4c:	08c4      	lsrs	r4, r0, #3
 8002b4e:	e696      	b.n	800287e <__aeabi_dsub+0x222>
 8002b50:	4c85      	ldr	r4, [pc, #532]	@ (8002d68 <__aeabi_dsub+0x70c>)
 8002b52:	1aff      	subs	r7, r7, r3
 8002b54:	4014      	ands	r4, r2
 8002b56:	0762      	lsls	r2, r4, #29
 8002b58:	08e4      	lsrs	r4, r4, #3
 8002b5a:	e760      	b.n	8002a1e <__aeabi_dsub+0x3c2>
 8002b5c:	4981      	ldr	r1, [pc, #516]	@ (8002d64 <__aeabi_dsub+0x708>)
 8002b5e:	428a      	cmp	r2, r1
 8002b60:	d100      	bne.n	8002b64 <__aeabi_dsub+0x508>
 8002b62:	e0c9      	b.n	8002cf8 <__aeabi_dsub+0x69c>
 8002b64:	4663      	mov	r3, ip
 8002b66:	18c1      	adds	r1, r0, r3
 8002b68:	4281      	cmp	r1, r0
 8002b6a:	4180      	sbcs	r0, r0
 8002b6c:	9b02      	ldr	r3, [sp, #8]
 8002b6e:	4240      	negs	r0, r0
 8002b70:	18e3      	adds	r3, r4, r3
 8002b72:	181b      	adds	r3, r3, r0
 8002b74:	07dd      	lsls	r5, r3, #31
 8002b76:	085c      	lsrs	r4, r3, #1
 8002b78:	2307      	movs	r3, #7
 8002b7a:	0849      	lsrs	r1, r1, #1
 8002b7c:	430d      	orrs	r5, r1
 8002b7e:	0017      	movs	r7, r2
 8002b80:	402b      	ands	r3, r5
 8002b82:	e710      	b.n	80029a6 <__aeabi_dsub+0x34a>
 8002b84:	4663      	mov	r3, ip
 8002b86:	1a1d      	subs	r5, r3, r0
 8002b88:	45ac      	cmp	ip, r5
 8002b8a:	4192      	sbcs	r2, r2
 8002b8c:	2601      	movs	r6, #1
 8002b8e:	9b02      	ldr	r3, [sp, #8]
 8002b90:	4252      	negs	r2, r2
 8002b92:	1b1c      	subs	r4, r3, r4
 8002b94:	4688      	mov	r8, r1
 8002b96:	1aa4      	subs	r4, r4, r2
 8002b98:	400e      	ands	r6, r1
 8002b9a:	e5c6      	b.n	800272a <__aeabi_dsub+0xce>
 8002b9c:	4663      	mov	r3, ip
 8002b9e:	18c5      	adds	r5, r0, r3
 8002ba0:	9b02      	ldr	r3, [sp, #8]
 8002ba2:	4285      	cmp	r5, r0
 8002ba4:	4180      	sbcs	r0, r0
 8002ba6:	469c      	mov	ip, r3
 8002ba8:	4240      	negs	r0, r0
 8002baa:	4464      	add	r4, ip
 8002bac:	1824      	adds	r4, r4, r0
 8002bae:	2701      	movs	r7, #1
 8002bb0:	0223      	lsls	r3, r4, #8
 8002bb2:	d400      	bmi.n	8002bb6 <__aeabi_dsub+0x55a>
 8002bb4:	e6f5      	b.n	80029a2 <__aeabi_dsub+0x346>
 8002bb6:	2702      	movs	r7, #2
 8002bb8:	e641      	b.n	800283e <__aeabi_dsub+0x1e2>
 8002bba:	4663      	mov	r3, ip
 8002bbc:	1ac5      	subs	r5, r0, r3
 8002bbe:	42a8      	cmp	r0, r5
 8002bc0:	4180      	sbcs	r0, r0
 8002bc2:	9b02      	ldr	r3, [sp, #8]
 8002bc4:	4240      	negs	r0, r0
 8002bc6:	1ae4      	subs	r4, r4, r3
 8002bc8:	2701      	movs	r7, #1
 8002bca:	1a24      	subs	r4, r4, r0
 8002bcc:	e5a8      	b.n	8002720 <__aeabi_dsub+0xc4>
 8002bce:	9d02      	ldr	r5, [sp, #8]
 8002bd0:	4652      	mov	r2, sl
 8002bd2:	002b      	movs	r3, r5
 8002bd4:	3a20      	subs	r2, #32
 8002bd6:	40d3      	lsrs	r3, r2
 8002bd8:	0019      	movs	r1, r3
 8002bda:	4653      	mov	r3, sl
 8002bdc:	2b20      	cmp	r3, #32
 8002bde:	d006      	beq.n	8002bee <__aeabi_dsub+0x592>
 8002be0:	2240      	movs	r2, #64	@ 0x40
 8002be2:	1ad2      	subs	r2, r2, r3
 8002be4:	002b      	movs	r3, r5
 8002be6:	4093      	lsls	r3, r2
 8002be8:	4662      	mov	r2, ip
 8002bea:	431a      	orrs	r2, r3
 8002bec:	4693      	mov	fp, r2
 8002bee:	465d      	mov	r5, fp
 8002bf0:	1e6b      	subs	r3, r5, #1
 8002bf2:	419d      	sbcs	r5, r3
 8002bf4:	430d      	orrs	r5, r1
 8002bf6:	e615      	b.n	8002824 <__aeabi_dsub+0x1c8>
 8002bf8:	0762      	lsls	r2, r4, #29
 8002bfa:	08c0      	lsrs	r0, r0, #3
 8002bfc:	4302      	orrs	r2, r0
 8002bfe:	08e4      	lsrs	r4, r4, #3
 8002c00:	e70d      	b.n	8002a1e <__aeabi_dsub+0x3c2>
 8002c02:	0011      	movs	r1, r2
 8002c04:	0027      	movs	r7, r4
 8002c06:	3920      	subs	r1, #32
 8002c08:	40cf      	lsrs	r7, r1
 8002c0a:	2a20      	cmp	r2, #32
 8002c0c:	d005      	beq.n	8002c1a <__aeabi_dsub+0x5be>
 8002c0e:	2140      	movs	r1, #64	@ 0x40
 8002c10:	1a8a      	subs	r2, r1, r2
 8002c12:	4094      	lsls	r4, r2
 8002c14:	0025      	movs	r5, r4
 8002c16:	4305      	orrs	r5, r0
 8002c18:	9503      	str	r5, [sp, #12]
 8002c1a:	9d03      	ldr	r5, [sp, #12]
 8002c1c:	1e6a      	subs	r2, r5, #1
 8002c1e:	4195      	sbcs	r5, r2
 8002c20:	433d      	orrs	r5, r7
 8002c22:	e77d      	b.n	8002b20 <__aeabi_dsub+0x4c4>
 8002c24:	2a00      	cmp	r2, #0
 8002c26:	d100      	bne.n	8002c2a <__aeabi_dsub+0x5ce>
 8002c28:	e744      	b.n	8002ab4 <__aeabi_dsub+0x458>
 8002c2a:	2601      	movs	r6, #1
 8002c2c:	400e      	ands	r6, r1
 8002c2e:	4663      	mov	r3, ip
 8002c30:	08d9      	lsrs	r1, r3, #3
 8002c32:	9b02      	ldr	r3, [sp, #8]
 8002c34:	075a      	lsls	r2, r3, #29
 8002c36:	430a      	orrs	r2, r1
 8002c38:	08dc      	lsrs	r4, r3, #3
 8002c3a:	e6f0      	b.n	8002a1e <__aeabi_dsub+0x3c2>
 8002c3c:	2a00      	cmp	r2, #0
 8002c3e:	d028      	beq.n	8002c92 <__aeabi_dsub+0x636>
 8002c40:	4662      	mov	r2, ip
 8002c42:	9f02      	ldr	r7, [sp, #8]
 8002c44:	08c0      	lsrs	r0, r0, #3
 8002c46:	433a      	orrs	r2, r7
 8002c48:	d100      	bne.n	8002c4c <__aeabi_dsub+0x5f0>
 8002c4a:	e6dc      	b.n	8002a06 <__aeabi_dsub+0x3aa>
 8002c4c:	0762      	lsls	r2, r4, #29
 8002c4e:	4310      	orrs	r0, r2
 8002c50:	2280      	movs	r2, #128	@ 0x80
 8002c52:	08e4      	lsrs	r4, r4, #3
 8002c54:	0312      	lsls	r2, r2, #12
 8002c56:	4214      	tst	r4, r2
 8002c58:	d009      	beq.n	8002c6e <__aeabi_dsub+0x612>
 8002c5a:	08fd      	lsrs	r5, r7, #3
 8002c5c:	4215      	tst	r5, r2
 8002c5e:	d106      	bne.n	8002c6e <__aeabi_dsub+0x612>
 8002c60:	4663      	mov	r3, ip
 8002c62:	2601      	movs	r6, #1
 8002c64:	002c      	movs	r4, r5
 8002c66:	08d8      	lsrs	r0, r3, #3
 8002c68:	077b      	lsls	r3, r7, #29
 8002c6a:	4318      	orrs	r0, r3
 8002c6c:	400e      	ands	r6, r1
 8002c6e:	0f42      	lsrs	r2, r0, #29
 8002c70:	00c0      	lsls	r0, r0, #3
 8002c72:	08c0      	lsrs	r0, r0, #3
 8002c74:	0752      	lsls	r2, r2, #29
 8002c76:	4302      	orrs	r2, r0
 8002c78:	e601      	b.n	800287e <__aeabi_dsub+0x222>
 8002c7a:	4663      	mov	r3, ip
 8002c7c:	1a1d      	subs	r5, r3, r0
 8002c7e:	45ac      	cmp	ip, r5
 8002c80:	4192      	sbcs	r2, r2
 8002c82:	9b02      	ldr	r3, [sp, #8]
 8002c84:	4252      	negs	r2, r2
 8002c86:	1b1c      	subs	r4, r3, r4
 8002c88:	000e      	movs	r6, r1
 8002c8a:	4688      	mov	r8, r1
 8002c8c:	2701      	movs	r7, #1
 8002c8e:	1aa4      	subs	r4, r4, r2
 8002c90:	e546      	b.n	8002720 <__aeabi_dsub+0xc4>
 8002c92:	4663      	mov	r3, ip
 8002c94:	08d9      	lsrs	r1, r3, #3
 8002c96:	9b02      	ldr	r3, [sp, #8]
 8002c98:	075a      	lsls	r2, r3, #29
 8002c9a:	430a      	orrs	r2, r1
 8002c9c:	08dc      	lsrs	r4, r3, #3
 8002c9e:	e5ee      	b.n	800287e <__aeabi_dsub+0x222>
 8002ca0:	4663      	mov	r3, ip
 8002ca2:	9c02      	ldr	r4, [sp, #8]
 8002ca4:	9303      	str	r3, [sp, #12]
 8002ca6:	e6c7      	b.n	8002a38 <__aeabi_dsub+0x3dc>
 8002ca8:	08c0      	lsrs	r0, r0, #3
 8002caa:	2a00      	cmp	r2, #0
 8002cac:	d100      	bne.n	8002cb0 <__aeabi_dsub+0x654>
 8002cae:	e6aa      	b.n	8002a06 <__aeabi_dsub+0x3aa>
 8002cb0:	0762      	lsls	r2, r4, #29
 8002cb2:	4310      	orrs	r0, r2
 8002cb4:	2280      	movs	r2, #128	@ 0x80
 8002cb6:	08e4      	lsrs	r4, r4, #3
 8002cb8:	0312      	lsls	r2, r2, #12
 8002cba:	4214      	tst	r4, r2
 8002cbc:	d0d7      	beq.n	8002c6e <__aeabi_dsub+0x612>
 8002cbe:	9f02      	ldr	r7, [sp, #8]
 8002cc0:	08fd      	lsrs	r5, r7, #3
 8002cc2:	4215      	tst	r5, r2
 8002cc4:	d1d3      	bne.n	8002c6e <__aeabi_dsub+0x612>
 8002cc6:	4663      	mov	r3, ip
 8002cc8:	2601      	movs	r6, #1
 8002cca:	08d8      	lsrs	r0, r3, #3
 8002ccc:	077b      	lsls	r3, r7, #29
 8002cce:	002c      	movs	r4, r5
 8002cd0:	4318      	orrs	r0, r3
 8002cd2:	400e      	ands	r6, r1
 8002cd4:	e7cb      	b.n	8002c6e <__aeabi_dsub+0x612>
 8002cd6:	000a      	movs	r2, r1
 8002cd8:	0027      	movs	r7, r4
 8002cda:	3a20      	subs	r2, #32
 8002cdc:	40d7      	lsrs	r7, r2
 8002cde:	2920      	cmp	r1, #32
 8002ce0:	d005      	beq.n	8002cee <__aeabi_dsub+0x692>
 8002ce2:	2240      	movs	r2, #64	@ 0x40
 8002ce4:	1a52      	subs	r2, r2, r1
 8002ce6:	4094      	lsls	r4, r2
 8002ce8:	0025      	movs	r5, r4
 8002cea:	4305      	orrs	r5, r0
 8002cec:	9503      	str	r5, [sp, #12]
 8002cee:	9d03      	ldr	r5, [sp, #12]
 8002cf0:	1e6a      	subs	r2, r5, #1
 8002cf2:	4195      	sbcs	r5, r2
 8002cf4:	432f      	orrs	r7, r5
 8002cf6:	e610      	b.n	800291a <__aeabi_dsub+0x2be>
 8002cf8:	0014      	movs	r4, r2
 8002cfa:	2500      	movs	r5, #0
 8002cfc:	2200      	movs	r2, #0
 8002cfe:	e556      	b.n	80027ae <__aeabi_dsub+0x152>
 8002d00:	9b02      	ldr	r3, [sp, #8]
 8002d02:	4460      	add	r0, ip
 8002d04:	4699      	mov	r9, r3
 8002d06:	4560      	cmp	r0, ip
 8002d08:	4192      	sbcs	r2, r2
 8002d0a:	444c      	add	r4, r9
 8002d0c:	4252      	negs	r2, r2
 8002d0e:	0005      	movs	r5, r0
 8002d10:	18a4      	adds	r4, r4, r2
 8002d12:	e74c      	b.n	8002bae <__aeabi_dsub+0x552>
 8002d14:	001a      	movs	r2, r3
 8002d16:	001c      	movs	r4, r3
 8002d18:	432a      	orrs	r2, r5
 8002d1a:	d000      	beq.n	8002d1e <__aeabi_dsub+0x6c2>
 8002d1c:	e6b3      	b.n	8002a86 <__aeabi_dsub+0x42a>
 8002d1e:	e6c9      	b.n	8002ab4 <__aeabi_dsub+0x458>
 8002d20:	2480      	movs	r4, #128	@ 0x80
 8002d22:	2600      	movs	r6, #0
 8002d24:	0324      	lsls	r4, r4, #12
 8002d26:	e5ae      	b.n	8002886 <__aeabi_dsub+0x22a>
 8002d28:	2120      	movs	r1, #32
 8002d2a:	2500      	movs	r5, #0
 8002d2c:	1a09      	subs	r1, r1, r0
 8002d2e:	e517      	b.n	8002760 <__aeabi_dsub+0x104>
 8002d30:	2200      	movs	r2, #0
 8002d32:	2500      	movs	r5, #0
 8002d34:	4c0b      	ldr	r4, [pc, #44]	@ (8002d64 <__aeabi_dsub+0x708>)
 8002d36:	e53a      	b.n	80027ae <__aeabi_dsub+0x152>
 8002d38:	2d00      	cmp	r5, #0
 8002d3a:	d100      	bne.n	8002d3e <__aeabi_dsub+0x6e2>
 8002d3c:	e5f6      	b.n	800292c <__aeabi_dsub+0x2d0>
 8002d3e:	464b      	mov	r3, r9
 8002d40:	1bda      	subs	r2, r3, r7
 8002d42:	4692      	mov	sl, r2
 8002d44:	2f00      	cmp	r7, #0
 8002d46:	d100      	bne.n	8002d4a <__aeabi_dsub+0x6ee>
 8002d48:	e66f      	b.n	8002a2a <__aeabi_dsub+0x3ce>
 8002d4a:	2a38      	cmp	r2, #56	@ 0x38
 8002d4c:	dc05      	bgt.n	8002d5a <__aeabi_dsub+0x6fe>
 8002d4e:	2680      	movs	r6, #128	@ 0x80
 8002d50:	0436      	lsls	r6, r6, #16
 8002d52:	4334      	orrs	r4, r6
 8002d54:	4688      	mov	r8, r1
 8002d56:	000e      	movs	r6, r1
 8002d58:	e6d1      	b.n	8002afe <__aeabi_dsub+0x4a2>
 8002d5a:	4688      	mov	r8, r1
 8002d5c:	000e      	movs	r6, r1
 8002d5e:	2501      	movs	r5, #1
 8002d60:	e6de      	b.n	8002b20 <__aeabi_dsub+0x4c4>
 8002d62:	46c0      	nop			@ (mov r8, r8)
 8002d64:	000007ff 	.word	0x000007ff
 8002d68:	ff7fffff 	.word	0xff7fffff
 8002d6c:	000007fe 	.word	0x000007fe
 8002d70:	2d00      	cmp	r5, #0
 8002d72:	d100      	bne.n	8002d76 <__aeabi_dsub+0x71a>
 8002d74:	e668      	b.n	8002a48 <__aeabi_dsub+0x3ec>
 8002d76:	464b      	mov	r3, r9
 8002d78:	1bd9      	subs	r1, r3, r7
 8002d7a:	2f00      	cmp	r7, #0
 8002d7c:	d101      	bne.n	8002d82 <__aeabi_dsub+0x726>
 8002d7e:	468a      	mov	sl, r1
 8002d80:	e5a7      	b.n	80028d2 <__aeabi_dsub+0x276>
 8002d82:	2701      	movs	r7, #1
 8002d84:	2938      	cmp	r1, #56	@ 0x38
 8002d86:	dd00      	ble.n	8002d8a <__aeabi_dsub+0x72e>
 8002d88:	e5c7      	b.n	800291a <__aeabi_dsub+0x2be>
 8002d8a:	2280      	movs	r2, #128	@ 0x80
 8002d8c:	0412      	lsls	r2, r2, #16
 8002d8e:	4314      	orrs	r4, r2
 8002d90:	e5af      	b.n	80028f2 <__aeabi_dsub+0x296>
 8002d92:	46c0      	nop			@ (mov r8, r8)

08002d94 <__aeabi_dcmpun>:
 8002d94:	b5f0      	push	{r4, r5, r6, r7, lr}
 8002d96:	46c6      	mov	lr, r8
 8002d98:	031e      	lsls	r6, r3, #12
 8002d9a:	0b36      	lsrs	r6, r6, #12
 8002d9c:	46b0      	mov	r8, r6
 8002d9e:	4e0d      	ldr	r6, [pc, #52]	@ (8002dd4 <__aeabi_dcmpun+0x40>)
 8002da0:	030c      	lsls	r4, r1, #12
 8002da2:	004d      	lsls	r5, r1, #1
 8002da4:	005f      	lsls	r7, r3, #1
 8002da6:	b500      	push	{lr}
 8002da8:	0b24      	lsrs	r4, r4, #12
 8002daa:	0d6d      	lsrs	r5, r5, #21
 8002dac:	0d7f      	lsrs	r7, r7, #21
 8002dae:	42b5      	cmp	r5, r6
 8002db0:	d00b      	beq.n	8002dca <__aeabi_dcmpun+0x36>
 8002db2:	4908      	ldr	r1, [pc, #32]	@ (8002dd4 <__aeabi_dcmpun+0x40>)
 8002db4:	2000      	movs	r0, #0
 8002db6:	428f      	cmp	r7, r1
 8002db8:	d104      	bne.n	8002dc4 <__aeabi_dcmpun+0x30>
 8002dba:	4646      	mov	r6, r8
 8002dbc:	4316      	orrs	r6, r2
 8002dbe:	0030      	movs	r0, r6
 8002dc0:	1e43      	subs	r3, r0, #1
 8002dc2:	4198      	sbcs	r0, r3
 8002dc4:	bc80      	pop	{r7}
 8002dc6:	46b8      	mov	r8, r7
 8002dc8:	bdf0      	pop	{r4, r5, r6, r7, pc}
 8002dca:	4304      	orrs	r4, r0
 8002dcc:	2001      	movs	r0, #1
 8002dce:	2c00      	cmp	r4, #0
 8002dd0:	d1f8      	bne.n	8002dc4 <__aeabi_dcmpun+0x30>
 8002dd2:	e7ee      	b.n	8002db2 <__aeabi_dcmpun+0x1e>
 8002dd4:	000007ff 	.word	0x000007ff

08002dd8 <__aeabi_d2iz>:
 8002dd8:	000b      	movs	r3, r1
 8002dda:	0002      	movs	r2, r0
 8002ddc:	b570      	push	{r4, r5, r6, lr}
 8002dde:	4d16      	ldr	r5, [pc, #88]	@ (8002e38 <__aeabi_d2iz+0x60>)
 8002de0:	030c      	lsls	r4, r1, #12
 8002de2:	b082      	sub	sp, #8
 8002de4:	0049      	lsls	r1, r1, #1
 8002de6:	2000      	movs	r0, #0
 8002de8:	9200      	str	r2, [sp, #0]
 8002dea:	9301      	str	r3, [sp, #4]
 8002dec:	0b24      	lsrs	r4, r4, #12
 8002dee:	0d49      	lsrs	r1, r1, #21
 8002df0:	0fde      	lsrs	r6, r3, #31
 8002df2:	42a9      	cmp	r1, r5
 8002df4:	dd04      	ble.n	8002e00 <__aeabi_d2iz+0x28>
 8002df6:	4811      	ldr	r0, [pc, #68]	@ (8002e3c <__aeabi_d2iz+0x64>)
 8002df8:	4281      	cmp	r1, r0
 8002dfa:	dd03      	ble.n	8002e04 <__aeabi_d2iz+0x2c>
 8002dfc:	4b10      	ldr	r3, [pc, #64]	@ (8002e40 <__aeabi_d2iz+0x68>)
 8002dfe:	18f0      	adds	r0, r6, r3
 8002e00:	b002      	add	sp, #8
 8002e02:	bd70      	pop	{r4, r5, r6, pc}
 8002e04:	2080      	movs	r0, #128	@ 0x80
 8002e06:	0340      	lsls	r0, r0, #13
 8002e08:	4320      	orrs	r0, r4
 8002e0a:	4c0e      	ldr	r4, [pc, #56]	@ (8002e44 <__aeabi_d2iz+0x6c>)
 8002e0c:	1a64      	subs	r4, r4, r1
 8002e0e:	2c1f      	cmp	r4, #31
 8002e10:	dd08      	ble.n	8002e24 <__aeabi_d2iz+0x4c>
 8002e12:	4b0d      	ldr	r3, [pc, #52]	@ (8002e48 <__aeabi_d2iz+0x70>)
 8002e14:	1a5b      	subs	r3, r3, r1
 8002e16:	40d8      	lsrs	r0, r3
 8002e18:	0003      	movs	r3, r0
 8002e1a:	4258      	negs	r0, r3
 8002e1c:	2e00      	cmp	r6, #0
 8002e1e:	d1ef      	bne.n	8002e00 <__aeabi_d2iz+0x28>
 8002e20:	0018      	movs	r0, r3
 8002e22:	e7ed      	b.n	8002e00 <__aeabi_d2iz+0x28>
 8002e24:	4b09      	ldr	r3, [pc, #36]	@ (8002e4c <__aeabi_d2iz+0x74>)
 8002e26:	9a00      	ldr	r2, [sp, #0]
 8002e28:	469c      	mov	ip, r3
 8002e2a:	0003      	movs	r3, r0
 8002e2c:	4461      	add	r1, ip
 8002e2e:	408b      	lsls	r3, r1
 8002e30:	40e2      	lsrs	r2, r4
 8002e32:	4313      	orrs	r3, r2
 8002e34:	e7f1      	b.n	8002e1a <__aeabi_d2iz+0x42>
 8002e36:	46c0      	nop			@ (mov r8, r8)
 8002e38:	000003fe 	.word	0x000003fe
 8002e3c:	0000041d 	.word	0x0000041d
 8002e40:	7fffffff 	.word	0x7fffffff
 8002e44:	00000433 	.word	0x00000433
 8002e48:	00000413 	.word	0x00000413
 8002e4c:	fffffbed 	.word	0xfffffbed

08002e50 <__aeabi_i2d>:
 8002e50:	b570      	push	{r4, r5, r6, lr}
 8002e52:	2800      	cmp	r0, #0
 8002e54:	d016      	beq.n	8002e84 <__aeabi_i2d+0x34>
 8002e56:	17c3      	asrs	r3, r0, #31
 8002e58:	18c5      	adds	r5, r0, r3
 8002e5a:	405d      	eors	r5, r3
 8002e5c:	0fc4      	lsrs	r4, r0, #31
 8002e5e:	0028      	movs	r0, r5
 8002e60:	f000 f8f0 	bl	8003044 <__clzsi2>
 8002e64:	4b10      	ldr	r3, [pc, #64]	@ (8002ea8 <__aeabi_i2d+0x58>)
 8002e66:	1a1b      	subs	r3, r3, r0
 8002e68:	055b      	lsls	r3, r3, #21
 8002e6a:	0d5b      	lsrs	r3, r3, #21
 8002e6c:	280a      	cmp	r0, #10
 8002e6e:	dc14      	bgt.n	8002e9a <__aeabi_i2d+0x4a>
 8002e70:	0002      	movs	r2, r0
 8002e72:	002e      	movs	r6, r5
 8002e74:	3215      	adds	r2, #21
 8002e76:	4096      	lsls	r6, r2
 8002e78:	220b      	movs	r2, #11
 8002e7a:	1a12      	subs	r2, r2, r0
 8002e7c:	40d5      	lsrs	r5, r2
 8002e7e:	032d      	lsls	r5, r5, #12
 8002e80:	0b2d      	lsrs	r5, r5, #12
 8002e82:	e003      	b.n	8002e8c <__aeabi_i2d+0x3c>
 8002e84:	2400      	movs	r4, #0
 8002e86:	2300      	movs	r3, #0
 8002e88:	2500      	movs	r5, #0
 8002e8a:	2600      	movs	r6, #0
 8002e8c:	051b      	lsls	r3, r3, #20
 8002e8e:	432b      	orrs	r3, r5
 8002e90:	07e4      	lsls	r4, r4, #31
 8002e92:	4323      	orrs	r3, r4
 8002e94:	0030      	movs	r0, r6
 8002e96:	0019      	movs	r1, r3
 8002e98:	bd70      	pop	{r4, r5, r6, pc}
 8002e9a:	380b      	subs	r0, #11
 8002e9c:	4085      	lsls	r5, r0
 8002e9e:	032d      	lsls	r5, r5, #12
 8002ea0:	2600      	movs	r6, #0
 8002ea2:	0b2d      	lsrs	r5, r5, #12
 8002ea4:	e7f2      	b.n	8002e8c <__aeabi_i2d+0x3c>
 8002ea6:	46c0      	nop			@ (mov r8, r8)
 8002ea8:	0000041e 	.word	0x0000041e

08002eac <__aeabi_f2d>:
 8002eac:	b570      	push	{r4, r5, r6, lr}
 8002eae:	0242      	lsls	r2, r0, #9
 8002eb0:	0043      	lsls	r3, r0, #1
 8002eb2:	0fc4      	lsrs	r4, r0, #31
 8002eb4:	20fe      	movs	r0, #254	@ 0xfe
 8002eb6:	0e1b      	lsrs	r3, r3, #24
 8002eb8:	1c59      	adds	r1, r3, #1
 8002eba:	0a55      	lsrs	r5, r2, #9
 8002ebc:	4208      	tst	r0, r1
 8002ebe:	d00c      	beq.n	8002eda <__aeabi_f2d+0x2e>
 8002ec0:	21e0      	movs	r1, #224	@ 0xe0
 8002ec2:	0089      	lsls	r1, r1, #2
 8002ec4:	468c      	mov	ip, r1
 8002ec6:	076d      	lsls	r5, r5, #29
 8002ec8:	0b12      	lsrs	r2, r2, #12
 8002eca:	4463      	add	r3, ip
 8002ecc:	051b      	lsls	r3, r3, #20
 8002ece:	4313      	orrs	r3, r2
 8002ed0:	07e4      	lsls	r4, r4, #31
 8002ed2:	4323      	orrs	r3, r4
 8002ed4:	0028      	movs	r0, r5
 8002ed6:	0019      	movs	r1, r3
 8002ed8:	bd70      	pop	{r4, r5, r6, pc}
 8002eda:	2b00      	cmp	r3, #0
 8002edc:	d114      	bne.n	8002f08 <__aeabi_f2d+0x5c>
 8002ede:	2d00      	cmp	r5, #0
 8002ee0:	d01b      	beq.n	8002f1a <__aeabi_f2d+0x6e>
 8002ee2:	0028      	movs	r0, r5
 8002ee4:	f000 f8ae 	bl	8003044 <__clzsi2>
 8002ee8:	280a      	cmp	r0, #10
 8002eea:	dc1c      	bgt.n	8002f26 <__aeabi_f2d+0x7a>
 8002eec:	230b      	movs	r3, #11
 8002eee:	002a      	movs	r2, r5
 8002ef0:	1a1b      	subs	r3, r3, r0
 8002ef2:	40da      	lsrs	r2, r3
 8002ef4:	0003      	movs	r3, r0
 8002ef6:	3315      	adds	r3, #21
 8002ef8:	409d      	lsls	r5, r3
 8002efa:	4b0e      	ldr	r3, [pc, #56]	@ (8002f34 <__aeabi_f2d+0x88>)
 8002efc:	0312      	lsls	r2, r2, #12
 8002efe:	1a1b      	subs	r3, r3, r0
 8002f00:	055b      	lsls	r3, r3, #21
 8002f02:	0b12      	lsrs	r2, r2, #12
 8002f04:	0d5b      	lsrs	r3, r3, #21
 8002f06:	e7e1      	b.n	8002ecc <__aeabi_f2d+0x20>
 8002f08:	2d00      	cmp	r5, #0
 8002f0a:	d009      	beq.n	8002f20 <__aeabi_f2d+0x74>
 8002f0c:	0b13      	lsrs	r3, r2, #12
 8002f0e:	2280      	movs	r2, #128	@ 0x80
 8002f10:	0312      	lsls	r2, r2, #12
 8002f12:	431a      	orrs	r2, r3
 8002f14:	076d      	lsls	r5, r5, #29
 8002f16:	4b08      	ldr	r3, [pc, #32]	@ (8002f38 <__aeabi_f2d+0x8c>)
 8002f18:	e7d8      	b.n	8002ecc <__aeabi_f2d+0x20>
 8002f1a:	2300      	movs	r3, #0
 8002f1c:	2200      	movs	r2, #0
 8002f1e:	e7d5      	b.n	8002ecc <__aeabi_f2d+0x20>
 8002f20:	2200      	movs	r2, #0
 8002f22:	4b05      	ldr	r3, [pc, #20]	@ (8002f38 <__aeabi_f2d+0x8c>)
 8002f24:	e7d2      	b.n	8002ecc <__aeabi_f2d+0x20>
 8002f26:	0003      	movs	r3, r0
 8002f28:	002a      	movs	r2, r5
 8002f2a:	3b0b      	subs	r3, #11
 8002f2c:	409a      	lsls	r2, r3
 8002f2e:	2500      	movs	r5, #0
 8002f30:	e7e3      	b.n	8002efa <__aeabi_f2d+0x4e>
 8002f32:	46c0      	nop			@ (mov r8, r8)
 8002f34:	00000389 	.word	0x00000389
 8002f38:	000007ff 	.word	0x000007ff

08002f3c <__aeabi_d2f>:
 8002f3c:	b5f0      	push	{r4, r5, r6, r7, lr}
 8002f3e:	004b      	lsls	r3, r1, #1
 8002f40:	030f      	lsls	r7, r1, #12
 8002f42:	0d5b      	lsrs	r3, r3, #21
 8002f44:	4c3b      	ldr	r4, [pc, #236]	@ (8003034 <__aeabi_d2f+0xf8>)
 8002f46:	0f45      	lsrs	r5, r0, #29
 8002f48:	b083      	sub	sp, #12
 8002f4a:	0a7f      	lsrs	r7, r7, #9
 8002f4c:	1c5e      	adds	r6, r3, #1
 8002f4e:	432f      	orrs	r7, r5
 8002f50:	9000      	str	r0, [sp, #0]
 8002f52:	9101      	str	r1, [sp, #4]
 8002f54:	0fca      	lsrs	r2, r1, #31
 8002f56:	00c5      	lsls	r5, r0, #3
 8002f58:	4226      	tst	r6, r4
 8002f5a:	d00b      	beq.n	8002f74 <__aeabi_d2f+0x38>
 8002f5c:	4936      	ldr	r1, [pc, #216]	@ (8003038 <__aeabi_d2f+0xfc>)
 8002f5e:	185c      	adds	r4, r3, r1
 8002f60:	2cfe      	cmp	r4, #254	@ 0xfe
 8002f62:	dd13      	ble.n	8002f8c <__aeabi_d2f+0x50>
 8002f64:	20ff      	movs	r0, #255	@ 0xff
 8002f66:	2300      	movs	r3, #0
 8002f68:	05c0      	lsls	r0, r0, #23
 8002f6a:	4318      	orrs	r0, r3
 8002f6c:	07d2      	lsls	r2, r2, #31
 8002f6e:	4310      	orrs	r0, r2
 8002f70:	b003      	add	sp, #12
 8002f72:	bdf0      	pop	{r4, r5, r6, r7, pc}
 8002f74:	2b00      	cmp	r3, #0
 8002f76:	d102      	bne.n	8002f7e <__aeabi_d2f+0x42>
 8002f78:	2000      	movs	r0, #0
 8002f7a:	2300      	movs	r3, #0
 8002f7c:	e7f4      	b.n	8002f68 <__aeabi_d2f+0x2c>
 8002f7e:	433d      	orrs	r5, r7
 8002f80:	d0f0      	beq.n	8002f64 <__aeabi_d2f+0x28>
 8002f82:	2380      	movs	r3, #128	@ 0x80
 8002f84:	03db      	lsls	r3, r3, #15
 8002f86:	20ff      	movs	r0, #255	@ 0xff
 8002f88:	433b      	orrs	r3, r7
 8002f8a:	e7ed      	b.n	8002f68 <__aeabi_d2f+0x2c>
 8002f8c:	2c00      	cmp	r4, #0
 8002f8e:	dd14      	ble.n	8002fba <__aeabi_d2f+0x7e>
 8002f90:	9b00      	ldr	r3, [sp, #0]
 8002f92:	00ff      	lsls	r7, r7, #3
 8002f94:	019b      	lsls	r3, r3, #6
 8002f96:	1e58      	subs	r0, r3, #1
 8002f98:	4183      	sbcs	r3, r0
 8002f9a:	0f69      	lsrs	r1, r5, #29
 8002f9c:	433b      	orrs	r3, r7
 8002f9e:	430b      	orrs	r3, r1
 8002fa0:	0759      	lsls	r1, r3, #29
 8002fa2:	d041      	beq.n	8003028 <__aeabi_d2f+0xec>
 8002fa4:	210f      	movs	r1, #15
 8002fa6:	4019      	ands	r1, r3
 8002fa8:	2904      	cmp	r1, #4
 8002faa:	d028      	beq.n	8002ffe <__aeabi_d2f+0xc2>
 8002fac:	3304      	adds	r3, #4
 8002fae:	0159      	lsls	r1, r3, #5
 8002fb0:	d525      	bpl.n	8002ffe <__aeabi_d2f+0xc2>
 8002fb2:	3401      	adds	r4, #1
 8002fb4:	2300      	movs	r3, #0
 8002fb6:	b2e0      	uxtb	r0, r4
 8002fb8:	e7d6      	b.n	8002f68 <__aeabi_d2f+0x2c>
 8002fba:	0021      	movs	r1, r4
 8002fbc:	3117      	adds	r1, #23
 8002fbe:	dbdb      	blt.n	8002f78 <__aeabi_d2f+0x3c>
 8002fc0:	2180      	movs	r1, #128	@ 0x80
 8002fc2:	201e      	movs	r0, #30
 8002fc4:	0409      	lsls	r1, r1, #16
 8002fc6:	4339      	orrs	r1, r7
 8002fc8:	1b00      	subs	r0, r0, r4
 8002fca:	281f      	cmp	r0, #31
 8002fcc:	dd1b      	ble.n	8003006 <__aeabi_d2f+0xca>
 8002fce:	2602      	movs	r6, #2
 8002fd0:	4276      	negs	r6, r6
 8002fd2:	1b34      	subs	r4, r6, r4
 8002fd4:	000e      	movs	r6, r1
 8002fd6:	40e6      	lsrs	r6, r4
 8002fd8:	0034      	movs	r4, r6
 8002fda:	2820      	cmp	r0, #32
 8002fdc:	d004      	beq.n	8002fe8 <__aeabi_d2f+0xac>
 8002fde:	4817      	ldr	r0, [pc, #92]	@ (800303c <__aeabi_d2f+0x100>)
 8002fe0:	4684      	mov	ip, r0
 8002fe2:	4463      	add	r3, ip
 8002fe4:	4099      	lsls	r1, r3
 8002fe6:	430d      	orrs	r5, r1
 8002fe8:	002b      	movs	r3, r5
 8002fea:	1e59      	subs	r1, r3, #1
 8002fec:	418b      	sbcs	r3, r1
 8002fee:	4323      	orrs	r3, r4
 8002ff0:	0759      	lsls	r1, r3, #29
 8002ff2:	d015      	beq.n	8003020 <__aeabi_d2f+0xe4>
 8002ff4:	210f      	movs	r1, #15
 8002ff6:	2400      	movs	r4, #0
 8002ff8:	4019      	ands	r1, r3
 8002ffa:	2904      	cmp	r1, #4
 8002ffc:	d117      	bne.n	800302e <__aeabi_d2f+0xf2>
 8002ffe:	019b      	lsls	r3, r3, #6
 8003000:	0a5b      	lsrs	r3, r3, #9
 8003002:	b2e0      	uxtb	r0, r4
 8003004:	e7b0      	b.n	8002f68 <__aeabi_d2f+0x2c>
 8003006:	4c0e      	ldr	r4, [pc, #56]	@ (8003040 <__aeabi_d2f+0x104>)
 8003008:	191c      	adds	r4, r3, r4
 800300a:	002b      	movs	r3, r5
 800300c:	40a5      	lsls	r5, r4
 800300e:	40c3      	lsrs	r3, r0
 8003010:	40a1      	lsls	r1, r4
 8003012:	1e68      	subs	r0, r5, #1
 8003014:	4185      	sbcs	r5, r0
 8003016:	4329      	orrs	r1, r5
 8003018:	430b      	orrs	r3, r1
 800301a:	2400      	movs	r4, #0
 800301c:	0759      	lsls	r1, r3, #29
 800301e:	d1c1      	bne.n	8002fa4 <__aeabi_d2f+0x68>
 8003020:	019b      	lsls	r3, r3, #6
 8003022:	2000      	movs	r0, #0
 8003024:	0a5b      	lsrs	r3, r3, #9
 8003026:	e79f      	b.n	8002f68 <__aeabi_d2f+0x2c>
 8003028:	08db      	lsrs	r3, r3, #3
 800302a:	b2e0      	uxtb	r0, r4
 800302c:	e79c      	b.n	8002f68 <__aeabi_d2f+0x2c>
 800302e:	3304      	adds	r3, #4
 8003030:	e7e5      	b.n	8002ffe <__aeabi_d2f+0xc2>
 8003032:	46c0      	nop			@ (mov r8, r8)
 8003034:	000007fe 	.word	0x000007fe
 8003038:	fffffc80 	.word	0xfffffc80
 800303c:	fffffca2 	.word	0xfffffca2
 8003040:	fffffc82 	.word	0xfffffc82

08003044 <__clzsi2>:
 8003044:	211c      	movs	r1, #28
 8003046:	2301      	movs	r3, #1
 8003048:	041b      	lsls	r3, r3, #16
 800304a:	4298      	cmp	r0, r3
 800304c:	d301      	bcc.n	8003052 <__clzsi2+0xe>
 800304e:	0c00      	lsrs	r0, r0, #16
 8003050:	3910      	subs	r1, #16
 8003052:	0a1b      	lsrs	r3, r3, #8
 8003054:	4298      	cmp	r0, r3
 8003056:	d301      	bcc.n	800305c <__clzsi2+0x18>
 8003058:	0a00      	lsrs	r0, r0, #8
 800305a:	3908      	subs	r1, #8
 800305c:	091b      	lsrs	r3, r3, #4
 800305e:	4298      	cmp	r0, r3
 8003060:	d301      	bcc.n	8003066 <__clzsi2+0x22>
 8003062:	0900      	lsrs	r0, r0, #4
 8003064:	3904      	subs	r1, #4
 8003066:	a202      	add	r2, pc, #8	@ (adr r2, 8003070 <__clzsi2+0x2c>)
 8003068:	5c10      	ldrb	r0, [r2, r0]
 800306a:	1840      	adds	r0, r0, r1
 800306c:	4770      	bx	lr
 800306e:	46c0      	nop			@ (mov r8, r8)
 8003070:	02020304 	.word	0x02020304
 8003074:	01010101 	.word	0x01010101
	...

08003080 <MX_GPIO_Init>:
  * @brief GPIO Initialization Function
  * @param None
  * @retval None
  */
static void MX_GPIO_Init(void)
{
 8003080:	b570      	push	{r4, r5, r6, lr}
 8003082:	b086      	sub	sp, #24
  GPIO_InitTypeDef GPIO_InitStruct = {0};
 8003084:	2214      	movs	r2, #20
 8003086:	2100      	movs	r1, #0
 8003088:	a801      	add	r0, sp, #4
 800308a:	f002 fe56 	bl	8005d3a <memset>
/* USER CODE BEGIN MX_GPIO_Init_1 */
/* USER CODE END MX_GPIO_Init_1 */

  /* GPIO Ports Clock Enable */
  __HAL_RCC_GPIOA_CLK_ENABLE();
 800308e:	4b12      	ldr	r3, [pc, #72]	@ (80030d8 <MX_GPIO_Init+0x58>)
 8003090:	6b5a      	ldr	r2, [r3, #52]	@ 0x34
 8003092:	2601      	movs	r6, #1
 8003094:	4332      	orrs	r2, r6
 8003096:	635a      	str	r2, [r3, #52]	@ 0x34
 8003098:	6b5b      	ldr	r3, [r3, #52]	@ 0x34
 800309a:	4033      	ands	r3, r6
 800309c:	9300      	str	r3, [sp, #0]
 800309e:	9b00      	ldr	r3, [sp, #0]

  /*Configure GPIO pin Output Level */
  HAL_GPIO_WritePin(GPIOA, GPIO_PIN_4|GPIO_PIN_5, GPIO_PIN_RESET);
 80030a0:	24a0      	movs	r4, #160	@ 0xa0
 80030a2:	05e4      	lsls	r4, r4, #23
 80030a4:	2200      	movs	r2, #0
 80030a6:	2130      	movs	r1, #48	@ 0x30
 80030a8:	0020      	movs	r0, r4
 80030aa:	f001 fccc 	bl	8004a46 <HAL_GPIO_WritePin>

  /*Configure GPIO pins : cs2_Pin cs1_Pin cs0_Pin */
  GPIO_InitStruct.Pin = cs2_Pin|cs1_Pin|cs0_Pin;
 80030ae:	230e      	movs	r3, #14
 80030b0:	9301      	str	r3, [sp, #4]
  GPIO_InitStruct.Mode = GPIO_MODE_INPUT;
 80030b2:	2500      	movs	r5, #0
 80030b4:	9502      	str	r5, [sp, #8]
  GPIO_InitStruct.Pull = GPIO_PULLDOWN;
 80030b6:	3b0c      	subs	r3, #12
 80030b8:	9303      	str	r3, [sp, #12]
  HAL_GPIO_Init(GPIOA, &GPIO_InitStruct);
 80030ba:	a901      	add	r1, sp, #4
 80030bc:	0020      	movs	r0, r4
 80030be:	f001 fbe3 	bl	8004888 <HAL_GPIO_Init>

  /*Configure GPIO pins : PA4 PA5 */
  GPIO_InitStruct.Pin = GPIO_PIN_4|GPIO_PIN_5;
 80030c2:	2330      	movs	r3, #48	@ 0x30
 80030c4:	9301      	str	r3, [sp, #4]
  GPIO_InitStruct.Mode = GPIO_MODE_OUTPUT_PP;
 80030c6:	9602      	str	r6, [sp, #8]
  GPIO_InitStruct.Pull = GPIO_NOPULL;
 80030c8:	9503      	str	r5, [sp, #12]
  GPIO_InitStruct.Speed = GPIO_SPEED_FREQ_LOW;
 80030ca:	9504      	str	r5, [sp, #16]
  HAL_GPIO_Init(GPIOA, &GPIO_InitStruct);
 80030cc:	a901      	add	r1, sp, #4
 80030ce:	0020      	movs	r0, r4
 80030d0:	f001 fbda 	bl	8004888 <HAL_GPIO_Init>

/* USER CODE BEGIN MX_GPIO_Init_2 */
/* USER CODE END MX_GPIO_Init_2 */
}
 80030d4:	b006      	add	sp, #24
 80030d6:	bd70      	pop	{r4, r5, r6, pc}
 80030d8:	40021000 	.word	0x40021000

080030dc <MX_DMA_Init>:
{
 80030dc:	b500      	push	{lr}
 80030de:	b083      	sub	sp, #12
  __HAL_RCC_DMA1_CLK_ENABLE();
 80030e0:	4a09      	ldr	r2, [pc, #36]	@ (8003108 <MX_DMA_Init+0x2c>)
 80030e2:	6b91      	ldr	r1, [r2, #56]	@ 0x38
 80030e4:	2301      	movs	r3, #1
 80030e6:	4319      	orrs	r1, r3
 80030e8:	6391      	str	r1, [r2, #56]	@ 0x38
 80030ea:	6b92      	ldr	r2, [r2, #56]	@ 0x38
 80030ec:	4013      	ands	r3, r2
 80030ee:	9301      	str	r3, [sp, #4]
 80030f0:	9b01      	ldr	r3, [sp, #4]
  HAL_NVIC_SetPriority(DMA1_Channel1_IRQn, 0, 0);
 80030f2:	2200      	movs	r2, #0
 80030f4:	2100      	movs	r1, #0
 80030f6:	2009      	movs	r0, #9
 80030f8:	f001 fa10 	bl	800451c <HAL_NVIC_SetPriority>
  HAL_NVIC_EnableIRQ(DMA1_Channel1_IRQn);
 80030fc:	2009      	movs	r0, #9
 80030fe:	f001 fa11 	bl	8004524 <HAL_NVIC_EnableIRQ>
}
 8003102:	b003      	add	sp, #12
 8003104:	bd00      	pop	{pc}
 8003106:	46c0      	nop			@ (mov r8, r8)
 8003108:	40021000 	.word	0x40021000

0800310c <HAL_ADC_ConvCpltCallback>:
{
 800310c:	b510      	push	{r4, lr}
	convCompleted = 1;
 800310e:	4b06      	ldr	r3, [pc, #24]	@ (8003128 <HAL_ADC_ConvCpltCallback+0x1c>)
 8003110:	2201      	movs	r2, #1
 8003112:	701a      	strb	r2, [r3, #0]
	HAL_GPIO_TogglePin(GPIOA, GPIO_PIN_5);
 8003114:	20a0      	movs	r0, #160	@ 0xa0
 8003116:	2120      	movs	r1, #32
 8003118:	05c0      	lsls	r0, r0, #23
 800311a:	f001 fc9a 	bl	8004a52 <HAL_GPIO_TogglePin>
	HAL_ADC_Stop_DMA(&hadc1);
 800311e:	4803      	ldr	r0, [pc, #12]	@ (800312c <HAL_ADC_ConvCpltCallback+0x20>)
 8003120:	f001 f96e 	bl	8004400 <HAL_ADC_Stop_DMA>
}
 8003124:	bd10      	pop	{r4, pc}
 8003126:	46c0      	nop			@ (mov r8, r8)
 8003128:	2000007c 	.word	0x2000007c
 800312c:	200001c8 	.word	0x200001c8

08003130 <HAL_TIM_PeriodElapsedCallback>:
	{
 8003130:	b5f8      	push	{r3, r4, r5, r6, r7, lr}
		 if(htim->Instance==TIM14)
 8003132:	6802      	ldr	r2, [r0, #0]
 8003134:	4b4d      	ldr	r3, [pc, #308]	@ (800326c <HAL_TIM_PeriodElapsedCallback+0x13c>)
 8003136:	429a      	cmp	r2, r3
 8003138:	d000      	beq.n	800313c <HAL_TIM_PeriodElapsedCallback+0xc>
	}
 800313a:	bdf8      	pop	{r3, r4, r5, r6, r7, pc}
			 	  	  ratio = (float)ntc_filt/4096.0;
 800313c:	4b4c      	ldr	r3, [pc, #304]	@ (8003270 <HAL_TIM_PeriodElapsedCallback+0x140>)
 800313e:	8818      	ldrh	r0, [r3, #0]
 8003140:	f7fd ffda 	bl	80010f8 <__aeabi_ui2f>
 8003144:	21e6      	movs	r1, #230	@ 0xe6
 8003146:	0589      	lsls	r1, r1, #22
 8003148:	f7fd fc88 	bl	8000a5c <__aeabi_fmul>
 800314c:	1c04      	adds	r4, r0, #0
 800314e:	4b49      	ldr	r3, [pc, #292]	@ (8003274 <HAL_TIM_PeriodElapsedCallback+0x144>)
 8003150:	6018      	str	r0, [r3, #0]
			 	  	  ntc_resistance = 10000 * (1-ratio)/ ratio;
 8003152:	1c01      	adds	r1, r0, #0
 8003154:	20fe      	movs	r0, #254	@ 0xfe
 8003156:	0580      	lsls	r0, r0, #22
 8003158:	f7fd fdbe 	bl	8000cd8 <__aeabi_fsub>
 800315c:	4946      	ldr	r1, [pc, #280]	@ (8003278 <HAL_TIM_PeriodElapsedCallback+0x148>)
 800315e:	f7fd fc7d 	bl	8000a5c <__aeabi_fmul>
 8003162:	1c21      	adds	r1, r4, #0
 8003164:	f7fd fa94 	bl	8000690 <__aeabi_fdiv>
 8003168:	4b44      	ldr	r3, [pc, #272]	@ (800327c <HAL_TIM_PeriodElapsedCallback+0x14c>)
 800316a:	6018      	str	r0, [r3, #0]
			 	  	  T =  1 / ((1 / T25) + ((log(ntc_resistance / R25)) / BETA));
 800316c:	4942      	ldr	r1, [pc, #264]	@ (8003278 <HAL_TIM_PeriodElapsedCallback+0x148>)
 800316e:	f7fd fa8f 	bl	8000690 <__aeabi_fdiv>
 8003172:	f7ff fe9b 	bl	8002eac <__aeabi_f2d>
 8003176:	f002 fe13 	bl	8005da0 <log>
 800317a:	2200      	movs	r2, #0
 800317c:	4b40      	ldr	r3, [pc, #256]	@ (8003280 <HAL_TIM_PeriodElapsedCallback+0x150>)
 800317e:	f7fe fb61 	bl	8001844 <__aeabi_ddiv>
 8003182:	22e0      	movs	r2, #224	@ 0xe0
 8003184:	0612      	lsls	r2, r2, #24
 8003186:	4b3f      	ldr	r3, [pc, #252]	@ (8003284 <HAL_TIM_PeriodElapsedCallback+0x154>)
 8003188:	f7fd fff8 	bl	800117c <__aeabi_dadd>
 800318c:	0002      	movs	r2, r0
 800318e:	000b      	movs	r3, r1
 8003190:	2000      	movs	r0, #0
 8003192:	493d      	ldr	r1, [pc, #244]	@ (8003288 <HAL_TIM_PeriodElapsedCallback+0x158>)
 8003194:	f7fe fb56 	bl	8001844 <__aeabi_ddiv>
 8003198:	f7ff fed0 	bl	8002f3c <__aeabi_d2f>
 800319c:	4b3b      	ldr	r3, [pc, #236]	@ (800328c <HAL_TIM_PeriodElapsedCallback+0x15c>)
 800319e:	6018      	str	r0, [r3, #0]
			 	  	  ntc_temp = T - 273.15; // Converting kelvin to celsius
 80031a0:	f7ff fe84 	bl	8002eac <__aeabi_f2d>
 80031a4:	4a3a      	ldr	r2, [pc, #232]	@ (8003290 <HAL_TIM_PeriodElapsedCallback+0x160>)
 80031a6:	4b3b      	ldr	r3, [pc, #236]	@ (8003294 <HAL_TIM_PeriodElapsedCallback+0x164>)
 80031a8:	f7ff fa58 	bl	800265c <__aeabi_dsub>
 80031ac:	f7ff fec6 	bl	8002f3c <__aeabi_d2f>
 80031b0:	1c04      	adds	r4, r0, #0
 80031b2:	4b39      	ldr	r3, [pc, #228]	@ (8003298 <HAL_TIM_PeriodElapsedCallback+0x168>)
 80031b4:	6018      	str	r0, [r3, #0]
			 	  	  if (ntc_temp > START_DERATING && ntc_temp < STOP_DERATING){
 80031b6:	4939      	ldr	r1, [pc, #228]	@ (800329c <HAL_TIM_PeriodElapsedCallback+0x16c>)
 80031b8:	f7fd f896 	bl	80002e8 <__aeabi_fcmpgt>
 80031bc:	2800      	cmp	r0, #0
 80031be:	d046      	beq.n	800324e <HAL_TIM_PeriodElapsedCallback+0x11e>
 80031c0:	4937      	ldr	r1, [pc, #220]	@ (80032a0 <HAL_TIM_PeriodElapsedCallback+0x170>)
 80031c2:	1c20      	adds	r0, r4, #0
 80031c4:	f7fd f87c 	bl	80002c0 <__aeabi_fcmplt>
 80031c8:	2800      	cmp	r0, #0
 80031ca:	d040      	beq.n	800324e <HAL_TIM_PeriodElapsedCallback+0x11e>
			 	  		  if (otp_flag == 1){
 80031cc:	4b35      	ldr	r3, [pc, #212]	@ (80032a4 <HAL_TIM_PeriodElapsedCallback+0x174>)
 80031ce:	881b      	ldrh	r3, [r3, #0]
 80031d0:	2b01      	cmp	r3, #1
 80031d2:	d042      	beq.n	800325a <HAL_TIM_PeriodElapsedCallback+0x12a>
			 				 percent_derating = ntc_temp * ORDINATE + ABSCISSA;
 80031d4:	4934      	ldr	r1, [pc, #208]	@ (80032a8 <HAL_TIM_PeriodElapsedCallback+0x178>)
 80031d6:	1c20      	adds	r0, r4, #0
 80031d8:	f7fd fc40 	bl	8000a5c <__aeabi_fmul>
 80031dc:	4933      	ldr	r1, [pc, #204]	@ (80032ac <HAL_TIM_PeriodElapsedCallback+0x17c>)
 80031de:	f7fd f8cd 	bl	800037c <__aeabi_fadd>
 80031e2:	4b33      	ldr	r3, [pc, #204]	@ (80032b0 <HAL_TIM_PeriodElapsedCallback+0x180>)
 80031e4:	6018      	str	r0, [r3, #0]
			 				 if(percent_derating > 1)percent_derating = 1;
 80031e6:	21fe      	movs	r1, #254	@ 0xfe
 80031e8:	0589      	lsls	r1, r1, #22
 80031ea:	f7fd f87d 	bl	80002e8 <__aeabi_fcmpgt>
 80031ee:	2800      	cmp	r0, #0
 80031f0:	d003      	beq.n	80031fa <HAL_TIM_PeriodElapsedCallback+0xca>
 80031f2:	4b2f      	ldr	r3, [pc, #188]	@ (80032b0 <HAL_TIM_PeriodElapsedCallback+0x180>)
 80031f4:	22fe      	movs	r2, #254	@ 0xfe
 80031f6:	0592      	lsls	r2, r2, #22
 80031f8:	601a      	str	r2, [r3, #0]
			 				 otp_duty_cycle = (over_temp_duty_cycle * percent_derating);
 80031fa:	4b2e      	ldr	r3, [pc, #184]	@ (80032b4 <HAL_TIM_PeriodElapsedCallback+0x184>)
 80031fc:	8818      	ldrh	r0, [r3, #0]
 80031fe:	f7fd ff2f 	bl	8001060 <__aeabi_i2f>
 8003202:	4b2b      	ldr	r3, [pc, #172]	@ (80032b0 <HAL_TIM_PeriodElapsedCallback+0x180>)
 8003204:	6819      	ldr	r1, [r3, #0]
 8003206:	f7fd fc29 	bl	8000a5c <__aeabi_fmul>
 800320a:	4b2b      	ldr	r3, [pc, #172]	@ (80032b8 <HAL_TIM_PeriodElapsedCallback+0x188>)
 800320c:	6018      	str	r0, [r3, #0]
			 				otp_duty_cycle_sum -= otp_circ_buf[otp_circ_buf_ptr]; // Subtract the oldest value from the sum.
 800320e:	4c2b      	ldr	r4, [pc, #172]	@ (80032bc <HAL_TIM_PeriodElapsedCallback+0x18c>)
 8003210:	8823      	ldrh	r3, [r4, #0]
 8003212:	4e2b      	ldr	r6, [pc, #172]	@ (80032c0 <HAL_TIM_PeriodElapsedCallback+0x190>)
 8003214:	009b      	lsls	r3, r3, #2
 8003216:	599a      	ldr	r2, [r3, r6]
 8003218:	4d2a      	ldr	r5, [pc, #168]	@ (80032c4 <HAL_TIM_PeriodElapsedCallback+0x194>)
 800321a:	682b      	ldr	r3, [r5, #0]
 800321c:	1a9b      	subs	r3, r3, r2
 800321e:	602b      	str	r3, [r5, #0]
			 				otp_circ_buf[otp_circ_buf_ptr] = otp_duty_cycle; // Place the input in the filter register.
 8003220:	8827      	ldrh	r7, [r4, #0]
 8003222:	b2bf      	uxth	r7, r7
 8003224:	f7fd f874 	bl	8000310 <__aeabi_f2uiz>
 8003228:	00bf      	lsls	r7, r7, #2
 800322a:	51b8      	str	r0, [r7, r6]
			 				otp_duty_cycle_sum += otp_circ_buf[otp_circ_buf_ptr++]; // Ad the newest value to the sum.
 800322c:	8823      	ldrh	r3, [r4, #0]
 800322e:	1c5a      	adds	r2, r3, #1
 8003230:	b292      	uxth	r2, r2
 8003232:	8022      	strh	r2, [r4, #0]
 8003234:	009b      	lsls	r3, r3, #2
 8003236:	599a      	ldr	r2, [r3, r6]
 8003238:	682b      	ldr	r3, [r5, #0]
 800323a:	189b      	adds	r3, r3, r2
 800323c:	602b      	str	r3, [r5, #0]
			 				otp_circ_buf_ptr %= N(K); // Increment the buffer keeping it in the range 0 to N-1;
 800323e:	8823      	ldrh	r3, [r4, #0]
 8003240:	2207      	movs	r2, #7
 8003242:	4013      	ands	r3, r2
 8003244:	8023      	strh	r3, [r4, #0]
			 				duty_cycle_setpoint = (uint16_t)(otp_duty_cycle_sum>>K);
 8003246:	682b      	ldr	r3, [r5, #0]
 8003248:	08db      	lsrs	r3, r3, #3
 800324a:	4a1f      	ldr	r2, [pc, #124]	@ (80032c8 <HAL_TIM_PeriodElapsedCallback+0x198>)
 800324c:	8013      	strh	r3, [r2, #0]
			 			 HAL_GPIO_TogglePin(GPIOA, GPIO_PIN_4);
 800324e:	20a0      	movs	r0, #160	@ 0xa0
 8003250:	2110      	movs	r1, #16
 8003252:	05c0      	lsls	r0, r0, #23
 8003254:	f001 fbfd 	bl	8004a52 <HAL_GPIO_TogglePin>
	}
 8003258:	e76f      	b.n	800313a <HAL_TIM_PeriodElapsedCallback+0xa>
			 				 over_temp_duty_cycle = duty_cycle_setpoint;
 800325a:	4b16      	ldr	r3, [pc, #88]	@ (80032b4 <HAL_TIM_PeriodElapsedCallback+0x184>)
 800325c:	4a1a      	ldr	r2, [pc, #104]	@ (80032c8 <HAL_TIM_PeriodElapsedCallback+0x198>)
 800325e:	8812      	ldrh	r2, [r2, #0]
 8003260:	801a      	strh	r2, [r3, #0]
			 				 otp_flag = 0;
 8003262:	4b10      	ldr	r3, [pc, #64]	@ (80032a4 <HAL_TIM_PeriodElapsedCallback+0x174>)
 8003264:	2200      	movs	r2, #0
 8003266:	801a      	strh	r2, [r3, #0]
 8003268:	e7b4      	b.n	80031d4 <HAL_TIM_PeriodElapsedCallback+0xa4>
 800326a:	46c0      	nop			@ (mov r8, r8)
 800326c:	40002000 	.word	0x40002000
 8003270:	200002d6 	.word	0x200002d6
 8003274:	20000240 	.word	0x20000240
 8003278:	461c4000 	.word	0x461c4000
 800327c:	20000244 	.word	0x20000244
 8003280:	40b18000 	.word	0x40b18000
 8003284:	3f6b79e1 	.word	0x3f6b79e1
 8003288:	3ff00000 	.word	0x3ff00000
 800328c:	2000023c 	.word	0x2000023c
 8003290:	66666666 	.word	0x66666666
 8003294:	40711266 	.word	0x40711266
 8003298:	20000248 	.word	0x20000248
 800329c:	42700000 	.word	0x42700000
 80032a0:	42a00000 	.word	0x42a00000
 80032a4:	20000000 	.word	0x20000000
 80032a8:	bcd91687 	.word	0xbcd91687
 80032ac:	4029999a 	.word	0x4029999a
 80032b0:	20000230 	.word	0x20000230
 80032b4:	200002c8 	.word	0x200002c8
 80032b8:	20000238 	.word	0x20000238
 80032bc:	2000024c 	.word	0x2000024c
 80032c0:	2000025c 	.word	0x2000025c
 80032c4:	20000250 	.word	0x20000250
 80032c8:	200002ca 	.word	0x200002ca

080032cc <Error_Handler>:
  \details Disables IRQ interrupts by setting special-purpose register PRIMASK.
           Can only be executed in Privileged modes.
 */
__STATIC_FORCEINLINE void __disable_irq(void)
{
  __ASM volatile ("cpsid i" : : : "memory");
 80032cc:	b672      	cpsid	i
void Error_Handler(void)
{
  /* USER CODE BEGIN Error_Handler_Debug */
  /* User can add his own implementation to report the HAL error return state */
  __disable_irq();
  while (1)
 80032ce:	e7fe      	b.n	80032ce <Error_Handler+0x2>

080032d0 <MX_ADC1_Init>:
{
 80032d0:	b500      	push	{lr}
 80032d2:	b085      	sub	sp, #20
  ADC_ChannelConfTypeDef sConfig = {0};
 80032d4:	220c      	movs	r2, #12
 80032d6:	2100      	movs	r1, #0
 80032d8:	a801      	add	r0, sp, #4
 80032da:	f002 fd2e 	bl	8005d3a <memset>
  hadc1.Instance = ADC1;
 80032de:	4829      	ldr	r0, [pc, #164]	@ (8003384 <MX_ADC1_Init+0xb4>)
 80032e0:	4b29      	ldr	r3, [pc, #164]	@ (8003388 <MX_ADC1_Init+0xb8>)
 80032e2:	6003      	str	r3, [r0, #0]
  hadc1.Init.ClockPrescaler = ADC_CLOCK_SYNC_PCLK_DIV2;
 80032e4:	2380      	movs	r3, #128	@ 0x80
 80032e6:	05db      	lsls	r3, r3, #23
 80032e8:	6043      	str	r3, [r0, #4]
  hadc1.Init.Resolution = ADC_RESOLUTION_12B;
 80032ea:	2300      	movs	r3, #0
 80032ec:	6083      	str	r3, [r0, #8]
  hadc1.Init.DataAlign = ADC_DATAALIGN_RIGHT;
 80032ee:	60c3      	str	r3, [r0, #12]
  hadc1.Init.ScanConvMode = ADC_SCAN_ENABLE;
 80032f0:	2280      	movs	r2, #128	@ 0x80
 80032f2:	0392      	lsls	r2, r2, #14
 80032f4:	6102      	str	r2, [r0, #16]
  hadc1.Init.EOCSelection = ADC_EOC_SEQ_CONV;
 80032f6:	2208      	movs	r2, #8
 80032f8:	6142      	str	r2, [r0, #20]
  hadc1.Init.LowPowerAutoWait = DISABLE;
 80032fa:	7603      	strb	r3, [r0, #24]
  hadc1.Init.LowPowerAutoPowerOff = DISABLE;
 80032fc:	7643      	strb	r3, [r0, #25]
  hadc1.Init.ContinuousConvMode = DISABLE;
 80032fe:	7683      	strb	r3, [r0, #26]
  hadc1.Init.NbrOfConversion = 3;
 8003300:	3a05      	subs	r2, #5
 8003302:	61c2      	str	r2, [r0, #28]
  hadc1.Init.DiscontinuousConvMode = DISABLE;
 8003304:	321d      	adds	r2, #29
 8003306:	5483      	strb	r3, [r0, r2]
  hadc1.Init.ExternalTrigConv = ADC_EXTERNALTRIG_T3_TRGO;
 8003308:	2298      	movs	r2, #152	@ 0x98
 800330a:	00d2      	lsls	r2, r2, #3
 800330c:	6242      	str	r2, [r0, #36]	@ 0x24
  hadc1.Init.ExternalTrigConvEdge = ADC_EXTERNALTRIGCONVEDGE_RISING;
 800330e:	3ac0      	subs	r2, #192	@ 0xc0
 8003310:	6282      	str	r2, [r0, #40]	@ 0x28
  hadc1.Init.DMAContinuousRequests = ENABLE;
 8003312:	222c      	movs	r2, #44	@ 0x2c
 8003314:	2101      	movs	r1, #1
 8003316:	5481      	strb	r1, [r0, r2]
  hadc1.Init.Overrun = ADC_OVR_DATA_PRESERVED;
 8003318:	6303      	str	r3, [r0, #48]	@ 0x30
  hadc1.Init.SamplingTimeCommon1 = ADC_SAMPLETIME_79CYCLES_5;
 800331a:	3a26      	subs	r2, #38	@ 0x26
 800331c:	6342      	str	r2, [r0, #52]	@ 0x34
  hadc1.Init.SamplingTimeCommon2 = ADC_SAMPLETIME_19CYCLES_5;
 800331e:	3a02      	subs	r2, #2
 8003320:	6382      	str	r2, [r0, #56]	@ 0x38
  hadc1.Init.OversamplingMode = DISABLE;
 8003322:	3238      	adds	r2, #56	@ 0x38
 8003324:	5483      	strb	r3, [r0, r2]
  hadc1.Init.TriggerFrequencyMode = ADC_TRIGGER_FREQ_HIGH;
 8003326:	64c3      	str	r3, [r0, #76]	@ 0x4c
  if (HAL_ADC_Init(&hadc1) != HAL_OK)
 8003328:	f000 fc82 	bl	8003c30 <HAL_ADC_Init>
 800332c:	2800      	cmp	r0, #0
 800332e:	d120      	bne.n	8003372 <MX_ADC1_Init+0xa2>
  sConfig.Channel = ADC_CHANNEL_8;
 8003330:	4b16      	ldr	r3, [pc, #88]	@ (800338c <MX_ADC1_Init+0xbc>)
 8003332:	9301      	str	r3, [sp, #4]
  sConfig.Rank = ADC_REGULAR_RANK_1;
 8003334:	2300      	movs	r3, #0
 8003336:	9302      	str	r3, [sp, #8]
  sConfig.SamplingTime = ADC_SAMPLINGTIME_COMMON_1;
 8003338:	9303      	str	r3, [sp, #12]
  if (HAL_ADC_ConfigChannel(&hadc1, &sConfig) != HAL_OK)
 800333a:	4812      	ldr	r0, [pc, #72]	@ (8003384 <MX_ADC1_Init+0xb4>)
 800333c:	a901      	add	r1, sp, #4
 800333e:	f000 fdeb 	bl	8003f18 <HAL_ADC_ConfigChannel>
 8003342:	2800      	cmp	r0, #0
 8003344:	d117      	bne.n	8003376 <MX_ADC1_Init+0xa6>
  sConfig.Channel = ADC_CHANNEL_7;
 8003346:	4b12      	ldr	r3, [pc, #72]	@ (8003390 <MX_ADC1_Init+0xc0>)
 8003348:	9301      	str	r3, [sp, #4]
  sConfig.Rank = ADC_REGULAR_RANK_2;
 800334a:	2304      	movs	r3, #4
 800334c:	9302      	str	r3, [sp, #8]
  if (HAL_ADC_ConfigChannel(&hadc1, &sConfig) != HAL_OK)
 800334e:	480d      	ldr	r0, [pc, #52]	@ (8003384 <MX_ADC1_Init+0xb4>)
 8003350:	a901      	add	r1, sp, #4
 8003352:	f000 fde1 	bl	8003f18 <HAL_ADC_ConfigChannel>
 8003356:	2800      	cmp	r0, #0
 8003358:	d10f      	bne.n	800337a <MX_ADC1_Init+0xaa>
  sConfig.Channel = ADC_CHANNEL_TEMPSENSOR;
 800335a:	4b0e      	ldr	r3, [pc, #56]	@ (8003394 <MX_ADC1_Init+0xc4>)
 800335c:	9301      	str	r3, [sp, #4]
  sConfig.Rank = ADC_REGULAR_RANK_3;
 800335e:	2308      	movs	r3, #8
 8003360:	9302      	str	r3, [sp, #8]
  if (HAL_ADC_ConfigChannel(&hadc1, &sConfig) != HAL_OK)
 8003362:	4808      	ldr	r0, [pc, #32]	@ (8003384 <MX_ADC1_Init+0xb4>)
 8003364:	a901      	add	r1, sp, #4
 8003366:	f000 fdd7 	bl	8003f18 <HAL_ADC_ConfigChannel>
 800336a:	2800      	cmp	r0, #0
 800336c:	d107      	bne.n	800337e <MX_ADC1_Init+0xae>
}
 800336e:	b005      	add	sp, #20
 8003370:	bd00      	pop	{pc}
    Error_Handler();
 8003372:	f7ff ffab 	bl	80032cc <Error_Handler>
    Error_Handler();
 8003376:	f7ff ffa9 	bl	80032cc <Error_Handler>
    Error_Handler();
 800337a:	f7ff ffa7 	bl	80032cc <Error_Handler>
    Error_Handler();
 800337e:	f7ff ffa5 	bl	80032cc <Error_Handler>
 8003382:	46c0      	nop			@ (mov r8, r8)
 8003384:	200001c8 	.word	0x200001c8
 8003388:	40012400 	.word	0x40012400
 800338c:	20000100 	.word	0x20000100
 8003390:	1c000080 	.word	0x1c000080
 8003394:	a4000200 	.word	0xa4000200

08003398 <MX_TIM1_Init>:
{
 8003398:	b500      	push	{lr}
 800339a:	b09d      	sub	sp, #116	@ 0x74
  TIM_ClockConfigTypeDef sClockSourceConfig = {0};
 800339c:	2210      	movs	r2, #16
 800339e:	2100      	movs	r1, #0
 80033a0:	a818      	add	r0, sp, #96	@ 0x60
 80033a2:	f002 fcca 	bl	8005d3a <memset>
  TIM_MasterConfigTypeDef sMasterConfig = {0};
 80033a6:	220c      	movs	r2, #12
 80033a8:	2100      	movs	r1, #0
 80033aa:	a815      	add	r0, sp, #84	@ 0x54
 80033ac:	f002 fcc5 	bl	8005d3a <memset>
  TIM_OC_InitTypeDef sConfigOC = {0};
 80033b0:	221c      	movs	r2, #28
 80033b2:	2100      	movs	r1, #0
 80033b4:	a80e      	add	r0, sp, #56	@ 0x38
 80033b6:	f002 fcc0 	bl	8005d3a <memset>
  TIM_BreakDeadTimeConfigTypeDef sBreakDeadTimeConfig = {0};
 80033ba:	2234      	movs	r2, #52	@ 0x34
 80033bc:	2100      	movs	r1, #0
 80033be:	a801      	add	r0, sp, #4
 80033c0:	f002 fcbb 	bl	8005d3a <memset>
  htim1.Instance = TIM1;
 80033c4:	4830      	ldr	r0, [pc, #192]	@ (8003488 <MX_TIM1_Init+0xf0>)
 80033c6:	4b31      	ldr	r3, [pc, #196]	@ (800348c <MX_TIM1_Init+0xf4>)
 80033c8:	6003      	str	r3, [r0, #0]
  htim1.Init.Prescaler = 0;
 80033ca:	2300      	movs	r3, #0
 80033cc:	6043      	str	r3, [r0, #4]
  htim1.Init.CounterMode = TIM_COUNTERMODE_UP;
 80033ce:	6083      	str	r3, [r0, #8]
  htim1.Init.Period = 8192;
 80033d0:	2280      	movs	r2, #128	@ 0x80
 80033d2:	0192      	lsls	r2, r2, #6
 80033d4:	60c2      	str	r2, [r0, #12]
  htim1.Init.ClockDivision = TIM_CLOCKDIVISION_DIV1;
 80033d6:	6103      	str	r3, [r0, #16]
  htim1.Init.RepetitionCounter = 0;
 80033d8:	6143      	str	r3, [r0, #20]
  htim1.Init.AutoReloadPreload = TIM_AUTORELOAD_PRELOAD_DISABLE;
 80033da:	6183      	str	r3, [r0, #24]
  if (HAL_TIM_Base_Init(&htim1) != HAL_OK)
 80033dc:	f002 f8a6 	bl	800552c <HAL_TIM_Base_Init>
 80033e0:	2800      	cmp	r0, #0
 80033e2:	d145      	bne.n	8003470 <MX_TIM1_Init+0xd8>
  sClockSourceConfig.ClockSource = TIM_CLOCKSOURCE_INTERNAL;
 80033e4:	2380      	movs	r3, #128	@ 0x80
 80033e6:	015b      	lsls	r3, r3, #5
 80033e8:	9318      	str	r3, [sp, #96]	@ 0x60
  if (HAL_TIM_ConfigClockSource(&htim1, &sClockSourceConfig) != HAL_OK)
 80033ea:	4827      	ldr	r0, [pc, #156]	@ (8003488 <MX_TIM1_Init+0xf0>)
 80033ec:	a918      	add	r1, sp, #96	@ 0x60
 80033ee:	f002 fa4d 	bl	800588c <HAL_TIM_ConfigClockSource>
 80033f2:	2800      	cmp	r0, #0
 80033f4:	d13e      	bne.n	8003474 <MX_TIM1_Init+0xdc>
  if (HAL_TIM_PWM_Init(&htim1) != HAL_OK)
 80033f6:	4824      	ldr	r0, [pc, #144]	@ (8003488 <MX_TIM1_Init+0xf0>)
 80033f8:	f002 f8f8 	bl	80055ec <HAL_TIM_PWM_Init>
 80033fc:	2800      	cmp	r0, #0
 80033fe:	d13b      	bne.n	8003478 <MX_TIM1_Init+0xe0>
  sMasterConfig.MasterOutputTrigger = TIM_TRGO_RESET;
 8003400:	2300      	movs	r3, #0
 8003402:	9315      	str	r3, [sp, #84]	@ 0x54
  sMasterConfig.MasterOutputTrigger2 = TIM_TRGO2_RESET;
 8003404:	9316      	str	r3, [sp, #88]	@ 0x58
  sMasterConfig.MasterSlaveMode = TIM_MASTERSLAVEMODE_DISABLE;
 8003406:	9317      	str	r3, [sp, #92]	@ 0x5c
  if (HAL_TIMEx_MasterConfigSynchronization(&htim1, &sMasterConfig) != HAL_OK)
 8003408:	481f      	ldr	r0, [pc, #124]	@ (8003488 <MX_TIM1_Init+0xf0>)
 800340a:	a915      	add	r1, sp, #84	@ 0x54
 800340c:	f002 fbf4 	bl	8005bf8 <HAL_TIMEx_MasterConfigSynchronization>
 8003410:	2800      	cmp	r0, #0
 8003412:	d133      	bne.n	800347c <MX_TIM1_Init+0xe4>
  sConfigOC.OCMode = TIM_OCMODE_PWM1;
 8003414:	2360      	movs	r3, #96	@ 0x60
 8003416:	930e      	str	r3, [sp, #56]	@ 0x38
  sConfigOC.Pulse = 0;
 8003418:	2300      	movs	r3, #0
 800341a:	930f      	str	r3, [sp, #60]	@ 0x3c
  sConfigOC.OCPolarity = TIM_OCPOLARITY_LOW;
 800341c:	2202      	movs	r2, #2
 800341e:	9210      	str	r2, [sp, #64]	@ 0x40
  sConfigOC.OCNPolarity = TIM_OCNPOLARITY_HIGH;
 8003420:	9311      	str	r3, [sp, #68]	@ 0x44
  sConfigOC.OCFastMode = TIM_OCFAST_DISABLE;
 8003422:	9312      	str	r3, [sp, #72]	@ 0x48
  sConfigOC.OCIdleState = TIM_OCIDLESTATE_RESET;
 8003424:	9313      	str	r3, [sp, #76]	@ 0x4c
  sConfigOC.OCNIdleState = TIM_OCNIDLESTATE_RESET;
 8003426:	9314      	str	r3, [sp, #80]	@ 0x50
  if (HAL_TIM_PWM_ConfigChannel(&htim1, &sConfigOC, TIM_CHANNEL_1) != HAL_OK)
 8003428:	4817      	ldr	r0, [pc, #92]	@ (8003488 <MX_TIM1_Init+0xf0>)
 800342a:	2200      	movs	r2, #0
 800342c:	a90e      	add	r1, sp, #56	@ 0x38
 800342e:	f002 f97f 	bl	8005730 <HAL_TIM_PWM_ConfigChannel>
 8003432:	2800      	cmp	r0, #0
 8003434:	d124      	bne.n	8003480 <MX_TIM1_Init+0xe8>
  sBreakDeadTimeConfig.OffStateRunMode = TIM_OSSR_DISABLE;
 8003436:	2300      	movs	r3, #0
 8003438:	9301      	str	r3, [sp, #4]
  sBreakDeadTimeConfig.OffStateIDLEMode = TIM_OSSI_DISABLE;
 800343a:	9302      	str	r3, [sp, #8]
  sBreakDeadTimeConfig.LockLevel = TIM_LOCKLEVEL_OFF;
 800343c:	9303      	str	r3, [sp, #12]
  sBreakDeadTimeConfig.DeadTime = 0;
 800343e:	9304      	str	r3, [sp, #16]
  sBreakDeadTimeConfig.BreakState = TIM_BREAK_DISABLE;
 8003440:	9305      	str	r3, [sp, #20]
  sBreakDeadTimeConfig.BreakPolarity = TIM_BREAKPOLARITY_HIGH;
 8003442:	2280      	movs	r2, #128	@ 0x80
 8003444:	0192      	lsls	r2, r2, #6
 8003446:	9206      	str	r2, [sp, #24]
  sBreakDeadTimeConfig.BreakFilter = 0;
 8003448:	9307      	str	r3, [sp, #28]
  sBreakDeadTimeConfig.BreakAFMode = TIM_BREAK_AFMODE_INPUT;
 800344a:	9308      	str	r3, [sp, #32]
  sBreakDeadTimeConfig.Break2State = TIM_BREAK2_DISABLE;
 800344c:	9309      	str	r3, [sp, #36]	@ 0x24
  sBreakDeadTimeConfig.Break2Polarity = TIM_BREAK2POLARITY_HIGH;
 800344e:	2280      	movs	r2, #128	@ 0x80
 8003450:	0492      	lsls	r2, r2, #18
 8003452:	920a      	str	r2, [sp, #40]	@ 0x28
  sBreakDeadTimeConfig.Break2Filter = 0;
 8003454:	930b      	str	r3, [sp, #44]	@ 0x2c
  sBreakDeadTimeConfig.Break2AFMode = TIM_BREAK_AFMODE_INPUT;
 8003456:	930c      	str	r3, [sp, #48]	@ 0x30
  sBreakDeadTimeConfig.AutomaticOutput = TIM_AUTOMATICOUTPUT_DISABLE;
 8003458:	930d      	str	r3, [sp, #52]	@ 0x34
  if (HAL_TIMEx_ConfigBreakDeadTime(&htim1, &sBreakDeadTimeConfig) != HAL_OK)
 800345a:	480b      	ldr	r0, [pc, #44]	@ (8003488 <MX_TIM1_Init+0xf0>)
 800345c:	a901      	add	r1, sp, #4
 800345e:	f002 fc03 	bl	8005c68 <HAL_TIMEx_ConfigBreakDeadTime>
 8003462:	2800      	cmp	r0, #0
 8003464:	d10e      	bne.n	8003484 <MX_TIM1_Init+0xec>
  HAL_TIM_MspPostInit(&htim1);
 8003466:	4808      	ldr	r0, [pc, #32]	@ (8003488 <MX_TIM1_Init+0xf0>)
 8003468:	f000 fafe 	bl	8003a68 <HAL_TIM_MspPostInit>
}
 800346c:	b01d      	add	sp, #116	@ 0x74
 800346e:	bd00      	pop	{pc}
    Error_Handler();
 8003470:	f7ff ff2c 	bl	80032cc <Error_Handler>
    Error_Handler();
 8003474:	f7ff ff2a 	bl	80032cc <Error_Handler>
    Error_Handler();
 8003478:	f7ff ff28 	bl	80032cc <Error_Handler>
    Error_Handler();
 800347c:	f7ff ff26 	bl	80032cc <Error_Handler>
    Error_Handler();
 8003480:	f7ff ff24 	bl	80032cc <Error_Handler>
    Error_Handler();
 8003484:	f7ff ff22 	bl	80032cc <Error_Handler>
 8003488:	20000120 	.word	0x20000120
 800348c:	40012c00 	.word	0x40012c00

08003490 <MX_TIM3_Init>:
{
 8003490:	b500      	push	{lr}
 8003492:	b08f      	sub	sp, #60	@ 0x3c
  TIM_ClockConfigTypeDef sClockSourceConfig = {0};
 8003494:	2210      	movs	r2, #16
 8003496:	2100      	movs	r1, #0
 8003498:	a80a      	add	r0, sp, #40	@ 0x28
 800349a:	f002 fc4e 	bl	8005d3a <memset>
  TIM_MasterConfigTypeDef sMasterConfig = {0};
 800349e:	220c      	movs	r2, #12
 80034a0:	2100      	movs	r1, #0
 80034a2:	a807      	add	r0, sp, #28
 80034a4:	f002 fc49 	bl	8005d3a <memset>
  TIM_OC_InitTypeDef sConfigOC = {0};
 80034a8:	221c      	movs	r2, #28
 80034aa:	2100      	movs	r1, #0
 80034ac:	4668      	mov	r0, sp
 80034ae:	f002 fc44 	bl	8005d3a <memset>
  htim3.Instance = TIM3;
 80034b2:	4822      	ldr	r0, [pc, #136]	@ (800353c <MX_TIM3_Init+0xac>)
 80034b4:	4b22      	ldr	r3, [pc, #136]	@ (8003540 <MX_TIM3_Init+0xb0>)
 80034b6:	6003      	str	r3, [r0, #0]
  htim3.Init.Prescaler = 8-1;
 80034b8:	2307      	movs	r3, #7
 80034ba:	6043      	str	r3, [r0, #4]
  htim3.Init.CounterMode = TIM_COUNTERMODE_UP;
 80034bc:	2300      	movs	r3, #0
 80034be:	6083      	str	r3, [r0, #8]
  htim3.Init.Period = 999;
 80034c0:	4a20      	ldr	r2, [pc, #128]	@ (8003544 <MX_TIM3_Init+0xb4>)
 80034c2:	60c2      	str	r2, [r0, #12]
  htim3.Init.ClockDivision = TIM_CLOCKDIVISION_DIV1;
 80034c4:	6103      	str	r3, [r0, #16]
  htim3.Init.AutoReloadPreload = TIM_AUTORELOAD_PRELOAD_DISABLE;
 80034c6:	6183      	str	r3, [r0, #24]
  if (HAL_TIM_Base_Init(&htim3) != HAL_OK)
 80034c8:	f002 f830 	bl	800552c <HAL_TIM_Base_Init>
 80034cc:	2800      	cmp	r0, #0
 80034ce:	d12b      	bne.n	8003528 <MX_TIM3_Init+0x98>
  sClockSourceConfig.ClockSource = TIM_CLOCKSOURCE_INTERNAL;
 80034d0:	2380      	movs	r3, #128	@ 0x80
 80034d2:	015b      	lsls	r3, r3, #5
 80034d4:	930a      	str	r3, [sp, #40]	@ 0x28
  if (HAL_TIM_ConfigClockSource(&htim3, &sClockSourceConfig) != HAL_OK)
 80034d6:	4819      	ldr	r0, [pc, #100]	@ (800353c <MX_TIM3_Init+0xac>)
 80034d8:	a90a      	add	r1, sp, #40	@ 0x28
 80034da:	f002 f9d7 	bl	800588c <HAL_TIM_ConfigClockSource>
 80034de:	2800      	cmp	r0, #0
 80034e0:	d124      	bne.n	800352c <MX_TIM3_Init+0x9c>
  if (HAL_TIM_OC_Init(&htim3) != HAL_OK)
 80034e2:	4816      	ldr	r0, [pc, #88]	@ (800353c <MX_TIM3_Init+0xac>)
 80034e4:	f002 f852 	bl	800558c <HAL_TIM_OC_Init>
 80034e8:	2800      	cmp	r0, #0
 80034ea:	d121      	bne.n	8003530 <MX_TIM3_Init+0xa0>
  sMasterConfig.MasterOutputTrigger = TIM_TRGO_UPDATE;
 80034ec:	2320      	movs	r3, #32
 80034ee:	9307      	str	r3, [sp, #28]
  sMasterConfig.MasterSlaveMode = TIM_MASTERSLAVEMODE_ENABLE;
 80034f0:	3360      	adds	r3, #96	@ 0x60
 80034f2:	9309      	str	r3, [sp, #36]	@ 0x24
  if (HAL_TIMEx_MasterConfigSynchronization(&htim3, &sMasterConfig) != HAL_OK)
 80034f4:	4811      	ldr	r0, [pc, #68]	@ (800353c <MX_TIM3_Init+0xac>)
 80034f6:	a907      	add	r1, sp, #28
 80034f8:	f002 fb7e 	bl	8005bf8 <HAL_TIMEx_MasterConfigSynchronization>
 80034fc:	2800      	cmp	r0, #0
 80034fe:	d119      	bne.n	8003534 <MX_TIM3_Init+0xa4>
  sConfigOC.OCMode = TIM_OCMODE_TOGGLE;
 8003500:	2330      	movs	r3, #48	@ 0x30
 8003502:	9300      	str	r3, [sp, #0]
  sConfigOC.Pulse = 1024;
 8003504:	2380      	movs	r3, #128	@ 0x80
 8003506:	00db      	lsls	r3, r3, #3
 8003508:	9301      	str	r3, [sp, #4]
  sConfigOC.OCPolarity = TIM_OCPOLARITY_HIGH;
 800350a:	2300      	movs	r3, #0
 800350c:	9302      	str	r3, [sp, #8]
  sConfigOC.OCFastMode = TIM_OCFAST_DISABLE;
 800350e:	9304      	str	r3, [sp, #16]
  if (HAL_TIM_OC_ConfigChannel(&htim3, &sConfigOC, TIM_CHANNEL_1) != HAL_OK)
 8003510:	480a      	ldr	r0, [pc, #40]	@ (800353c <MX_TIM3_Init+0xac>)
 8003512:	2200      	movs	r2, #0
 8003514:	4669      	mov	r1, sp
 8003516:	f002 f8d5 	bl	80056c4 <HAL_TIM_OC_ConfigChannel>
 800351a:	2800      	cmp	r0, #0
 800351c:	d10c      	bne.n	8003538 <MX_TIM3_Init+0xa8>
  HAL_TIM_MspPostInit(&htim3);
 800351e:	4807      	ldr	r0, [pc, #28]	@ (800353c <MX_TIM3_Init+0xac>)
 8003520:	f000 faa2 	bl	8003a68 <HAL_TIM_MspPostInit>
}
 8003524:	b00f      	add	sp, #60	@ 0x3c
 8003526:	bd00      	pop	{pc}
    Error_Handler();
 8003528:	f7ff fed0 	bl	80032cc <Error_Handler>
    Error_Handler();
 800352c:	f7ff fece 	bl	80032cc <Error_Handler>
    Error_Handler();
 8003530:	f7ff fecc 	bl	80032cc <Error_Handler>
    Error_Handler();
 8003534:	f7ff feca 	bl	80032cc <Error_Handler>
    Error_Handler();
 8003538:	f7ff fec8 	bl	80032cc <Error_Handler>
 800353c:	200000d4 	.word	0x200000d4
 8003540:	40000400 	.word	0x40000400
 8003544:	000003e7 	.word	0x000003e7

08003548 <MX_TIM14_Init>:
{
 8003548:	b510      	push	{r4, lr}
  htim14.Instance = TIM14;
 800354a:	4809      	ldr	r0, [pc, #36]	@ (8003570 <MX_TIM14_Init+0x28>)
 800354c:	4b09      	ldr	r3, [pc, #36]	@ (8003574 <MX_TIM14_Init+0x2c>)
 800354e:	6003      	str	r3, [r0, #0]
  htim14.Init.Prescaler = 2999;
 8003550:	4b09      	ldr	r3, [pc, #36]	@ (8003578 <MX_TIM14_Init+0x30>)
 8003552:	6043      	str	r3, [r0, #4]
  htim14.Init.CounterMode = TIM_COUNTERMODE_UP;
 8003554:	2300      	movs	r3, #0
 8003556:	6083      	str	r3, [r0, #8]
  htim14.Init.Period = 999;
 8003558:	4a08      	ldr	r2, [pc, #32]	@ (800357c <MX_TIM14_Init+0x34>)
 800355a:	60c2      	str	r2, [r0, #12]
  htim14.Init.ClockDivision = TIM_CLOCKDIVISION_DIV1;
 800355c:	6103      	str	r3, [r0, #16]
  htim14.Init.AutoReloadPreload = TIM_AUTORELOAD_PRELOAD_DISABLE;
 800355e:	6183      	str	r3, [r0, #24]
  if (HAL_TIM_Base_Init(&htim14) != HAL_OK)
 8003560:	f001 ffe4 	bl	800552c <HAL_TIM_Base_Init>
 8003564:	2800      	cmp	r0, #0
 8003566:	d100      	bne.n	800356a <MX_TIM14_Init+0x22>
}
 8003568:	bd10      	pop	{r4, pc}
    Error_Handler();
 800356a:	f7ff feaf 	bl	80032cc <Error_Handler>
 800356e:	46c0      	nop			@ (mov r8, r8)
 8003570:	20000088 	.word	0x20000088
 8003574:	40002000 	.word	0x40002000
 8003578:	00000bb7 	.word	0x00000bb7
 800357c:	000003e7 	.word	0x000003e7

08003580 <SystemClock_Config>:
{
 8003580:	b500      	push	{lr}
 8003582:	b08d      	sub	sp, #52	@ 0x34
  RCC_OscInitTypeDef RCC_OscInitStruct = {0};
 8003584:	221c      	movs	r2, #28
 8003586:	2100      	movs	r1, #0
 8003588:	a805      	add	r0, sp, #20
 800358a:	f002 fbd6 	bl	8005d3a <memset>
  RCC_ClkInitTypeDef RCC_ClkInitStruct = {0};
 800358e:	2214      	movs	r2, #20
 8003590:	2100      	movs	r1, #0
 8003592:	4668      	mov	r0, sp
 8003594:	f002 fbd1 	bl	8005d3a <memset>
  RCC_OscInitStruct.OscillatorType = RCC_OSCILLATORTYPE_HSI;
 8003598:	2302      	movs	r3, #2
 800359a:	9305      	str	r3, [sp, #20]
  RCC_OscInitStruct.HSIState = RCC_HSI_ON;
 800359c:	33fe      	adds	r3, #254	@ 0xfe
 800359e:	9308      	str	r3, [sp, #32]
  RCC_OscInitStruct.HSICalibrationValue = RCC_HSICALIBRATION_DEFAULT;
 80035a0:	3bc0      	subs	r3, #192	@ 0xc0
 80035a2:	930a      	str	r3, [sp, #40]	@ 0x28
  if (HAL_RCC_OscConfig(&RCC_OscInitStruct) != HAL_OK)
 80035a4:	a805      	add	r0, sp, #20
 80035a6:	f001 fa5d 	bl	8004a64 <HAL_RCC_OscConfig>
 80035aa:	2800      	cmp	r0, #0
 80035ac:	d110      	bne.n	80035d0 <SystemClock_Config+0x50>
  RCC_ClkInitStruct.ClockType = RCC_CLOCKTYPE_HCLK|RCC_CLOCKTYPE_SYSCLK
 80035ae:	2307      	movs	r3, #7
 80035b0:	9300      	str	r3, [sp, #0]
  RCC_ClkInitStruct.SYSCLKSource = RCC_SYSCLKSOURCE_HSI;
 80035b2:	2300      	movs	r3, #0
 80035b4:	9301      	str	r3, [sp, #4]
  RCC_ClkInitStruct.SYSCLKDivider = RCC_SYSCLK_DIV1;
 80035b6:	9302      	str	r3, [sp, #8]
  RCC_ClkInitStruct.AHBCLKDivider = RCC_HCLK_DIV4;
 80035b8:	2290      	movs	r2, #144	@ 0x90
 80035ba:	0112      	lsls	r2, r2, #4
 80035bc:	9203      	str	r2, [sp, #12]
  RCC_ClkInitStruct.APB1CLKDivider = RCC_APB1_DIV1;
 80035be:	9304      	str	r3, [sp, #16]
  if (HAL_RCC_ClockConfig(&RCC_ClkInitStruct, FLASH_LATENCY_0) != HAL_OK)
 80035c0:	2100      	movs	r1, #0
 80035c2:	4668      	mov	r0, sp
 80035c4:	f001 fbdc 	bl	8004d80 <HAL_RCC_ClockConfig>
 80035c8:	2800      	cmp	r0, #0
 80035ca:	d103      	bne.n	80035d4 <SystemClock_Config+0x54>
}
 80035cc:	b00d      	add	sp, #52	@ 0x34
 80035ce:	bd00      	pop	{pc}
    Error_Handler();
 80035d0:	f7ff fe7c 	bl	80032cc <Error_Handler>
    Error_Handler();
 80035d4:	f7ff fe7a 	bl	80032cc <Error_Handler>

080035d8 <main>:
{
 80035d8:	b5f0      	push	{r4, r5, r6, r7, lr}
 80035da:	46c6      	mov	lr, r8
 80035dc:	b500      	push	{lr}
 80035de:	b084      	sub	sp, #16
	current_index = 0.0f;
 80035e0:	4a95      	ldr	r2, [pc, #596]	@ (8003838 <main+0x260>)
 80035e2:	2300      	movs	r3, #0
 80035e4:	8013      	strh	r3, [r2, #0]
	ntc = 0;
 80035e6:	4a95      	ldr	r2, [pc, #596]	@ (800383c <main+0x264>)
 80035e8:	8013      	strh	r3, [r2, #0]
	duty_cycle_setpoint = 0;
 80035ea:	4a95      	ldr	r2, [pc, #596]	@ (8003840 <main+0x268>)
 80035ec:	8013      	strh	r3, [r2, #0]
	duty_cycle = 1;
 80035ee:	4995      	ldr	r1, [pc, #596]	@ (8003844 <main+0x26c>)
 80035f0:	2201      	movs	r2, #1
 80035f2:	800a      	strh	r2, [r1, #0]
	MCU_temperature = 0;
 80035f4:	4a94      	ldr	r2, [pc, #592]	@ (8003848 <main+0x270>)
 80035f6:	8013      	strh	r3, [r2, #0]
	temp = 0;
 80035f8:	4a94      	ldr	r2, [pc, #592]	@ (800384c <main+0x274>)
 80035fa:	8013      	strh	r3, [r2, #0]
	cs0 = 0;
 80035fc:	4a94      	ldr	r2, [pc, #592]	@ (8003850 <main+0x278>)
 80035fe:	8013      	strh	r3, [r2, #0]
	cs1 = 0;
 8003600:	4a94      	ldr	r2, [pc, #592]	@ (8003854 <main+0x27c>)
 8003602:	8013      	strh	r3, [r2, #0]
	cs2 = 0;
 8003604:	4a94      	ldr	r2, [pc, #592]	@ (8003858 <main+0x280>)
 8003606:	8013      	strh	r3, [r2, #0]
	state = STANDBY;
 8003608:	4a94      	ldr	r2, [pc, #592]	@ (800385c <main+0x284>)
 800360a:	2000      	movs	r0, #0
 800360c:	7010      	strb	r0, [r2, #0]
	uint16_t max_current[8] = {
 800360e:	4668      	mov	r0, sp
 8003610:	4a93      	ldr	r2, [pc, #588]	@ (8003860 <main+0x288>)
 8003612:	cae0      	ldmia	r2!, {r5, r6, r7}
 8003614:	c0e0      	stmia	r0!, {r5, r6, r7}
 8003616:	6812      	ldr	r2, [r2, #0]
 8003618:	6002      	str	r2, [r0, #0]
	duty_cycle = 0;
 800361a:	800b      	strh	r3, [r1, #0]
  HAL_Init();
 800361c:	f000 faea 	bl	8003bf4 <HAL_Init>
  SystemClock_Config();
 8003620:	f7ff ffae 	bl	8003580 <SystemClock_Config>
  MX_GPIO_Init();
 8003624:	f7ff fd2c 	bl	8003080 <MX_GPIO_Init>
  MX_DMA_Init();
 8003628:	f7ff fd58 	bl	80030dc <MX_DMA_Init>
  MX_ADC1_Init();
 800362c:	f7ff fe50 	bl	80032d0 <MX_ADC1_Init>
  MX_TIM1_Init();
 8003630:	f7ff feb2 	bl	8003398 <MX_TIM1_Init>
  MX_TIM3_Init();
 8003634:	f7ff ff2c 	bl	8003490 <MX_TIM3_Init>
  MX_TIM14_Init();
 8003638:	f7ff ff86 	bl	8003548 <MX_TIM14_Init>
  HAL_TIM_Base_Start_IT(&htim3);
 800363c:	4c89      	ldr	r4, [pc, #548]	@ (8003864 <main+0x28c>)
 800363e:	0020      	movs	r0, r4
 8003640:	f001 fe4c 	bl	80052dc <HAL_TIM_Base_Start_IT>
  HAL_TIM_OC_Start(&htim3, TIM_CHANNEL_1);
 8003644:	2100      	movs	r1, #0
 8003646:	0020      	movs	r0, r4
 8003648:	f002 f9b2 	bl	80059b0 <HAL_TIM_OC_Start>
  HAL_TIM_Base_Start_IT(&htim14);
 800364c:	4c86      	ldr	r4, [pc, #536]	@ (8003868 <main+0x290>)
 800364e:	0020      	movs	r0, r4
 8003650:	f001 fe44 	bl	80052dc <HAL_TIM_Base_Start_IT>
  HAL_TIM_OC_Start(&htim14, TIM_CHANNEL_1);
 8003654:	2100      	movs	r1, #0
 8003656:	0020      	movs	r0, r4
 8003658:	f002 f9aa 	bl	80059b0 <HAL_TIM_OC_Start>
  HAL_TIM_PWM_Start(&htim1, TIM_CHANNEL_1);
 800365c:	4883      	ldr	r0, [pc, #524]	@ (800386c <main+0x294>)
 800365e:	2100      	movs	r1, #0
 8003660:	f002 fa38 	bl	8005ad4 <HAL_TIM_PWM_Start>
  HAL_ADC_Start_DMA(&hadc1, (uint32_t*)adcResultsDMA, ADC_BUF_LEN);
 8003664:	4982      	ldr	r1, [pc, #520]	@ (8003870 <main+0x298>)
 8003666:	4883      	ldr	r0, [pc, #524]	@ (8003874 <main+0x29c>)
 8003668:	2203      	movs	r2, #3
 800366a:	f000 fe25 	bl	80042b8 <HAL_ADC_Start_DMA>
 800366e:	e00b      	b.n	8003688 <main+0xb0>
			 TIM1->CCR1 = duty_cycle_setpoint;   //Timer1 period is 8192
 8003670:	4b73      	ldr	r3, [pc, #460]	@ (8003840 <main+0x268>)
 8003672:	881a      	ldrh	r2, [r3, #0]
 8003674:	4b80      	ldr	r3, [pc, #512]	@ (8003878 <main+0x2a0>)
 8003676:	635a      	str	r2, [r3, #52]	@ 0x34
	  	  switch (state) {
 8003678:	4b78      	ldr	r3, [pc, #480]	@ (800385c <main+0x284>)
 800367a:	781b      	ldrb	r3, [r3, #0]
 800367c:	2b00      	cmp	r3, #0
 800367e:	d100      	bne.n	8003682 <main+0xaa>
 8003680:	e0c6      	b.n	8003810 <main+0x238>
 8003682:	2b02      	cmp	r3, #2
 8003684:	d100      	bne.n	8003688 <main+0xb0>
 8003686:	e0d3      	b.n	8003830 <main+0x258>
	  	  dim_adc = adcResultsDMA[0];
 8003688:	4b79      	ldr	r3, [pc, #484]	@ (8003870 <main+0x298>)
 800368a:	881f      	ldrh	r7, [r3, #0]
 800368c:	4a7b      	ldr	r2, [pc, #492]	@ (800387c <main+0x2a4>)
 800368e:	8017      	strh	r7, [r2, #0]
	  	  ntc_adc = adcResultsDMA[1];
 8003690:	885b      	ldrh	r3, [r3, #2]
 8003692:	4698      	mov	r8, r3
 8003694:	4b7a      	ldr	r3, [pc, #488]	@ (8003880 <main+0x2a8>)
 8003696:	4642      	mov	r2, r8
 8003698:	801a      	strh	r2, [r3, #0]
	  	  dim_sum -= dim_circ_buf[circ_buf_ptr]; // Subtract the oldest value from the sum.
 800369a:	4b7a      	ldr	r3, [pc, #488]	@ (8003884 <main+0x2ac>)
 800369c:	8819      	ldrh	r1, [r3, #0]
 800369e:	4a7a      	ldr	r2, [pc, #488]	@ (8003888 <main+0x2b0>)
 80036a0:	0089      	lsls	r1, r1, #2
 80036a2:	588c      	ldr	r4, [r1, r2]
 80036a4:	4879      	ldr	r0, [pc, #484]	@ (800388c <main+0x2b4>)
 80036a6:	6801      	ldr	r1, [r0, #0]
 80036a8:	1b09      	subs	r1, r1, r4
 80036aa:	6001      	str	r1, [r0, #0]
	  	  ntc_sum -= ntc_circ_buf[circ_buf_ptr]; // Subtract the oldest value from the sum.
 80036ac:	8819      	ldrh	r1, [r3, #0]
 80036ae:	4c78      	ldr	r4, [pc, #480]	@ (8003890 <main+0x2b8>)
 80036b0:	0089      	lsls	r1, r1, #2
 80036b2:	5909      	ldr	r1, [r1, r4]
 80036b4:	468c      	mov	ip, r1
 80036b6:	4977      	ldr	r1, [pc, #476]	@ (8003894 <main+0x2bc>)
 80036b8:	680d      	ldr	r5, [r1, #0]
 80036ba:	4666      	mov	r6, ip
 80036bc:	1bad      	subs	r5, r5, r6
 80036be:	600d      	str	r5, [r1, #0]
	  	  dim_circ_buf[circ_buf_ptr] = dim_adc; // Place the input in the filter register.
 80036c0:	881d      	ldrh	r5, [r3, #0]
 80036c2:	00ad      	lsls	r5, r5, #2
 80036c4:	50af      	str	r7, [r5, r2]
	  	  ntc_circ_buf[circ_buf_ptr] = ntc_adc; // Place the input in the filter register.
 80036c6:	881d      	ldrh	r5, [r3, #0]
 80036c8:	00ad      	lsls	r5, r5, #2
 80036ca:	4646      	mov	r6, r8
 80036cc:	512e      	str	r6, [r5, r4]
	  	  dim_sum += dim_circ_buf[circ_buf_ptr]; // Ad the newest value to the sum.
 80036ce:	881d      	ldrh	r5, [r3, #0]
 80036d0:	00ad      	lsls	r5, r5, #2
 80036d2:	58ad      	ldr	r5, [r5, r2]
 80036d4:	6802      	ldr	r2, [r0, #0]
 80036d6:	1952      	adds	r2, r2, r5
 80036d8:	6002      	str	r2, [r0, #0]
	  	  ntc_sum += ntc_circ_buf[circ_buf_ptr++]; // Ad the newest value to the sum.
 80036da:	881a      	ldrh	r2, [r3, #0]
 80036dc:	1c55      	adds	r5, r2, #1
 80036de:	b2ad      	uxth	r5, r5
 80036e0:	801d      	strh	r5, [r3, #0]
 80036e2:	0092      	lsls	r2, r2, #2
 80036e4:	5914      	ldr	r4, [r2, r4]
 80036e6:	680a      	ldr	r2, [r1, #0]
 80036e8:	1912      	adds	r2, r2, r4
 80036ea:	600a      	str	r2, [r1, #0]
	  	  circ_buf_ptr %= N(K); // Increment the buffer keeping it in the range 0 to N-1;
 80036ec:	881a      	ldrh	r2, [r3, #0]
 80036ee:	2407      	movs	r4, #7
 80036f0:	4022      	ands	r2, r4
 80036f2:	801a      	strh	r2, [r3, #0]
	  	  dim_filt = (uint16_t)(dim_sum >> K);
 80036f4:	6803      	ldr	r3, [r0, #0]
 80036f6:	08db      	lsrs	r3, r3, #3
 80036f8:	b29b      	uxth	r3, r3
 80036fa:	4a67      	ldr	r2, [pc, #412]	@ (8003898 <main+0x2c0>)
 80036fc:	8013      	strh	r3, [r2, #0]
	  	  ntc_filt = (uint16_t)(ntc_sum >> K);
 80036fe:	680a      	ldr	r2, [r1, #0]
 8003700:	08d2      	lsrs	r2, r2, #3
 8003702:	4966      	ldr	r1, [pc, #408]	@ (800389c <main+0x2c4>)
 8003704:	800a      	strh	r2, [r1, #0]
	  	  temp = dim_filt;
 8003706:	4a51      	ldr	r2, [pc, #324]	@ (800384c <main+0x274>)
 8003708:	8013      	strh	r3, [r2, #0]
		  if (dim_filt < 870){
 800370a:	4a65      	ldr	r2, [pc, #404]	@ (80038a0 <main+0x2c8>)
 800370c:	4293      	cmp	r3, r2
 800370e:	d802      	bhi.n	8003716 <main+0x13e>
			  dim_filt = 0;
 8003710:	4b61      	ldr	r3, [pc, #388]	@ (8003898 <main+0x2c0>)
 8003712:	2200      	movs	r2, #0
 8003714:	801a      	strh	r2, [r3, #0]
		  if (dim_filt != 0){
 8003716:	4b60      	ldr	r3, [pc, #384]	@ (8003898 <main+0x2c0>)
 8003718:	8818      	ldrh	r0, [r3, #0]
 800371a:	2800      	cmp	r0, #0
 800371c:	d00e      	beq.n	800373c <main+0x164>
		  dim_filt = dim_filt - 870; //Offset due to 1k resistor and 0.5mA current source
 800371e:	4b61      	ldr	r3, [pc, #388]	@ (80038a4 <main+0x2cc>)
 8003720:	469c      	mov	ip, r3
 8003722:	4460      	add	r0, ip
 8003724:	b280      	uxth	r0, r0
 8003726:	4c5c      	ldr	r4, [pc, #368]	@ (8003898 <main+0x2c0>)
 8003728:	8020      	strh	r0, [r4, #0]
		  dim_filt = dim_filt * 1.27;// set slope
 800372a:	f7ff fb91 	bl	8002e50 <__aeabi_i2d>
 800372e:	4a5e      	ldr	r2, [pc, #376]	@ (80038a8 <main+0x2d0>)
 8003730:	4b5e      	ldr	r3, [pc, #376]	@ (80038ac <main+0x2d4>)
 8003732:	f7fe fccb 	bl	80020cc <__aeabi_dmul>
 8003736:	f7fc fe03 	bl	8000340 <__aeabi_d2uiz>
 800373a:	8020      	strh	r0, [r4, #0]
		  if (dim_filt > 4095){
 800373c:	4b56      	ldr	r3, [pc, #344]	@ (8003898 <main+0x2c0>)
 800373e:	881a      	ldrh	r2, [r3, #0]
 8003740:	2380      	movs	r3, #128	@ 0x80
 8003742:	015b      	lsls	r3, r3, #5
 8003744:	429a      	cmp	r2, r3
 8003746:	d302      	bcc.n	800374e <main+0x176>
			  dim_filt = 4095;
 8003748:	4b53      	ldr	r3, [pc, #332]	@ (8003898 <main+0x2c0>)
 800374a:	4a59      	ldr	r2, [pc, #356]	@ (80038b0 <main+0x2d8>)
 800374c:	801a      	strh	r2, [r3, #0]
		  dim_setpoint = dim_filt;
 800374e:	4c59      	ldr	r4, [pc, #356]	@ (80038b4 <main+0x2dc>)
 8003750:	4b51      	ldr	r3, [pc, #324]	@ (8003898 <main+0x2c0>)
 8003752:	881b      	ldrh	r3, [r3, #0]
 8003754:	8023      	strh	r3, [r4, #0]
		  MCU_temperature = adcResultsDMA[2];
 8003756:	4946      	ldr	r1, [pc, #280]	@ (8003870 <main+0x298>)
 8003758:	888a      	ldrh	r2, [r1, #4]
 800375a:	4b3b      	ldr	r3, [pc, #236]	@ (8003848 <main+0x270>)
 800375c:	801a      	strh	r2, [r3, #0]
		  HAL_ADC_Start_DMA(&hadc1, (uint32_t*)adcResultsDMA, ADC_BUF_LEN);
 800375e:	4845      	ldr	r0, [pc, #276]	@ (8003874 <main+0x29c>)
 8003760:	2203      	movs	r2, #3
 8003762:	f000 fda9 	bl	80042b8 <HAL_ADC_Start_DMA>
		  cs0 = HAL_GPIO_ReadPin(GPIOA, GPIO_PIN_3);
 8003766:	26a0      	movs	r6, #160	@ 0xa0
 8003768:	05f6      	lsls	r6, r6, #23
 800376a:	2108      	movs	r1, #8
 800376c:	0030      	movs	r0, r6
 800376e:	f001 f963 	bl	8004a38 <HAL_GPIO_ReadPin>
 8003772:	4d37      	ldr	r5, [pc, #220]	@ (8003850 <main+0x278>)
 8003774:	8028      	strh	r0, [r5, #0]
		  cs1 = HAL_GPIO_ReadPin(GPIOA, GPIO_PIN_2);
 8003776:	2104      	movs	r1, #4
 8003778:	0030      	movs	r0, r6
 800377a:	f001 f95d 	bl	8004a38 <HAL_GPIO_ReadPin>
 800377e:	4f35      	ldr	r7, [pc, #212]	@ (8003854 <main+0x27c>)
 8003780:	8038      	strh	r0, [r7, #0]
		  cs2 = HAL_GPIO_ReadPin(GPIOA, GPIO_PIN_1);
 8003782:	2102      	movs	r1, #2
 8003784:	0030      	movs	r0, r6
 8003786:	f001 f957 	bl	8004a38 <HAL_GPIO_ReadPin>
 800378a:	4b33      	ldr	r3, [pc, #204]	@ (8003858 <main+0x280>)
 800378c:	8018      	strh	r0, [r3, #0]
		  current_index = (cs2<<2) + (cs1<<1) + cs0;
 800378e:	0083      	lsls	r3, r0, #2
 8003790:	b29b      	uxth	r3, r3
 8003792:	883a      	ldrh	r2, [r7, #0]
 8003794:	0052      	lsls	r2, r2, #1
 8003796:	b292      	uxth	r2, r2
 8003798:	189b      	adds	r3, r3, r2
 800379a:	b29b      	uxth	r3, r3
 800379c:	882a      	ldrh	r2, [r5, #0]
 800379e:	189b      	adds	r3, r3, r2
 80037a0:	b29b      	uxth	r3, r3
 80037a2:	4a25      	ldr	r2, [pc, #148]	@ (8003838 <main+0x260>)
 80037a4:	8013      	strh	r3, [r2, #0]
	  	  duty_cycle = max_current[current_index] * dim_setpoint; //Timer1 period is 8192
 80037a6:	005b      	lsls	r3, r3, #1
 80037a8:	466a      	mov	r2, sp
 80037aa:	5a9b      	ldrh	r3, [r3, r2]
 80037ac:	8824      	ldrh	r4, [r4, #0]
 80037ae:	435c      	muls	r4, r3
 80037b0:	b2a4      	uxth	r4, r4
 80037b2:	4b24      	ldr	r3, [pc, #144]	@ (8003844 <main+0x26c>)
 80037b4:	801c      	strh	r4, [r3, #0]
			 if ((duty_cycle_setpoint <= duty_cycle) && (ntc_temp < START_DERATING)){
 80037b6:	4b22      	ldr	r3, [pc, #136]	@ (8003840 <main+0x268>)
 80037b8:	881d      	ldrh	r5, [r3, #0]
 80037ba:	42ac      	cmp	r4, r5
 80037bc:	d310      	bcc.n	80037e0 <main+0x208>
 80037be:	4b3e      	ldr	r3, [pc, #248]	@ (80038b8 <main+0x2e0>)
 80037c0:	6818      	ldr	r0, [r3, #0]
 80037c2:	493e      	ldr	r1, [pc, #248]	@ (80038bc <main+0x2e4>)
 80037c4:	f7fc fd7c 	bl	80002c0 <__aeabi_fcmplt>
 80037c8:	2800      	cmp	r0, #0
 80037ca:	d009      	beq.n	80037e0 <main+0x208>
				 duty_cycle_setpoint++;
 80037cc:	4b1c      	ldr	r3, [pc, #112]	@ (8003840 <main+0x268>)
 80037ce:	3501      	adds	r5, #1
 80037d0:	801d      	strh	r5, [r3, #0]
				 percent_derating = 1;
 80037d2:	4b3b      	ldr	r3, [pc, #236]	@ (80038c0 <main+0x2e8>)
 80037d4:	22fe      	movs	r2, #254	@ 0xfe
 80037d6:	0592      	lsls	r2, r2, #22
 80037d8:	601a      	str	r2, [r3, #0]
				 otp_flag = 1;
 80037da:	4b3a      	ldr	r3, [pc, #232]	@ (80038c4 <main+0x2ec>)
 80037dc:	2201      	movs	r2, #1
 80037de:	801a      	strh	r2, [r3, #0]
			 if ((duty_cycle_setpoint > duty_cycle) && (ntc_temp < START_DERATING)){
 80037e0:	4b17      	ldr	r3, [pc, #92]	@ (8003840 <main+0x268>)
 80037e2:	881d      	ldrh	r5, [r3, #0]
 80037e4:	42ac      	cmp	r4, r5
 80037e6:	d300      	bcc.n	80037ea <main+0x212>
 80037e8:	e742      	b.n	8003670 <main+0x98>
 80037ea:	4b33      	ldr	r3, [pc, #204]	@ (80038b8 <main+0x2e0>)
 80037ec:	6818      	ldr	r0, [r3, #0]
 80037ee:	4933      	ldr	r1, [pc, #204]	@ (80038bc <main+0x2e4>)
 80037f0:	f7fc fd66 	bl	80002c0 <__aeabi_fcmplt>
 80037f4:	2800      	cmp	r0, #0
 80037f6:	d100      	bne.n	80037fa <main+0x222>
 80037f8:	e73a      	b.n	8003670 <main+0x98>
			 	 duty_cycle_setpoint--;
 80037fa:	4b11      	ldr	r3, [pc, #68]	@ (8003840 <main+0x268>)
 80037fc:	3d01      	subs	r5, #1
 80037fe:	801d      	strh	r5, [r3, #0]
			 	percent_derating = 1;
 8003800:	4b2f      	ldr	r3, [pc, #188]	@ (80038c0 <main+0x2e8>)
 8003802:	22fe      	movs	r2, #254	@ 0xfe
 8003804:	0592      	lsls	r2, r2, #22
 8003806:	601a      	str	r2, [r3, #0]
			 	otp_flag = 1;
 8003808:	4b2e      	ldr	r3, [pc, #184]	@ (80038c4 <main+0x2ec>)
 800380a:	2201      	movs	r2, #1
 800380c:	801a      	strh	r2, [r3, #0]
 800380e:	e72f      	b.n	8003670 <main+0x98>
	  	           if (softstart < 9){
 8003810:	4b2d      	ldr	r3, [pc, #180]	@ (80038c8 <main+0x2f0>)
 8003812:	881b      	ldrh	r3, [r3, #0]
 8003814:	2b08      	cmp	r3, #8
 8003816:	d801      	bhi.n	800381c <main+0x244>
	  	            duty_cycle_setpoint = duty_cycle;
 8003818:	4a09      	ldr	r2, [pc, #36]	@ (8003840 <main+0x268>)
 800381a:	8014      	strh	r4, [r2, #0]
	  	           if (softstart == 9){
 800381c:	2b09      	cmp	r3, #9
 800381e:	d003      	beq.n	8003828 <main+0x250>
	  	           ++softstart;
 8003820:	4a29      	ldr	r2, [pc, #164]	@ (80038c8 <main+0x2f0>)
 8003822:	3301      	adds	r3, #1
 8003824:	8013      	strh	r3, [r2, #0]
	  	            break;
 8003826:	e72f      	b.n	8003688 <main+0xb0>
	  	           	state = RUNNING;
 8003828:	4a0c      	ldr	r2, [pc, #48]	@ (800385c <main+0x284>)
 800382a:	2102      	movs	r1, #2
 800382c:	7011      	strb	r1, [r2, #0]
 800382e:	e7f7      	b.n	8003820 <main+0x248>
	  	            	softstart = 0;
 8003830:	4b25      	ldr	r3, [pc, #148]	@ (80038c8 <main+0x2f0>)
 8003832:	2200      	movs	r2, #0
 8003834:	801a      	strh	r2, [r3, #0]
 8003836:	e727      	b.n	8003688 <main+0xb0>
 8003838:	200002ce 	.word	0x200002ce
 800383c:	200002c6 	.word	0x200002c6
 8003840:	200002ca 	.word	0x200002ca
 8003844:	200002cc 	.word	0x200002cc
 8003848:	200002c4 	.word	0x200002c4
 800384c:	200002c2 	.word	0x200002c2
 8003850:	200002c0 	.word	0x200002c0
 8003854:	200002be 	.word	0x200002be
 8003858:	200002bc 	.word	0x200002bc
 800385c:	2000022c 	.word	0x2000022c
 8003860:	08006194 	.word	0x08006194
 8003864:	200000d4 	.word	0x200000d4
 8003868:	20000088 	.word	0x20000088
 800386c:	20000120 	.word	0x20000120
 8003870:	20000080 	.word	0x20000080
 8003874:	200001c8 	.word	0x200001c8
 8003878:	40012c00 	.word	0x40012c00
 800387c:	200002d4 	.word	0x200002d4
 8003880:	200002d2 	.word	0x200002d2
 8003884:	2000024e 	.word	0x2000024e
 8003888:	2000029c 	.word	0x2000029c
 800388c:	20000258 	.word	0x20000258
 8003890:	2000027c 	.word	0x2000027c
 8003894:	20000254 	.word	0x20000254
 8003898:	200002d8 	.word	0x200002d8
 800389c:	200002d6 	.word	0x200002d6
 80038a0:	00000365 	.word	0x00000365
 80038a4:	fffffc9a 	.word	0xfffffc9a
 80038a8:	851eb852 	.word	0x851eb852
 80038ac:	3ff451eb 	.word	0x3ff451eb
 80038b0:	00000fff 	.word	0x00000fff
 80038b4:	200002d0 	.word	0x200002d0
 80038b8:	20000248 	.word	0x20000248
 80038bc:	42700000 	.word	0x42700000
 80038c0:	20000230 	.word	0x20000230
 80038c4:	20000000 	.word	0x20000000
 80038c8:	20000234 	.word	0x20000234

080038cc <HAL_MspInit>:
 80038cc:	b500      	push	{lr}
 80038ce:	b083      	sub	sp, #12
 80038d0:	4b0c      	ldr	r3, [pc, #48]	@ (8003904 <HAL_MspInit+0x38>)
 80038d2:	6c19      	ldr	r1, [r3, #64]	@ 0x40
 80038d4:	2201      	movs	r2, #1
 80038d6:	4311      	orrs	r1, r2
 80038d8:	6419      	str	r1, [r3, #64]	@ 0x40
 80038da:	6c19      	ldr	r1, [r3, #64]	@ 0x40
 80038dc:	400a      	ands	r2, r1
 80038de:	9200      	str	r2, [sp, #0]
 80038e0:	9a00      	ldr	r2, [sp, #0]
 80038e2:	6bda      	ldr	r2, [r3, #60]	@ 0x3c
 80038e4:	2180      	movs	r1, #128	@ 0x80
 80038e6:	0549      	lsls	r1, r1, #21
 80038e8:	430a      	orrs	r2, r1
 80038ea:	63da      	str	r2, [r3, #60]	@ 0x3c
 80038ec:	6bdb      	ldr	r3, [r3, #60]	@ 0x3c
 80038ee:	400b      	ands	r3, r1
 80038f0:	9301      	str	r3, [sp, #4]
 80038f2:	9b01      	ldr	r3, [sp, #4]
 80038f4:	2002      	movs	r0, #2
 80038f6:	2200      	movs	r2, #0
 80038f8:	2101      	movs	r1, #1
 80038fa:	4240      	negs	r0, r0
 80038fc:	f000 fe0e 	bl	800451c <HAL_NVIC_SetPriority>
 8003900:	b003      	add	sp, #12
 8003902:	bd00      	pop	{pc}
 8003904:	40021000 	.word	0x40021000

08003908 <HAL_ADC_MspInit>:
 8003908:	b530      	push	{r4, r5, lr}
 800390a:	b08f      	sub	sp, #60	@ 0x3c
 800390c:	0004      	movs	r4, r0
 800390e:	2214      	movs	r2, #20
 8003910:	2100      	movs	r1, #0
 8003912:	a809      	add	r0, sp, #36	@ 0x24
 8003914:	f002 fa11 	bl	8005d3a <memset>
 8003918:	221c      	movs	r2, #28
 800391a:	2100      	movs	r1, #0
 800391c:	a802      	add	r0, sp, #8
 800391e:	f002 fa0c 	bl	8005d3a <memset>
 8003922:	6822      	ldr	r2, [r4, #0]
 8003924:	4b25      	ldr	r3, [pc, #148]	@ (80039bc <HAL_ADC_MspInit+0xb4>)
 8003926:	429a      	cmp	r2, r3
 8003928:	d001      	beq.n	800392e <HAL_ADC_MspInit+0x26>
 800392a:	b00f      	add	sp, #60	@ 0x3c
 800392c:	bd30      	pop	{r4, r5, pc}
 800392e:	2380      	movs	r3, #128	@ 0x80
 8003930:	01db      	lsls	r3, r3, #7
 8003932:	9302      	str	r3, [sp, #8]
 8003934:	a802      	add	r0, sp, #8
 8003936:	f001 faeb 	bl	8004f10 <HAL_RCCEx_PeriphCLKConfig>
 800393a:	2800      	cmp	r0, #0
 800393c:	d137      	bne.n	80039ae <HAL_ADC_MspInit+0xa6>
 800393e:	4b20      	ldr	r3, [pc, #128]	@ (80039c0 <HAL_ADC_MspInit+0xb8>)
 8003940:	6c1a      	ldr	r2, [r3, #64]	@ 0x40
 8003942:	2180      	movs	r1, #128	@ 0x80
 8003944:	0349      	lsls	r1, r1, #13
 8003946:	430a      	orrs	r2, r1
 8003948:	641a      	str	r2, [r3, #64]	@ 0x40
 800394a:	6c1a      	ldr	r2, [r3, #64]	@ 0x40
 800394c:	400a      	ands	r2, r1
 800394e:	9200      	str	r2, [sp, #0]
 8003950:	9a00      	ldr	r2, [sp, #0]
 8003952:	6b59      	ldr	r1, [r3, #52]	@ 0x34
 8003954:	2201      	movs	r2, #1
 8003956:	4311      	orrs	r1, r2
 8003958:	6359      	str	r1, [r3, #52]	@ 0x34
 800395a:	6b5b      	ldr	r3, [r3, #52]	@ 0x34
 800395c:	401a      	ands	r2, r3
 800395e:	9201      	str	r2, [sp, #4]
 8003960:	9b01      	ldr	r3, [sp, #4]
 8003962:	23c0      	movs	r3, #192	@ 0xc0
 8003964:	005b      	lsls	r3, r3, #1
 8003966:	9309      	str	r3, [sp, #36]	@ 0x24
 8003968:	3b7e      	subs	r3, #126	@ 0x7e
 800396a:	3bff      	subs	r3, #255	@ 0xff
 800396c:	930a      	str	r3, [sp, #40]	@ 0x28
 800396e:	2500      	movs	r5, #0
 8003970:	950b      	str	r5, [sp, #44]	@ 0x2c
 8003972:	20a0      	movs	r0, #160	@ 0xa0
 8003974:	a909      	add	r1, sp, #36	@ 0x24
 8003976:	05c0      	lsls	r0, r0, #23
 8003978:	f000 ff86 	bl	8004888 <HAL_GPIO_Init>
 800397c:	4811      	ldr	r0, [pc, #68]	@ (80039c4 <HAL_ADC_MspInit+0xbc>)
 800397e:	4b12      	ldr	r3, [pc, #72]	@ (80039c8 <HAL_ADC_MspInit+0xc0>)
 8003980:	6003      	str	r3, [r0, #0]
 8003982:	2305      	movs	r3, #5
 8003984:	6043      	str	r3, [r0, #4]
 8003986:	6085      	str	r5, [r0, #8]
 8003988:	60c5      	str	r5, [r0, #12]
 800398a:	337b      	adds	r3, #123	@ 0x7b
 800398c:	6103      	str	r3, [r0, #16]
 800398e:	3380      	adds	r3, #128	@ 0x80
 8003990:	6143      	str	r3, [r0, #20]
 8003992:	2380      	movs	r3, #128	@ 0x80
 8003994:	00db      	lsls	r3, r3, #3
 8003996:	6183      	str	r3, [r0, #24]
 8003998:	2320      	movs	r3, #32
 800399a:	61c3      	str	r3, [r0, #28]
 800399c:	6205      	str	r5, [r0, #32]
 800399e:	f000 fe25 	bl	80045ec <HAL_DMA_Init>
 80039a2:	2800      	cmp	r0, #0
 80039a4:	d106      	bne.n	80039b4 <HAL_ADC_MspInit+0xac>
 80039a6:	4b07      	ldr	r3, [pc, #28]	@ (80039c4 <HAL_ADC_MspInit+0xbc>)
 80039a8:	6523      	str	r3, [r4, #80]	@ 0x50
 80039aa:	629c      	str	r4, [r3, #40]	@ 0x28
 80039ac:	e7bd      	b.n	800392a <HAL_ADC_MspInit+0x22>
 80039ae:	f7ff fc8d 	bl	80032cc <Error_Handler>
 80039b2:	e7c4      	b.n	800393e <HAL_ADC_MspInit+0x36>
 80039b4:	f7ff fc8a 	bl	80032cc <Error_Handler>
 80039b8:	e7f5      	b.n	80039a6 <HAL_ADC_MspInit+0x9e>
 80039ba:	46c0      	nop			@ (mov r8, r8)
 80039bc:	40012400 	.word	0x40012400
 80039c0:	40021000 	.word	0x40021000
 80039c4:	2000016c 	.word	0x2000016c
 80039c8:	40020008 	.word	0x40020008

080039cc <HAL_TIM_Base_MspInit>:
 80039cc:	b500      	push	{lr}
 80039ce:	b085      	sub	sp, #20
 80039d0:	6803      	ldr	r3, [r0, #0]
 80039d2:	4a21      	ldr	r2, [pc, #132]	@ (8003a58 <HAL_TIM_Base_MspInit+0x8c>)
 80039d4:	4293      	cmp	r3, r2
 80039d6:	d007      	beq.n	80039e8 <HAL_TIM_Base_MspInit+0x1c>
 80039d8:	4a20      	ldr	r2, [pc, #128]	@ (8003a5c <HAL_TIM_Base_MspInit+0x90>)
 80039da:	4293      	cmp	r3, r2
 80039dc:	d017      	beq.n	8003a0e <HAL_TIM_Base_MspInit+0x42>
 80039de:	4a20      	ldr	r2, [pc, #128]	@ (8003a60 <HAL_TIM_Base_MspInit+0x94>)
 80039e0:	4293      	cmp	r3, r2
 80039e2:	d026      	beq.n	8003a32 <HAL_TIM_Base_MspInit+0x66>
 80039e4:	b005      	add	sp, #20
 80039e6:	bd00      	pop	{pc}
 80039e8:	4b1e      	ldr	r3, [pc, #120]	@ (8003a64 <HAL_TIM_Base_MspInit+0x98>)
 80039ea:	6c1a      	ldr	r2, [r3, #64]	@ 0x40
 80039ec:	2180      	movs	r1, #128	@ 0x80
 80039ee:	0109      	lsls	r1, r1, #4
 80039f0:	430a      	orrs	r2, r1
 80039f2:	641a      	str	r2, [r3, #64]	@ 0x40
 80039f4:	6c1b      	ldr	r3, [r3, #64]	@ 0x40
 80039f6:	400b      	ands	r3, r1
 80039f8:	9301      	str	r3, [sp, #4]
 80039fa:	9b01      	ldr	r3, [sp, #4]
 80039fc:	2200      	movs	r2, #0
 80039fe:	2100      	movs	r1, #0
 8003a00:	200e      	movs	r0, #14
 8003a02:	f000 fd8b 	bl	800451c <HAL_NVIC_SetPriority>
 8003a06:	200e      	movs	r0, #14
 8003a08:	f000 fd8c 	bl	8004524 <HAL_NVIC_EnableIRQ>
 8003a0c:	e7ea      	b.n	80039e4 <HAL_TIM_Base_MspInit+0x18>
 8003a0e:	4a15      	ldr	r2, [pc, #84]	@ (8003a64 <HAL_TIM_Base_MspInit+0x98>)
 8003a10:	6bd1      	ldr	r1, [r2, #60]	@ 0x3c
 8003a12:	2302      	movs	r3, #2
 8003a14:	4319      	orrs	r1, r3
 8003a16:	63d1      	str	r1, [r2, #60]	@ 0x3c
 8003a18:	6bd2      	ldr	r2, [r2, #60]	@ 0x3c
 8003a1a:	4013      	ands	r3, r2
 8003a1c:	9302      	str	r3, [sp, #8]
 8003a1e:	9b02      	ldr	r3, [sp, #8]
 8003a20:	2200      	movs	r2, #0
 8003a22:	2100      	movs	r1, #0
 8003a24:	2010      	movs	r0, #16
 8003a26:	f000 fd79 	bl	800451c <HAL_NVIC_SetPriority>
 8003a2a:	2010      	movs	r0, #16
 8003a2c:	f000 fd7a 	bl	8004524 <HAL_NVIC_EnableIRQ>
 8003a30:	e7d8      	b.n	80039e4 <HAL_TIM_Base_MspInit+0x18>
 8003a32:	4b0c      	ldr	r3, [pc, #48]	@ (8003a64 <HAL_TIM_Base_MspInit+0x98>)
 8003a34:	6c1a      	ldr	r2, [r3, #64]	@ 0x40
 8003a36:	2180      	movs	r1, #128	@ 0x80
 8003a38:	0209      	lsls	r1, r1, #8
 8003a3a:	430a      	orrs	r2, r1
 8003a3c:	641a      	str	r2, [r3, #64]	@ 0x40
 8003a3e:	6c1b      	ldr	r3, [r3, #64]	@ 0x40
 8003a40:	400b      	ands	r3, r1
 8003a42:	9303      	str	r3, [sp, #12]
 8003a44:	9b03      	ldr	r3, [sp, #12]
 8003a46:	2200      	movs	r2, #0
 8003a48:	2102      	movs	r1, #2
 8003a4a:	2013      	movs	r0, #19
 8003a4c:	f000 fd66 	bl	800451c <HAL_NVIC_SetPriority>
 8003a50:	2013      	movs	r0, #19
 8003a52:	f000 fd67 	bl	8004524 <HAL_NVIC_EnableIRQ>
 8003a56:	e7c5      	b.n	80039e4 <HAL_TIM_Base_MspInit+0x18>
 8003a58:	40012c00 	.word	0x40012c00
 8003a5c:	40000400 	.word	0x40000400
 8003a60:	40002000 	.word	0x40002000
 8003a64:	40021000 	.word	0x40021000

08003a68 <HAL_TIM_MspPostInit>:
 8003a68:	b510      	push	{r4, lr}
 8003a6a:	b088      	sub	sp, #32
 8003a6c:	0004      	movs	r4, r0
 8003a6e:	2214      	movs	r2, #20
 8003a70:	2100      	movs	r1, #0
 8003a72:	a803      	add	r0, sp, #12
 8003a74:	f002 f961 	bl	8005d3a <memset>
 8003a78:	6823      	ldr	r3, [r4, #0]
 8003a7a:	4a18      	ldr	r2, [pc, #96]	@ (8003adc <HAL_TIM_MspPostInit+0x74>)
 8003a7c:	4293      	cmp	r3, r2
 8003a7e:	d004      	beq.n	8003a8a <HAL_TIM_MspPostInit+0x22>
 8003a80:	4a17      	ldr	r2, [pc, #92]	@ (8003ae0 <HAL_TIM_MspPostInit+0x78>)
 8003a82:	4293      	cmp	r3, r2
 8003a84:	d015      	beq.n	8003ab2 <HAL_TIM_MspPostInit+0x4a>
 8003a86:	b008      	add	sp, #32
 8003a88:	bd10      	pop	{r4, pc}
 8003a8a:	4a16      	ldr	r2, [pc, #88]	@ (8003ae4 <HAL_TIM_MspPostInit+0x7c>)
 8003a8c:	6b51      	ldr	r1, [r2, #52]	@ 0x34
 8003a8e:	2301      	movs	r3, #1
 8003a90:	4319      	orrs	r1, r3
 8003a92:	6351      	str	r1, [r2, #52]	@ 0x34
 8003a94:	6b52      	ldr	r2, [r2, #52]	@ 0x34
 8003a96:	401a      	ands	r2, r3
 8003a98:	9201      	str	r2, [sp, #4]
 8003a9a:	9a01      	ldr	r2, [sp, #4]
 8003a9c:	9303      	str	r3, [sp, #12]
 8003a9e:	3301      	adds	r3, #1
 8003aa0:	9304      	str	r3, [sp, #16]
 8003aa2:	3303      	adds	r3, #3
 8003aa4:	9307      	str	r3, [sp, #28]
 8003aa6:	20a0      	movs	r0, #160	@ 0xa0
 8003aa8:	a903      	add	r1, sp, #12
 8003aaa:	05c0      	lsls	r0, r0, #23
 8003aac:	f000 feec 	bl	8004888 <HAL_GPIO_Init>
 8003ab0:	e7e9      	b.n	8003a86 <HAL_TIM_MspPostInit+0x1e>
 8003ab2:	4a0c      	ldr	r2, [pc, #48]	@ (8003ae4 <HAL_TIM_MspPostInit+0x7c>)
 8003ab4:	6b51      	ldr	r1, [r2, #52]	@ 0x34
 8003ab6:	2301      	movs	r3, #1
 8003ab8:	4319      	orrs	r1, r3
 8003aba:	6351      	str	r1, [r2, #52]	@ 0x34
 8003abc:	6b52      	ldr	r2, [r2, #52]	@ 0x34
 8003abe:	401a      	ands	r2, r3
 8003ac0:	9202      	str	r2, [sp, #8]
 8003ac2:	9a02      	ldr	r2, [sp, #8]
 8003ac4:	2240      	movs	r2, #64	@ 0x40
 8003ac6:	9203      	str	r2, [sp, #12]
 8003ac8:	3a3e      	subs	r2, #62	@ 0x3e
 8003aca:	9204      	str	r2, [sp, #16]
 8003acc:	9307      	str	r3, [sp, #28]
 8003ace:	20a0      	movs	r0, #160	@ 0xa0
 8003ad0:	a903      	add	r1, sp, #12
 8003ad2:	05c0      	lsls	r0, r0, #23
 8003ad4:	f000 fed8 	bl	8004888 <HAL_GPIO_Init>
 8003ad8:	e7d5      	b.n	8003a86 <HAL_TIM_MspPostInit+0x1e>
 8003ada:	46c0      	nop			@ (mov r8, r8)
 8003adc:	40012c00 	.word	0x40012c00
 8003ae0:	40000400 	.word	0x40000400
 8003ae4:	40021000 	.word	0x40021000

08003ae8 <NMI_Handler>:
 8003ae8:	e7fe      	b.n	8003ae8 <NMI_Handler>

08003aea <HardFault_Handler>:
 8003aea:	e7fe      	b.n	8003aea <HardFault_Handler>

08003aec <SVC_Handler>:
 8003aec:	4770      	bx	lr

08003aee <PendSV_Handler>:
 8003aee:	4770      	bx	lr

08003af0 <SysTick_Handler>:
 8003af0:	b510      	push	{r4, lr}
 8003af2:	f000 f88b 	bl	8003c0c <HAL_IncTick>
 8003af6:	bd10      	pop	{r4, pc}

08003af8 <DMA1_Channel1_IRQHandler>:
 8003af8:	b510      	push	{r4, lr}
 8003afa:	4802      	ldr	r0, [pc, #8]	@ (8003b04 <DMA1_Channel1_IRQHandler+0xc>)
 8003afc:	f000 fe5e 	bl	80047bc <HAL_DMA_IRQHandler>
 8003b00:	bd10      	pop	{r4, pc}
 8003b02:	46c0      	nop			@ (mov r8, r8)
 8003b04:	2000016c 	.word	0x2000016c

08003b08 <TIM1_CC_IRQHandler>:
 8003b08:	b510      	push	{r4, lr}
 8003b0a:	4802      	ldr	r0, [pc, #8]	@ (8003b14 <TIM1_CC_IRQHandler+0xc>)
 8003b0c:	f001 fc20 	bl	8005350 <HAL_TIM_IRQHandler>
 8003b10:	bd10      	pop	{r4, pc}
 8003b12:	46c0      	nop			@ (mov r8, r8)
 8003b14:	20000120 	.word	0x20000120

08003b18 <TIM3_IRQHandler>:
 8003b18:	b510      	push	{r4, lr}
 8003b1a:	4802      	ldr	r0, [pc, #8]	@ (8003b24 <TIM3_IRQHandler+0xc>)
 8003b1c:	f001 fc18 	bl	8005350 <HAL_TIM_IRQHandler>
 8003b20:	bd10      	pop	{r4, pc}
 8003b22:	46c0      	nop			@ (mov r8, r8)
 8003b24:	200000d4 	.word	0x200000d4

08003b28 <TIM14_IRQHandler>:
 8003b28:	b510      	push	{r4, lr}
 8003b2a:	4802      	ldr	r0, [pc, #8]	@ (8003b34 <TIM14_IRQHandler+0xc>)
 8003b2c:	f001 fc10 	bl	8005350 <HAL_TIM_IRQHandler>
 8003b30:	bd10      	pop	{r4, pc}
 8003b32:	46c0      	nop			@ (mov r8, r8)
 8003b34:	20000088 	.word	0x20000088

08003b38 <SystemInit>:
 8003b38:	4b02      	ldr	r3, [pc, #8]	@ (8003b44 <SystemInit+0xc>)
 8003b3a:	2280      	movs	r2, #128	@ 0x80
 8003b3c:	0512      	lsls	r2, r2, #20
 8003b3e:	609a      	str	r2, [r3, #8]
 8003b40:	4770      	bx	lr
 8003b42:	46c0      	nop			@ (mov r8, r8)
 8003b44:	e000ed00 	.word	0xe000ed00

08003b48 <Reset_Handler>:
 8003b48:	480d      	ldr	r0, [pc, #52]	@ (8003b80 <LoopForever+0x2>)
 8003b4a:	4685      	mov	sp, r0
 8003b4c:	f7ff fff4 	bl	8003b38 <SystemInit>
 8003b50:	2100      	movs	r1, #0
 8003b52:	e003      	b.n	8003b5c <LoopCopyDataInit>

08003b54 <CopyDataInit>:
 8003b54:	4b0b      	ldr	r3, [pc, #44]	@ (8003b84 <LoopForever+0x6>)
 8003b56:	585b      	ldr	r3, [r3, r1]
 8003b58:	5043      	str	r3, [r0, r1]
 8003b5a:	3104      	adds	r1, #4

08003b5c <LoopCopyDataInit>:
 8003b5c:	480a      	ldr	r0, [pc, #40]	@ (8003b88 <LoopForever+0xa>)
 8003b5e:	4b0b      	ldr	r3, [pc, #44]	@ (8003b8c <LoopForever+0xe>)
 8003b60:	1842      	adds	r2, r0, r1
 8003b62:	429a      	cmp	r2, r3
 8003b64:	d3f6      	bcc.n	8003b54 <CopyDataInit>
 8003b66:	4a0a      	ldr	r2, [pc, #40]	@ (8003b90 <LoopForever+0x12>)
 8003b68:	e002      	b.n	8003b70 <LoopFillZerobss>

08003b6a <FillZerobss>:
 8003b6a:	2300      	movs	r3, #0
 8003b6c:	6013      	str	r3, [r2, #0]
 8003b6e:	3204      	adds	r2, #4

08003b70 <LoopFillZerobss>:
 8003b70:	4b08      	ldr	r3, [pc, #32]	@ (8003b94 <LoopForever+0x16>)
 8003b72:	429a      	cmp	r2, r3
 8003b74:	d3f9      	bcc.n	8003b6a <FillZerobss>
 8003b76:	f002 f8ef 	bl	8005d58 <__libc_init_array>
 8003b7a:	f7ff fd2d 	bl	80035d8 <main>

08003b7e <LoopForever>:
 8003b7e:	e7fe      	b.n	8003b7e <LoopForever>
 8003b80:	20001800 	.word	0x20001800
 8003b84:	08006464 	.word	0x08006464
 8003b88:	20000000 	.word	0x20000000
 8003b8c:	20000060 	.word	0x20000060
 8003b90:	20000060 	.word	0x20000060
 8003b94:	20000418 	.word	0x20000418

08003b98 <ADC1_IRQHandler>:
 8003b98:	e7fe      	b.n	8003b98 <ADC1_IRQHandler>
	...

08003b9c <HAL_InitTick>:
 8003b9c:	b510      	push	{r4, lr}
 8003b9e:	0004      	movs	r4, r0
 8003ba0:	4b11      	ldr	r3, [pc, #68]	@ (8003be8 <HAL_InitTick+0x4c>)
 8003ba2:	7819      	ldrb	r1, [r3, #0]
 8003ba4:	2900      	cmp	r1, #0
 8003ba6:	d101      	bne.n	8003bac <HAL_InitTick+0x10>
 8003ba8:	2001      	movs	r0, #1
 8003baa:	bd10      	pop	{r4, pc}
 8003bac:	20fa      	movs	r0, #250	@ 0xfa
 8003bae:	0080      	lsls	r0, r0, #2
 8003bb0:	f7fc faaa 	bl	8000108 <__udivsi3>
 8003bb4:	0001      	movs	r1, r0
 8003bb6:	4b0d      	ldr	r3, [pc, #52]	@ (8003bec <HAL_InitTick+0x50>)
 8003bb8:	6818      	ldr	r0, [r3, #0]
 8003bba:	f7fc faa5 	bl	8000108 <__udivsi3>
 8003bbe:	f000 fcbd 	bl	800453c <HAL_SYSTICK_Config>
 8003bc2:	2800      	cmp	r0, #0
 8003bc4:	d10d      	bne.n	8003be2 <HAL_InitTick+0x46>
 8003bc6:	2c03      	cmp	r4, #3
 8003bc8:	d901      	bls.n	8003bce <HAL_InitTick+0x32>
 8003bca:	2001      	movs	r0, #1
 8003bcc:	e7ed      	b.n	8003baa <HAL_InitTick+0xe>
 8003bce:	3001      	adds	r0, #1
 8003bd0:	2200      	movs	r2, #0
 8003bd2:	0021      	movs	r1, r4
 8003bd4:	4240      	negs	r0, r0
 8003bd6:	f000 fca1 	bl	800451c <HAL_NVIC_SetPriority>
 8003bda:	4b05      	ldr	r3, [pc, #20]	@ (8003bf0 <HAL_InitTick+0x54>)
 8003bdc:	601c      	str	r4, [r3, #0]
 8003bde:	2000      	movs	r0, #0
 8003be0:	e7e3      	b.n	8003baa <HAL_InitTick+0xe>
 8003be2:	2001      	movs	r0, #1
 8003be4:	e7e1      	b.n	8003baa <HAL_InitTick+0xe>
 8003be6:	46c0      	nop			@ (mov r8, r8)
 8003be8:	20000008 	.word	0x20000008
 8003bec:	20000004 	.word	0x20000004
 8003bf0:	2000000c 	.word	0x2000000c

08003bf4 <HAL_Init>:
 8003bf4:	b510      	push	{r4, lr}
 8003bf6:	2001      	movs	r0, #1
 8003bf8:	f7ff ffd0 	bl	8003b9c <HAL_InitTick>
 8003bfc:	1e04      	subs	r4, r0, #0
 8003bfe:	d002      	beq.n	8003c06 <HAL_Init+0x12>
 8003c00:	2401      	movs	r4, #1
 8003c02:	0020      	movs	r0, r4
 8003c04:	bd10      	pop	{r4, pc}
 8003c06:	f7ff fe61 	bl	80038cc <HAL_MspInit>
 8003c0a:	e7fa      	b.n	8003c02 <HAL_Init+0xe>

08003c0c <HAL_IncTick>:
 8003c0c:	4b03      	ldr	r3, [pc, #12]	@ (8003c1c <HAL_IncTick+0x10>)
 8003c0e:	781b      	ldrb	r3, [r3, #0]
 8003c10:	4a03      	ldr	r2, [pc, #12]	@ (8003c20 <HAL_IncTick+0x14>)
 8003c12:	6811      	ldr	r1, [r2, #0]
 8003c14:	185b      	adds	r3, r3, r1
 8003c16:	6013      	str	r3, [r2, #0]
 8003c18:	4770      	bx	lr
 8003c1a:	46c0      	nop			@ (mov r8, r8)
 8003c1c:	20000008 	.word	0x20000008
 8003c20:	200002dc 	.word	0x200002dc

08003c24 <HAL_GetTick>:
 8003c24:	4b01      	ldr	r3, [pc, #4]	@ (8003c2c <HAL_GetTick+0x8>)
 8003c26:	6818      	ldr	r0, [r3, #0]
 8003c28:	4770      	bx	lr
 8003c2a:	46c0      	nop			@ (mov r8, r8)
 8003c2c:	200002dc 	.word	0x200002dc

08003c30 <HAL_ADC_Init>:
 8003c30:	b530      	push	{r4, r5, lr}
 8003c32:	b083      	sub	sp, #12
 8003c34:	0004      	movs	r4, r0
 8003c36:	2300      	movs	r3, #0
 8003c38:	9301      	str	r3, [sp, #4]
 8003c3a:	2800      	cmp	r0, #0
 8003c3c:	d100      	bne.n	8003c40 <HAL_ADC_Init+0x10>
 8003c3e:	e105      	b.n	8003e4c <HAL_ADC_Init+0x21c>
 8003c40:	6d83      	ldr	r3, [r0, #88]	@ 0x58
 8003c42:	2b00      	cmp	r3, #0
 8003c44:	d012      	beq.n	8003c6c <HAL_ADC_Init+0x3c>
 8003c46:	6823      	ldr	r3, [r4, #0]
 8003c48:	689a      	ldr	r2, [r3, #8]
 8003c4a:	00d2      	lsls	r2, r2, #3
 8003c4c:	d41b      	bmi.n	8003c86 <HAL_ADC_Init+0x56>
 8003c4e:	6899      	ldr	r1, [r3, #8]
 8003c50:	4a7f      	ldr	r2, [pc, #508]	@ (8003e50 <HAL_ADC_Init+0x220>)
 8003c52:	4011      	ands	r1, r2
 8003c54:	2280      	movs	r2, #128	@ 0x80
 8003c56:	0552      	lsls	r2, r2, #21
 8003c58:	430a      	orrs	r2, r1
 8003c5a:	609a      	str	r2, [r3, #8]
 8003c5c:	4b7d      	ldr	r3, [pc, #500]	@ (8003e54 <HAL_ADC_Init+0x224>)
 8003c5e:	6818      	ldr	r0, [r3, #0]
 8003c60:	497d      	ldr	r1, [pc, #500]	@ (8003e58 <HAL_ADC_Init+0x228>)
 8003c62:	f7fc fa51 	bl	8000108 <__udivsi3>
 8003c66:	0040      	lsls	r0, r0, #1
 8003c68:	9001      	str	r0, [sp, #4]
 8003c6a:	e009      	b.n	8003c80 <HAL_ADC_Init+0x50>
 8003c6c:	f7ff fe4c 	bl	8003908 <HAL_ADC_MspInit>
 8003c70:	2300      	movs	r3, #0
 8003c72:	65e3      	str	r3, [r4, #92]	@ 0x5c
 8003c74:	2254      	movs	r2, #84	@ 0x54
 8003c76:	54a3      	strb	r3, [r4, r2]
 8003c78:	e7e5      	b.n	8003c46 <HAL_ADC_Init+0x16>
 8003c7a:	9b01      	ldr	r3, [sp, #4]
 8003c7c:	3b01      	subs	r3, #1
 8003c7e:	9301      	str	r3, [sp, #4]
 8003c80:	9b01      	ldr	r3, [sp, #4]
 8003c82:	2b00      	cmp	r3, #0
 8003c84:	d1f9      	bne.n	8003c7a <HAL_ADC_Init+0x4a>
 8003c86:	6823      	ldr	r3, [r4, #0]
 8003c88:	689a      	ldr	r2, [r3, #8]
 8003c8a:	00d2      	lsls	r2, r2, #3
 8003c8c:	d500      	bpl.n	8003c90 <HAL_ADC_Init+0x60>
 8003c8e:	e09d      	b.n	8003dcc <HAL_ADC_Init+0x19c>
 8003c90:	6da2      	ldr	r2, [r4, #88]	@ 0x58
 8003c92:	2110      	movs	r1, #16
 8003c94:	430a      	orrs	r2, r1
 8003c96:	65a2      	str	r2, [r4, #88]	@ 0x58
 8003c98:	6de2      	ldr	r2, [r4, #92]	@ 0x5c
 8003c9a:	390f      	subs	r1, #15
 8003c9c:	430a      	orrs	r2, r1
 8003c9e:	65e2      	str	r2, [r4, #92]	@ 0x5c
 8003ca0:	2001      	movs	r0, #1
 8003ca2:	689a      	ldr	r2, [r3, #8]
 8003ca4:	2104      	movs	r1, #4
 8003ca6:	000d      	movs	r5, r1
 8003ca8:	4015      	ands	r5, r2
 8003caa:	4211      	tst	r1, r2
 8003cac:	d000      	beq.n	8003cb0 <HAL_ADC_Init+0x80>
 8003cae:	2501      	movs	r5, #1
 8003cb0:	6da2      	ldr	r2, [r4, #88]	@ 0x58
 8003cb2:	06d2      	lsls	r2, r2, #27
 8003cb4:	d500      	bpl.n	8003cb8 <HAL_ADC_Init+0x88>
 8003cb6:	e0c2      	b.n	8003e3e <HAL_ADC_Init+0x20e>
 8003cb8:	2d00      	cmp	r5, #0
 8003cba:	d000      	beq.n	8003cbe <HAL_ADC_Init+0x8e>
 8003cbc:	e0bf      	b.n	8003e3e <HAL_ADC_Init+0x20e>
 8003cbe:	6da2      	ldr	r2, [r4, #88]	@ 0x58
 8003cc0:	4966      	ldr	r1, [pc, #408]	@ (8003e5c <HAL_ADC_Init+0x22c>)
 8003cc2:	400a      	ands	r2, r1
 8003cc4:	3106      	adds	r1, #6
 8003cc6:	31ff      	adds	r1, #255	@ 0xff
 8003cc8:	430a      	orrs	r2, r1
 8003cca:	65a2      	str	r2, [r4, #88]	@ 0x58
 8003ccc:	689a      	ldr	r2, [r3, #8]
 8003cce:	07d2      	lsls	r2, r2, #31
 8003cd0:	d452      	bmi.n	8003d78 <HAL_ADC_Init+0x148>
 8003cd2:	68a2      	ldr	r2, [r4, #8]
 8003cd4:	7e21      	ldrb	r1, [r4, #24]
 8003cd6:	0389      	lsls	r1, r1, #14
 8003cd8:	430a      	orrs	r2, r1
 8003cda:	7e61      	ldrb	r1, [r4, #25]
 8003cdc:	03c9      	lsls	r1, r1, #15
 8003cde:	430a      	orrs	r2, r1
 8003ce0:	7ea5      	ldrb	r5, [r4, #26]
 8003ce2:	0369      	lsls	r1, r5, #13
 8003ce4:	430a      	orrs	r2, r1
 8003ce6:	6b21      	ldr	r1, [r4, #48]	@ 0x30
 8003ce8:	2900      	cmp	r1, #0
 8003cea:	d001      	beq.n	8003cf0 <HAL_ADC_Init+0xc0>
 8003cec:	2180      	movs	r1, #128	@ 0x80
 8003cee:	0149      	lsls	r1, r1, #5
 8003cf0:	430a      	orrs	r2, r1
 8003cf2:	68e1      	ldr	r1, [r4, #12]
 8003cf4:	430a      	orrs	r2, r1
 8003cf6:	6921      	ldr	r1, [r4, #16]
 8003cf8:	2900      	cmp	r1, #0
 8003cfa:	db69      	blt.n	8003dd0 <HAL_ADC_Init+0x1a0>
 8003cfc:	2180      	movs	r1, #128	@ 0x80
 8003cfe:	0389      	lsls	r1, r1, #14
 8003d00:	430a      	orrs	r2, r1
 8003d02:	212c      	movs	r1, #44	@ 0x2c
 8003d04:	5c61      	ldrb	r1, [r4, r1]
 8003d06:	0049      	lsls	r1, r1, #1
 8003d08:	430a      	orrs	r2, r1
 8003d0a:	2120      	movs	r1, #32
 8003d0c:	5c61      	ldrb	r1, [r4, r1]
 8003d0e:	2901      	cmp	r1, #1
 8003d10:	d061      	beq.n	8003dd6 <HAL_ADC_Init+0x1a6>
 8003d12:	6a61      	ldr	r1, [r4, #36]	@ 0x24
 8003d14:	2900      	cmp	r1, #0
 8003d16:	d005      	beq.n	8003d24 <HAL_ADC_Init+0xf4>
 8003d18:	25e0      	movs	r5, #224	@ 0xe0
 8003d1a:	006d      	lsls	r5, r5, #1
 8003d1c:	4029      	ands	r1, r5
 8003d1e:	6aa5      	ldr	r5, [r4, #40]	@ 0x28
 8003d20:	4329      	orrs	r1, r5
 8003d22:	430a      	orrs	r2, r1
 8003d24:	68d9      	ldr	r1, [r3, #12]
 8003d26:	4d4e      	ldr	r5, [pc, #312]	@ (8003e60 <HAL_ADC_Init+0x230>)
 8003d28:	4029      	ands	r1, r5
 8003d2a:	430a      	orrs	r2, r1
 8003d2c:	60da      	str	r2, [r3, #12]
 8003d2e:	6863      	ldr	r3, [r4, #4]
 8003d30:	0f9b      	lsrs	r3, r3, #30
 8003d32:	079b      	lsls	r3, r3, #30
 8003d34:	6ce2      	ldr	r2, [r4, #76]	@ 0x4c
 8003d36:	431a      	orrs	r2, r3
 8003d38:	213c      	movs	r1, #60	@ 0x3c
 8003d3a:	5c61      	ldrb	r1, [r4, r1]
 8003d3c:	2901      	cmp	r1, #1
 8003d3e:	d059      	beq.n	8003df4 <HAL_ADC_Init+0x1c4>
 8003d40:	6821      	ldr	r1, [r4, #0]
 8003d42:	690b      	ldr	r3, [r1, #16]
 8003d44:	4d47      	ldr	r5, [pc, #284]	@ (8003e64 <HAL_ADC_Init+0x234>)
 8003d46:	402b      	ands	r3, r5
 8003d48:	4313      	orrs	r3, r2
 8003d4a:	610b      	str	r3, [r1, #16]
 8003d4c:	6863      	ldr	r3, [r4, #4]
 8003d4e:	22c0      	movs	r2, #192	@ 0xc0
 8003d50:	0612      	lsls	r2, r2, #24
 8003d52:	4293      	cmp	r3, r2
 8003d54:	d010      	beq.n	8003d78 <HAL_ADC_Init+0x148>
 8003d56:	2280      	movs	r2, #128	@ 0x80
 8003d58:	05d2      	lsls	r2, r2, #23
 8003d5a:	4293      	cmp	r3, r2
 8003d5c:	d00c      	beq.n	8003d78 <HAL_ADC_Init+0x148>
 8003d5e:	2280      	movs	r2, #128	@ 0x80
 8003d60:	0612      	lsls	r2, r2, #24
 8003d62:	4293      	cmp	r3, r2
 8003d64:	d008      	beq.n	8003d78 <HAL_ADC_Init+0x148>
 8003d66:	4940      	ldr	r1, [pc, #256]	@ (8003e68 <HAL_ADC_Init+0x238>)
 8003d68:	680a      	ldr	r2, [r1, #0]
 8003d6a:	4d40      	ldr	r5, [pc, #256]	@ (8003e6c <HAL_ADC_Init+0x23c>)
 8003d6c:	402a      	ands	r2, r5
 8003d6e:	25f0      	movs	r5, #240	@ 0xf0
 8003d70:	03ad      	lsls	r5, r5, #14
 8003d72:	402b      	ands	r3, r5
 8003d74:	4313      	orrs	r3, r2
 8003d76:	600b      	str	r3, [r1, #0]
 8003d78:	6821      	ldr	r1, [r4, #0]
 8003d7a:	6b63      	ldr	r3, [r4, #52]	@ 0x34
 8003d7c:	694a      	ldr	r2, [r1, #20]
 8003d7e:	2507      	movs	r5, #7
 8003d80:	43aa      	bics	r2, r5
 8003d82:	4313      	orrs	r3, r2
 8003d84:	614b      	str	r3, [r1, #20]
 8003d86:	6821      	ldr	r1, [r4, #0]
 8003d88:	6ba2      	ldr	r2, [r4, #56]	@ 0x38
 8003d8a:	694b      	ldr	r3, [r1, #20]
 8003d8c:	3569      	adds	r5, #105	@ 0x69
 8003d8e:	43ab      	bics	r3, r5
 8003d90:	0112      	lsls	r2, r2, #4
 8003d92:	4313      	orrs	r3, r2
 8003d94:	614b      	str	r3, [r1, #20]
 8003d96:	6923      	ldr	r3, [r4, #16]
 8003d98:	2b00      	cmp	r3, #0
 8003d9a:	d135      	bne.n	8003e08 <HAL_ADC_Init+0x1d8>
 8003d9c:	6822      	ldr	r2, [r4, #0]
 8003d9e:	6a91      	ldr	r1, [r2, #40]	@ 0x28
 8003da0:	3b10      	subs	r3, #16
 8003da2:	430b      	orrs	r3, r1
 8003da4:	6293      	str	r3, [r2, #40]	@ 0x28
 8003da6:	6823      	ldr	r3, [r4, #0]
 8003da8:	695a      	ldr	r2, [r3, #20]
 8003daa:	2307      	movs	r3, #7
 8003dac:	4013      	ands	r3, r2
 8003dae:	6b62      	ldr	r2, [r4, #52]	@ 0x34
 8003db0:	429a      	cmp	r2, r3
 8003db2:	d03b      	beq.n	8003e2c <HAL_ADC_Init+0x1fc>
 8003db4:	6da3      	ldr	r3, [r4, #88]	@ 0x58
 8003db6:	2212      	movs	r2, #18
 8003db8:	4393      	bics	r3, r2
 8003dba:	3a02      	subs	r2, #2
 8003dbc:	4313      	orrs	r3, r2
 8003dbe:	65a3      	str	r3, [r4, #88]	@ 0x58
 8003dc0:	6de3      	ldr	r3, [r4, #92]	@ 0x5c
 8003dc2:	3a0f      	subs	r2, #15
 8003dc4:	4313      	orrs	r3, r2
 8003dc6:	65e3      	str	r3, [r4, #92]	@ 0x5c
 8003dc8:	2001      	movs	r0, #1
 8003dca:	e03d      	b.n	8003e48 <HAL_ADC_Init+0x218>
 8003dcc:	2000      	movs	r0, #0
 8003dce:	e768      	b.n	8003ca2 <HAL_ADC_Init+0x72>
 8003dd0:	0049      	lsls	r1, r1, #1
 8003dd2:	0849      	lsrs	r1, r1, #1
 8003dd4:	e794      	b.n	8003d00 <HAL_ADC_Init+0xd0>
 8003dd6:	2d00      	cmp	r5, #0
 8003dd8:	d103      	bne.n	8003de2 <HAL_ADC_Init+0x1b2>
 8003dda:	2180      	movs	r1, #128	@ 0x80
 8003ddc:	0249      	lsls	r1, r1, #9
 8003dde:	430a      	orrs	r2, r1
 8003de0:	e797      	b.n	8003d12 <HAL_ADC_Init+0xe2>
 8003de2:	6da1      	ldr	r1, [r4, #88]	@ 0x58
 8003de4:	2520      	movs	r5, #32
 8003de6:	4329      	orrs	r1, r5
 8003de8:	65a1      	str	r1, [r4, #88]	@ 0x58
 8003dea:	6de1      	ldr	r1, [r4, #92]	@ 0x5c
 8003dec:	3d1f      	subs	r5, #31
 8003dee:	4329      	orrs	r1, r5
 8003df0:	65e1      	str	r1, [r4, #92]	@ 0x5c
 8003df2:	e78e      	b.n	8003d12 <HAL_ADC_Init+0xe2>
 8003df4:	6c21      	ldr	r1, [r4, #64]	@ 0x40
 8003df6:	430b      	orrs	r3, r1
 8003df8:	6c61      	ldr	r1, [r4, #68]	@ 0x44
 8003dfa:	430b      	orrs	r3, r1
 8003dfc:	6ca1      	ldr	r1, [r4, #72]	@ 0x48
 8003dfe:	430b      	orrs	r3, r1
 8003e00:	4313      	orrs	r3, r2
 8003e02:	2201      	movs	r2, #1
 8003e04:	431a      	orrs	r2, r3
 8003e06:	e79b      	b.n	8003d40 <HAL_ADC_Init+0x110>
 8003e08:	2280      	movs	r2, #128	@ 0x80
 8003e0a:	0392      	lsls	r2, r2, #14
 8003e0c:	4293      	cmp	r3, r2
 8003e0e:	d1ca      	bne.n	8003da6 <HAL_ADC_Init+0x176>
 8003e10:	6821      	ldr	r1, [r4, #0]
 8003e12:	6a8b      	ldr	r3, [r1, #40]	@ 0x28
 8003e14:	69e3      	ldr	r3, [r4, #28]
 8003e16:	3b01      	subs	r3, #1
 8003e18:	009b      	lsls	r3, r3, #2
 8003e1a:	221c      	movs	r2, #28
 8003e1c:	401a      	ands	r2, r3
 8003e1e:	2310      	movs	r3, #16
 8003e20:	425b      	negs	r3, r3
 8003e22:	4093      	lsls	r3, r2
 8003e24:	6e22      	ldr	r2, [r4, #96]	@ 0x60
 8003e26:	4313      	orrs	r3, r2
 8003e28:	628b      	str	r3, [r1, #40]	@ 0x28
 8003e2a:	e7bc      	b.n	8003da6 <HAL_ADC_Init+0x176>
 8003e2c:	2300      	movs	r3, #0
 8003e2e:	65e3      	str	r3, [r4, #92]	@ 0x5c
 8003e30:	6da3      	ldr	r3, [r4, #88]	@ 0x58
 8003e32:	2203      	movs	r2, #3
 8003e34:	4393      	bics	r3, r2
 8003e36:	3a02      	subs	r2, #2
 8003e38:	4313      	orrs	r3, r2
 8003e3a:	65a3      	str	r3, [r4, #88]	@ 0x58
 8003e3c:	e004      	b.n	8003e48 <HAL_ADC_Init+0x218>
 8003e3e:	6da3      	ldr	r3, [r4, #88]	@ 0x58
 8003e40:	2210      	movs	r2, #16
 8003e42:	4313      	orrs	r3, r2
 8003e44:	65a3      	str	r3, [r4, #88]	@ 0x58
 8003e46:	2001      	movs	r0, #1
 8003e48:	b003      	add	sp, #12
 8003e4a:	bd30      	pop	{r4, r5, pc}
 8003e4c:	2001      	movs	r0, #1
 8003e4e:	e7fb      	b.n	8003e48 <HAL_ADC_Init+0x218>
 8003e50:	6fffffe8 	.word	0x6fffffe8
 8003e54:	20000004 	.word	0x20000004
 8003e58:	00030d40 	.word	0x00030d40
 8003e5c:	fffffefd 	.word	0xfffffefd
 8003e60:	ffde0201 	.word	0xffde0201
 8003e64:	1ffffc02 	.word	0x1ffffc02
 8003e68:	40012708 	.word	0x40012708
 8003e6c:	ffc3ffff 	.word	0xffc3ffff

08003e70 <HAL_ADC_ConvHalfCpltCallback>:
 8003e70:	4770      	bx	lr

08003e72 <ADC_DMAHalfConvCplt>:
 8003e72:	b510      	push	{r4, lr}
 8003e74:	6a80      	ldr	r0, [r0, #40]	@ 0x28
 8003e76:	f7ff fffb 	bl	8003e70 <HAL_ADC_ConvHalfCpltCallback>
 8003e7a:	bd10      	pop	{r4, pc}

08003e7c <HAL_ADC_ErrorCallback>:
 8003e7c:	4770      	bx	lr

08003e7e <ADC_DMAError>:
 8003e7e:	b510      	push	{r4, lr}
 8003e80:	6a80      	ldr	r0, [r0, #40]	@ 0x28
 8003e82:	6d83      	ldr	r3, [r0, #88]	@ 0x58
 8003e84:	2240      	movs	r2, #64	@ 0x40
 8003e86:	4313      	orrs	r3, r2
 8003e88:	6583      	str	r3, [r0, #88]	@ 0x58
 8003e8a:	6dc3      	ldr	r3, [r0, #92]	@ 0x5c
 8003e8c:	3a3c      	subs	r2, #60	@ 0x3c
 8003e8e:	4313      	orrs	r3, r2
 8003e90:	65c3      	str	r3, [r0, #92]	@ 0x5c
 8003e92:	f7ff fff3 	bl	8003e7c <HAL_ADC_ErrorCallback>
 8003e96:	bd10      	pop	{r4, pc}

08003e98 <ADC_DMAConvCplt>:
 8003e98:	b510      	push	{r4, lr}
 8003e9a:	0003      	movs	r3, r0
 8003e9c:	6a80      	ldr	r0, [r0, #40]	@ 0x28
 8003e9e:	6d82      	ldr	r2, [r0, #88]	@ 0x58
 8003ea0:	2150      	movs	r1, #80	@ 0x50
 8003ea2:	4211      	tst	r1, r2
 8003ea4:	d12a      	bne.n	8003efc <ADC_DMAConvCplt+0x64>
 8003ea6:	6d82      	ldr	r2, [r0, #88]	@ 0x58
 8003ea8:	2380      	movs	r3, #128	@ 0x80
 8003eaa:	009b      	lsls	r3, r3, #2
 8003eac:	4313      	orrs	r3, r2
 8003eae:	6583      	str	r3, [r0, #88]	@ 0x58
 8003eb0:	6803      	ldr	r3, [r0, #0]
 8003eb2:	68d9      	ldr	r1, [r3, #12]
 8003eb4:	22c0      	movs	r2, #192	@ 0xc0
 8003eb6:	0112      	lsls	r2, r2, #4
 8003eb8:	4211      	tst	r1, r2
 8003eba:	d113      	bne.n	8003ee4 <ADC_DMAConvCplt+0x4c>
 8003ebc:	7e82      	ldrb	r2, [r0, #26]
 8003ebe:	2a00      	cmp	r2, #0
 8003ec0:	d110      	bne.n	8003ee4 <ADC_DMAConvCplt+0x4c>
 8003ec2:	681a      	ldr	r2, [r3, #0]
 8003ec4:	0712      	lsls	r2, r2, #28
 8003ec6:	d50d      	bpl.n	8003ee4 <ADC_DMAConvCplt+0x4c>
 8003ec8:	689a      	ldr	r2, [r3, #8]
 8003eca:	0752      	lsls	r2, r2, #29
 8003ecc:	d40d      	bmi.n	8003eea <ADC_DMAConvCplt+0x52>
 8003ece:	685a      	ldr	r2, [r3, #4]
 8003ed0:	210c      	movs	r1, #12
 8003ed2:	438a      	bics	r2, r1
 8003ed4:	605a      	str	r2, [r3, #4]
 8003ed6:	6d83      	ldr	r3, [r0, #88]	@ 0x58
 8003ed8:	4a0e      	ldr	r2, [pc, #56]	@ (8003f14 <ADC_DMAConvCplt+0x7c>)
 8003eda:	4013      	ands	r3, r2
 8003edc:	3204      	adds	r2, #4
 8003ede:	32ff      	adds	r2, #255	@ 0xff
 8003ee0:	4313      	orrs	r3, r2
 8003ee2:	6583      	str	r3, [r0, #88]	@ 0x58
 8003ee4:	f7ff f912 	bl	800310c <HAL_ADC_ConvCpltCallback>
 8003ee8:	bd10      	pop	{r4, pc}
 8003eea:	6d83      	ldr	r3, [r0, #88]	@ 0x58
 8003eec:	2220      	movs	r2, #32
 8003eee:	4313      	orrs	r3, r2
 8003ef0:	6583      	str	r3, [r0, #88]	@ 0x58
 8003ef2:	6dc3      	ldr	r3, [r0, #92]	@ 0x5c
 8003ef4:	3a1f      	subs	r2, #31
 8003ef6:	4313      	orrs	r3, r2
 8003ef8:	65c3      	str	r3, [r0, #92]	@ 0x5c
 8003efa:	e7f3      	b.n	8003ee4 <ADC_DMAConvCplt+0x4c>
 8003efc:	6d82      	ldr	r2, [r0, #88]	@ 0x58
 8003efe:	06d2      	lsls	r2, r2, #27
 8003f00:	d404      	bmi.n	8003f0c <ADC_DMAConvCplt+0x74>
 8003f02:	6d02      	ldr	r2, [r0, #80]	@ 0x50
 8003f04:	6b52      	ldr	r2, [r2, #52]	@ 0x34
 8003f06:	0018      	movs	r0, r3
 8003f08:	4790      	blx	r2
 8003f0a:	e7ed      	b.n	8003ee8 <ADC_DMAConvCplt+0x50>
 8003f0c:	f7ff ffb6 	bl	8003e7c <HAL_ADC_ErrorCallback>
 8003f10:	e7ea      	b.n	8003ee8 <ADC_DMAConvCplt+0x50>
 8003f12:	46c0      	nop			@ (mov r8, r8)
 8003f14:	fffffefe 	.word	0xfffffefe

08003f18 <HAL_ADC_ConfigChannel>:
 8003f18:	b5f0      	push	{r4, r5, r6, r7, lr}
 8003f1a:	b083      	sub	sp, #12
 8003f1c:	0004      	movs	r4, r0
 8003f1e:	2300      	movs	r3, #0
 8003f20:	9301      	str	r3, [sp, #4]
 8003f22:	6905      	ldr	r5, [r0, #16]
 8003f24:	3354      	adds	r3, #84	@ 0x54
 8003f26:	5cc3      	ldrb	r3, [r0, r3]
 8003f28:	2b01      	cmp	r3, #1
 8003f2a:	d100      	bne.n	8003f2e <HAL_ADC_ConfigChannel+0x16>
 8003f2c:	e121      	b.n	8004172 <HAL_ADC_ConfigChannel+0x25a>
 8003f2e:	2354      	movs	r3, #84	@ 0x54
 8003f30:	2201      	movs	r2, #1
 8003f32:	54c2      	strb	r2, [r0, r3]
 8003f34:	6800      	ldr	r0, [r0, #0]
 8003f36:	6883      	ldr	r3, [r0, #8]
 8003f38:	3203      	adds	r2, #3
 8003f3a:	0016      	movs	r6, r2
 8003f3c:	401e      	ands	r6, r3
 8003f3e:	421a      	tst	r2, r3
 8003f40:	d009      	beq.n	8003f56 <HAL_ADC_ConfigChannel+0x3e>
 8003f42:	6da3      	ldr	r3, [r4, #88]	@ 0x58
 8003f44:	321c      	adds	r2, #28
 8003f46:	4313      	orrs	r3, r2
 8003f48:	65a3      	str	r3, [r4, #88]	@ 0x58
 8003f4a:	2001      	movs	r0, #1
 8003f4c:	2354      	movs	r3, #84	@ 0x54
 8003f4e:	2200      	movs	r2, #0
 8003f50:	54e2      	strb	r2, [r4, r3]
 8003f52:	b003      	add	sp, #12
 8003f54:	bdf0      	pop	{r4, r5, r6, r7, pc}
 8003f56:	684b      	ldr	r3, [r1, #4]
 8003f58:	2b02      	cmp	r3, #2
 8003f5a:	d100      	bne.n	8003f5e <HAL_ADC_ConfigChannel+0x46>
 8003f5c:	e0d5      	b.n	800410a <HAL_ADC_ConfigChannel+0x1f2>
 8003f5e:	2280      	movs	r2, #128	@ 0x80
 8003f60:	0612      	lsls	r2, r2, #24
 8003f62:	4295      	cmp	r5, r2
 8003f64:	d025      	beq.n	8003fb2 <HAL_ADC_ConfigChannel+0x9a>
 8003f66:	4a84      	ldr	r2, [pc, #528]	@ (8004178 <HAL_ADC_ConfigChannel+0x260>)
 8003f68:	4295      	cmp	r5, r2
 8003f6a:	d022      	beq.n	8003fb2 <HAL_ADC_ConfigChannel+0x9a>
 8003f6c:	6e22      	ldr	r2, [r4, #96]	@ 0x60
 8003f6e:	271f      	movs	r7, #31
 8003f70:	401f      	ands	r7, r3
 8003f72:	250f      	movs	r5, #15
 8003f74:	40bd      	lsls	r5, r7
 8003f76:	43aa      	bics	r2, r5
 8003f78:	680b      	ldr	r3, [r1, #0]
 8003f7a:	025d      	lsls	r5, r3, #9
 8003f7c:	d12f      	bne.n	8003fde <HAL_ADC_ConfigChannel+0xc6>
 8003f7e:	0e9b      	lsrs	r3, r3, #26
 8003f80:	261f      	movs	r6, #31
 8003f82:	401e      	ands	r6, r3
 8003f84:	40be      	lsls	r6, r7
 8003f86:	4332      	orrs	r2, r6
 8003f88:	6622      	str	r2, [r4, #96]	@ 0x60
 8003f8a:	684d      	ldr	r5, [r1, #4]
 8003f8c:	08ab      	lsrs	r3, r5, #2
 8003f8e:	3301      	adds	r3, #1
 8003f90:	69e2      	ldr	r2, [r4, #28]
 8003f92:	4293      	cmp	r3, r2
 8003f94:	d813      	bhi.n	8003fbe <HAL_ADC_ConfigChannel+0xa6>
 8003f96:	680e      	ldr	r6, [r1, #0]
 8003f98:	6a82      	ldr	r2, [r0, #40]	@ 0x28
 8003f9a:	231f      	movs	r3, #31
 8003f9c:	401d      	ands	r5, r3
 8003f9e:	3b10      	subs	r3, #16
 8003fa0:	001f      	movs	r7, r3
 8003fa2:	40af      	lsls	r7, r5
 8003fa4:	43ba      	bics	r2, r7
 8003fa6:	0eb6      	lsrs	r6, r6, #26
 8003fa8:	4033      	ands	r3, r6
 8003faa:	40ab      	lsls	r3, r5
 8003fac:	4313      	orrs	r3, r2
 8003fae:	6283      	str	r3, [r0, #40]	@ 0x28
 8003fb0:	e005      	b.n	8003fbe <HAL_ADC_ConfigChannel+0xa6>
 8003fb2:	680b      	ldr	r3, [r1, #0]
 8003fb4:	6a82      	ldr	r2, [r0, #40]	@ 0x28
 8003fb6:	025b      	lsls	r3, r3, #9
 8003fb8:	0a5b      	lsrs	r3, r3, #9
 8003fba:	4313      	orrs	r3, r2
 8003fbc:	6283      	str	r3, [r0, #40]	@ 0x28
 8003fbe:	6820      	ldr	r0, [r4, #0]
 8003fc0:	680b      	ldr	r3, [r1, #0]
 8003fc2:	688d      	ldr	r5, [r1, #8]
 8003fc4:	6942      	ldr	r2, [r0, #20]
 8003fc6:	021b      	lsls	r3, r3, #8
 8003fc8:	439a      	bics	r2, r3
 8003fca:	402b      	ands	r3, r5
 8003fcc:	4d6b      	ldr	r5, [pc, #428]	@ (800417c <HAL_ADC_ConfigChannel+0x264>)
 8003fce:	402b      	ands	r3, r5
 8003fd0:	4313      	orrs	r3, r2
 8003fd2:	6143      	str	r3, [r0, #20]
 8003fd4:	680b      	ldr	r3, [r1, #0]
 8003fd6:	2b00      	cmp	r3, #0
 8003fd8:	db5f      	blt.n	800409a <HAL_ADC_ConfigChannel+0x182>
 8003fda:	2000      	movs	r0, #0
 8003fdc:	e7b6      	b.n	8003f4c <HAL_ADC_ConfigChannel+0x34>
 8003fde:	07dd      	lsls	r5, r3, #31
 8003fe0:	d4d0      	bmi.n	8003f84 <HAL_ADC_ConfigChannel+0x6c>
 8003fe2:	079d      	lsls	r5, r3, #30
 8003fe4:	d42f      	bmi.n	8004046 <HAL_ADC_ConfigChannel+0x12e>
 8003fe6:	075d      	lsls	r5, r3, #29
 8003fe8:	d42f      	bmi.n	800404a <HAL_ADC_ConfigChannel+0x132>
 8003fea:	071d      	lsls	r5, r3, #28
 8003fec:	d42f      	bmi.n	800404e <HAL_ADC_ConfigChannel+0x136>
 8003fee:	06dd      	lsls	r5, r3, #27
 8003ff0:	d42f      	bmi.n	8004052 <HAL_ADC_ConfigChannel+0x13a>
 8003ff2:	069d      	lsls	r5, r3, #26
 8003ff4:	d42f      	bmi.n	8004056 <HAL_ADC_ConfigChannel+0x13e>
 8003ff6:	065d      	lsls	r5, r3, #25
 8003ff8:	d42f      	bmi.n	800405a <HAL_ADC_ConfigChannel+0x142>
 8003ffa:	061d      	lsls	r5, r3, #24
 8003ffc:	d42f      	bmi.n	800405e <HAL_ADC_ConfigChannel+0x146>
 8003ffe:	05dd      	lsls	r5, r3, #23
 8004000:	d42f      	bmi.n	8004062 <HAL_ADC_ConfigChannel+0x14a>
 8004002:	059d      	lsls	r5, r3, #22
 8004004:	d42f      	bmi.n	8004066 <HAL_ADC_ConfigChannel+0x14e>
 8004006:	055d      	lsls	r5, r3, #21
 8004008:	d42f      	bmi.n	800406a <HAL_ADC_ConfigChannel+0x152>
 800400a:	051d      	lsls	r5, r3, #20
 800400c:	d42f      	bmi.n	800406e <HAL_ADC_ConfigChannel+0x156>
 800400e:	04dd      	lsls	r5, r3, #19
 8004010:	d42f      	bmi.n	8004072 <HAL_ADC_ConfigChannel+0x15a>
 8004012:	049d      	lsls	r5, r3, #18
 8004014:	d42f      	bmi.n	8004076 <HAL_ADC_ConfigChannel+0x15e>
 8004016:	045d      	lsls	r5, r3, #17
 8004018:	d42f      	bmi.n	800407a <HAL_ADC_ConfigChannel+0x162>
 800401a:	041d      	lsls	r5, r3, #16
 800401c:	d42f      	bmi.n	800407e <HAL_ADC_ConfigChannel+0x166>
 800401e:	03dd      	lsls	r5, r3, #15
 8004020:	d42f      	bmi.n	8004082 <HAL_ADC_ConfigChannel+0x16a>
 8004022:	039d      	lsls	r5, r3, #14
 8004024:	d42f      	bmi.n	8004086 <HAL_ADC_ConfigChannel+0x16e>
 8004026:	035d      	lsls	r5, r3, #13
 8004028:	d42f      	bmi.n	800408a <HAL_ADC_ConfigChannel+0x172>
 800402a:	031d      	lsls	r5, r3, #12
 800402c:	d42f      	bmi.n	800408e <HAL_ADC_ConfigChannel+0x176>
 800402e:	02dd      	lsls	r5, r3, #11
 8004030:	d42f      	bmi.n	8004092 <HAL_ADC_ConfigChannel+0x17a>
 8004032:	029d      	lsls	r5, r3, #10
 8004034:	d42f      	bmi.n	8004096 <HAL_ADC_ConfigChannel+0x17e>
 8004036:	2580      	movs	r5, #128	@ 0x80
 8004038:	03ed      	lsls	r5, r5, #15
 800403a:	001e      	movs	r6, r3
 800403c:	402e      	ands	r6, r5
 800403e:	422b      	tst	r3, r5
 8004040:	d0a0      	beq.n	8003f84 <HAL_ADC_ConfigChannel+0x6c>
 8004042:	2616      	movs	r6, #22
 8004044:	e79e      	b.n	8003f84 <HAL_ADC_ConfigChannel+0x6c>
 8004046:	2601      	movs	r6, #1
 8004048:	e79c      	b.n	8003f84 <HAL_ADC_ConfigChannel+0x6c>
 800404a:	2602      	movs	r6, #2
 800404c:	e79a      	b.n	8003f84 <HAL_ADC_ConfigChannel+0x6c>
 800404e:	2603      	movs	r6, #3
 8004050:	e798      	b.n	8003f84 <HAL_ADC_ConfigChannel+0x6c>
 8004052:	2604      	movs	r6, #4
 8004054:	e796      	b.n	8003f84 <HAL_ADC_ConfigChannel+0x6c>
 8004056:	2605      	movs	r6, #5
 8004058:	e794      	b.n	8003f84 <HAL_ADC_ConfigChannel+0x6c>
 800405a:	2606      	movs	r6, #6
 800405c:	e792      	b.n	8003f84 <HAL_ADC_ConfigChannel+0x6c>
 800405e:	2607      	movs	r6, #7
 8004060:	e790      	b.n	8003f84 <HAL_ADC_ConfigChannel+0x6c>
 8004062:	2608      	movs	r6, #8
 8004064:	e78e      	b.n	8003f84 <HAL_ADC_ConfigChannel+0x6c>
 8004066:	2609      	movs	r6, #9
 8004068:	e78c      	b.n	8003f84 <HAL_ADC_ConfigChannel+0x6c>
 800406a:	260a      	movs	r6, #10
 800406c:	e78a      	b.n	8003f84 <HAL_ADC_ConfigChannel+0x6c>
 800406e:	260b      	movs	r6, #11
 8004070:	e788      	b.n	8003f84 <HAL_ADC_ConfigChannel+0x6c>
 8004072:	260c      	movs	r6, #12
 8004074:	e786      	b.n	8003f84 <HAL_ADC_ConfigChannel+0x6c>
 8004076:	260d      	movs	r6, #13
 8004078:	e784      	b.n	8003f84 <HAL_ADC_ConfigChannel+0x6c>
 800407a:	260e      	movs	r6, #14
 800407c:	e782      	b.n	8003f84 <HAL_ADC_ConfigChannel+0x6c>
 800407e:	260f      	movs	r6, #15
 8004080:	e780      	b.n	8003f84 <HAL_ADC_ConfigChannel+0x6c>
 8004082:	2610      	movs	r6, #16
 8004084:	e77e      	b.n	8003f84 <HAL_ADC_ConfigChannel+0x6c>
 8004086:	2611      	movs	r6, #17
 8004088:	e77c      	b.n	8003f84 <HAL_ADC_ConfigChannel+0x6c>
 800408a:	2612      	movs	r6, #18
 800408c:	e77a      	b.n	8003f84 <HAL_ADC_ConfigChannel+0x6c>
 800408e:	2613      	movs	r6, #19
 8004090:	e778      	b.n	8003f84 <HAL_ADC_ConfigChannel+0x6c>
 8004092:	2614      	movs	r6, #20
 8004094:	e776      	b.n	8003f84 <HAL_ADC_ConfigChannel+0x6c>
 8004096:	2615      	movs	r6, #21
 8004098:	e774      	b.n	8003f84 <HAL_ADC_ConfigChannel+0x6c>
 800409a:	4a39      	ldr	r2, [pc, #228]	@ (8004180 <HAL_ADC_ConfigChannel+0x268>)
 800409c:	6811      	ldr	r1, [r2, #0]
 800409e:	22c0      	movs	r2, #192	@ 0xc0
 80040a0:	0412      	lsls	r2, r2, #16
 80040a2:	400a      	ands	r2, r1
 80040a4:	4837      	ldr	r0, [pc, #220]	@ (8004184 <HAL_ADC_ConfigChannel+0x26c>)
 80040a6:	4283      	cmp	r3, r0
 80040a8:	d004      	beq.n	80040b4 <HAL_ADC_ConfigChannel+0x19c>
 80040aa:	4837      	ldr	r0, [pc, #220]	@ (8004188 <HAL_ADC_ConfigChannel+0x270>)
 80040ac:	4283      	cmp	r3, r0
 80040ae:	d01f      	beq.n	80040f0 <HAL_ADC_ConfigChannel+0x1d8>
 80040b0:	2000      	movs	r0, #0
 80040b2:	e74b      	b.n	8003f4c <HAL_ADC_ConfigChannel+0x34>
 80040b4:	0208      	lsls	r0, r1, #8
 80040b6:	d4f8      	bmi.n	80040aa <HAL_ADC_ConfigChannel+0x192>
 80040b8:	2380      	movs	r3, #128	@ 0x80
 80040ba:	041b      	lsls	r3, r3, #16
 80040bc:	4313      	orrs	r3, r2
 80040be:	4930      	ldr	r1, [pc, #192]	@ (8004180 <HAL_ADC_ConfigChannel+0x268>)
 80040c0:	680a      	ldr	r2, [r1, #0]
 80040c2:	4832      	ldr	r0, [pc, #200]	@ (800418c <HAL_ADC_ConfigChannel+0x274>)
 80040c4:	4002      	ands	r2, r0
 80040c6:	4313      	orrs	r3, r2
 80040c8:	600b      	str	r3, [r1, #0]
 80040ca:	4b31      	ldr	r3, [pc, #196]	@ (8004190 <HAL_ADC_ConfigChannel+0x278>)
 80040cc:	6818      	ldr	r0, [r3, #0]
 80040ce:	4931      	ldr	r1, [pc, #196]	@ (8004194 <HAL_ADC_ConfigChannel+0x27c>)
 80040d0:	f7fc f81a 	bl	8000108 <__udivsi3>
 80040d4:	0043      	lsls	r3, r0, #1
 80040d6:	181b      	adds	r3, r3, r0
 80040d8:	009b      	lsls	r3, r3, #2
 80040da:	3301      	adds	r3, #1
 80040dc:	9301      	str	r3, [sp, #4]
 80040de:	e002      	b.n	80040e6 <HAL_ADC_ConfigChannel+0x1ce>
 80040e0:	9b01      	ldr	r3, [sp, #4]
 80040e2:	3b01      	subs	r3, #1
 80040e4:	9301      	str	r3, [sp, #4]
 80040e6:	9b01      	ldr	r3, [sp, #4]
 80040e8:	2b00      	cmp	r3, #0
 80040ea:	d1f9      	bne.n	80040e0 <HAL_ADC_ConfigChannel+0x1c8>
 80040ec:	2000      	movs	r0, #0
 80040ee:	e72d      	b.n	8003f4c <HAL_ADC_ConfigChannel+0x34>
 80040f0:	0249      	lsls	r1, r1, #9
 80040f2:	d43c      	bmi.n	800416e <HAL_ADC_ConfigChannel+0x256>
 80040f4:	2380      	movs	r3, #128	@ 0x80
 80040f6:	03db      	lsls	r3, r3, #15
 80040f8:	4313      	orrs	r3, r2
 80040fa:	4921      	ldr	r1, [pc, #132]	@ (8004180 <HAL_ADC_ConfigChannel+0x268>)
 80040fc:	680a      	ldr	r2, [r1, #0]
 80040fe:	4823      	ldr	r0, [pc, #140]	@ (800418c <HAL_ADC_ConfigChannel+0x274>)
 8004100:	4002      	ands	r2, r0
 8004102:	4313      	orrs	r3, r2
 8004104:	600b      	str	r3, [r1, #0]
 8004106:	2000      	movs	r0, #0
 8004108:	e720      	b.n	8003f4c <HAL_ADC_ConfigChannel+0x34>
 800410a:	2380      	movs	r3, #128	@ 0x80
 800410c:	061b      	lsls	r3, r3, #24
 800410e:	429d      	cmp	r5, r3
 8004110:	d002      	beq.n	8004118 <HAL_ADC_ConfigChannel+0x200>
 8004112:	4b19      	ldr	r3, [pc, #100]	@ (8004178 <HAL_ADC_ConfigChannel+0x260>)
 8004114:	429d      	cmp	r5, r3
 8004116:	d105      	bne.n	8004124 <HAL_ADC_ConfigChannel+0x20c>
 8004118:	680b      	ldr	r3, [r1, #0]
 800411a:	6a82      	ldr	r2, [r0, #40]	@ 0x28
 800411c:	025b      	lsls	r3, r3, #9
 800411e:	0a5b      	lsrs	r3, r3, #9
 8004120:	439a      	bics	r2, r3
 8004122:	6282      	str	r2, [r0, #40]	@ 0x28
 8004124:	680b      	ldr	r3, [r1, #0]
 8004126:	2b00      	cmp	r3, #0
 8004128:	db01      	blt.n	800412e <HAL_ADC_ConfigChannel+0x216>
 800412a:	2000      	movs	r0, #0
 800412c:	e70e      	b.n	8003f4c <HAL_ADC_ConfigChannel+0x34>
 800412e:	4a14      	ldr	r2, [pc, #80]	@ (8004180 <HAL_ADC_ConfigChannel+0x268>)
 8004130:	6812      	ldr	r2, [r2, #0]
 8004132:	4914      	ldr	r1, [pc, #80]	@ (8004184 <HAL_ADC_ConfigChannel+0x26c>)
 8004134:	428b      	cmp	r3, r1
 8004136:	d004      	beq.n	8004142 <HAL_ADC_ConfigChannel+0x22a>
 8004138:	4913      	ldr	r1, [pc, #76]	@ (8004188 <HAL_ADC_ConfigChannel+0x270>)
 800413a:	428b      	cmp	r3, r1
 800413c:	d00c      	beq.n	8004158 <HAL_ADC_ConfigChannel+0x240>
 800413e:	2000      	movs	r0, #0
 8004140:	e704      	b.n	8003f4c <HAL_ADC_ConfigChannel+0x34>
 8004142:	2380      	movs	r3, #128	@ 0x80
 8004144:	03db      	lsls	r3, r3, #15
 8004146:	401a      	ands	r2, r3
 8004148:	490d      	ldr	r1, [pc, #52]	@ (8004180 <HAL_ADC_ConfigChannel+0x268>)
 800414a:	680b      	ldr	r3, [r1, #0]
 800414c:	480f      	ldr	r0, [pc, #60]	@ (800418c <HAL_ADC_ConfigChannel+0x274>)
 800414e:	4003      	ands	r3, r0
 8004150:	431a      	orrs	r2, r3
 8004152:	600a      	str	r2, [r1, #0]
 8004154:	2000      	movs	r0, #0
 8004156:	e6f9      	b.n	8003f4c <HAL_ADC_ConfigChannel+0x34>
 8004158:	2380      	movs	r3, #128	@ 0x80
 800415a:	041b      	lsls	r3, r3, #16
 800415c:	401a      	ands	r2, r3
 800415e:	4908      	ldr	r1, [pc, #32]	@ (8004180 <HAL_ADC_ConfigChannel+0x268>)
 8004160:	680b      	ldr	r3, [r1, #0]
 8004162:	480a      	ldr	r0, [pc, #40]	@ (800418c <HAL_ADC_ConfigChannel+0x274>)
 8004164:	4003      	ands	r3, r0
 8004166:	431a      	orrs	r2, r3
 8004168:	600a      	str	r2, [r1, #0]
 800416a:	2000      	movs	r0, #0
 800416c:	e6ee      	b.n	8003f4c <HAL_ADC_ConfigChannel+0x34>
 800416e:	2000      	movs	r0, #0
 8004170:	e6ec      	b.n	8003f4c <HAL_ADC_ConfigChannel+0x34>
 8004172:	2002      	movs	r0, #2
 8004174:	e6ed      	b.n	8003f52 <HAL_ADC_ConfigChannel+0x3a>
 8004176:	46c0      	nop			@ (mov r8, r8)
 8004178:	80000004 	.word	0x80000004
 800417c:	7fffff00 	.word	0x7fffff00
 8004180:	40012708 	.word	0x40012708
 8004184:	a4000200 	.word	0xa4000200
 8004188:	a8000400 	.word	0xa8000400
 800418c:	ff3fffff 	.word	0xff3fffff
 8004190:	20000004 	.word	0x20000004
 8004194:	00030d40 	.word	0x00030d40

08004198 <ADC_ConversionStop>:
 8004198:	b570      	push	{r4, r5, r6, lr}
 800419a:	0004      	movs	r4, r0
 800419c:	6802      	ldr	r2, [r0, #0]
 800419e:	6893      	ldr	r3, [r2, #8]
 80041a0:	075b      	lsls	r3, r3, #29
 80041a2:	d520      	bpl.n	80041e6 <ADC_ConversionStop+0x4e>
 80041a4:	6893      	ldr	r3, [r2, #8]
 80041a6:	079b      	lsls	r3, r3, #30
 80041a8:	d405      	bmi.n	80041b6 <ADC_ConversionStop+0x1e>
 80041aa:	6893      	ldr	r3, [r2, #8]
 80041ac:	490f      	ldr	r1, [pc, #60]	@ (80041ec <ADC_ConversionStop+0x54>)
 80041ae:	400b      	ands	r3, r1
 80041b0:	2110      	movs	r1, #16
 80041b2:	430b      	orrs	r3, r1
 80041b4:	6093      	str	r3, [r2, #8]
 80041b6:	f7ff fd35 	bl	8003c24 <HAL_GetTick>
 80041ba:	0005      	movs	r5, r0
 80041bc:	6823      	ldr	r3, [r4, #0]
 80041be:	689b      	ldr	r3, [r3, #8]
 80041c0:	075b      	lsls	r3, r3, #29
 80041c2:	d50e      	bpl.n	80041e2 <ADC_ConversionStop+0x4a>
 80041c4:	f7ff fd2e 	bl	8003c24 <HAL_GetTick>
 80041c8:	1b40      	subs	r0, r0, r5
 80041ca:	2802      	cmp	r0, #2
 80041cc:	d9f6      	bls.n	80041bc <ADC_ConversionStop+0x24>
 80041ce:	6da3      	ldr	r3, [r4, #88]	@ 0x58
 80041d0:	2210      	movs	r2, #16
 80041d2:	4313      	orrs	r3, r2
 80041d4:	65a3      	str	r3, [r4, #88]	@ 0x58
 80041d6:	6de3      	ldr	r3, [r4, #92]	@ 0x5c
 80041d8:	3a0f      	subs	r2, #15
 80041da:	4313      	orrs	r3, r2
 80041dc:	65e3      	str	r3, [r4, #92]	@ 0x5c
 80041de:	2001      	movs	r0, #1
 80041e0:	e002      	b.n	80041e8 <ADC_ConversionStop+0x50>
 80041e2:	2000      	movs	r0, #0
 80041e4:	e000      	b.n	80041e8 <ADC_ConversionStop+0x50>
 80041e6:	2000      	movs	r0, #0
 80041e8:	bd70      	pop	{r4, r5, r6, pc}
 80041ea:	46c0      	nop			@ (mov r8, r8)
 80041ec:	7fffffe8 	.word	0x7fffffe8

080041f0 <ADC_Enable>:
 80041f0:	b530      	push	{r4, r5, lr}
 80041f2:	b083      	sub	sp, #12
 80041f4:	0004      	movs	r4, r0
 80041f6:	2300      	movs	r3, #0
 80041f8:	9301      	str	r3, [sp, #4]
 80041fa:	6803      	ldr	r3, [r0, #0]
 80041fc:	689a      	ldr	r2, [r3, #8]
 80041fe:	07d2      	lsls	r2, r2, #31
 8004200:	d44d      	bmi.n	800429e <ADC_Enable+0xae>
 8004202:	6899      	ldr	r1, [r3, #8]
 8004204:	4a27      	ldr	r2, [pc, #156]	@ (80042a4 <ADC_Enable+0xb4>)
 8004206:	4211      	tst	r1, r2
 8004208:	d111      	bne.n	800422e <ADC_Enable+0x3e>
 800420a:	689a      	ldr	r2, [r3, #8]
 800420c:	4926      	ldr	r1, [pc, #152]	@ (80042a8 <ADC_Enable+0xb8>)
 800420e:	400a      	ands	r2, r1
 8004210:	2101      	movs	r1, #1
 8004212:	430a      	orrs	r2, r1
 8004214:	609a      	str	r2, [r3, #8]
 8004216:	4b25      	ldr	r3, [pc, #148]	@ (80042ac <ADC_Enable+0xbc>)
 8004218:	681b      	ldr	r3, [r3, #0]
 800421a:	021b      	lsls	r3, r3, #8
 800421c:	d517      	bpl.n	800424e <ADC_Enable+0x5e>
 800421e:	4b24      	ldr	r3, [pc, #144]	@ (80042b0 <ADC_Enable+0xc0>)
 8004220:	6818      	ldr	r0, [r3, #0]
 8004222:	4924      	ldr	r1, [pc, #144]	@ (80042b4 <ADC_Enable+0xc4>)
 8004224:	f7fb ff70 	bl	8000108 <__udivsi3>
 8004228:	3001      	adds	r0, #1
 800422a:	9001      	str	r0, [sp, #4]
 800422c:	e00c      	b.n	8004248 <ADC_Enable+0x58>
 800422e:	6d83      	ldr	r3, [r0, #88]	@ 0x58
 8004230:	2210      	movs	r2, #16
 8004232:	4313      	orrs	r3, r2
 8004234:	6583      	str	r3, [r0, #88]	@ 0x58
 8004236:	6dc3      	ldr	r3, [r0, #92]	@ 0x5c
 8004238:	3a0f      	subs	r2, #15
 800423a:	4313      	orrs	r3, r2
 800423c:	65c3      	str	r3, [r0, #92]	@ 0x5c
 800423e:	2001      	movs	r0, #1
 8004240:	e02e      	b.n	80042a0 <ADC_Enable+0xb0>
 8004242:	9b01      	ldr	r3, [sp, #4]
 8004244:	3b01      	subs	r3, #1
 8004246:	9301      	str	r3, [sp, #4]
 8004248:	9b01      	ldr	r3, [sp, #4]
 800424a:	2b00      	cmp	r3, #0
 800424c:	d1f9      	bne.n	8004242 <ADC_Enable+0x52>
 800424e:	7e63      	ldrb	r3, [r4, #25]
 8004250:	2b01      	cmp	r3, #1
 8004252:	d101      	bne.n	8004258 <ADC_Enable+0x68>
 8004254:	2000      	movs	r0, #0
 8004256:	e023      	b.n	80042a0 <ADC_Enable+0xb0>
 8004258:	f7ff fce4 	bl	8003c24 <HAL_GetTick>
 800425c:	0005      	movs	r5, r0
 800425e:	e004      	b.n	800426a <ADC_Enable+0x7a>
 8004260:	f7ff fce0 	bl	8003c24 <HAL_GetTick>
 8004264:	1b40      	subs	r0, r0, r5
 8004266:	2802      	cmp	r0, #2
 8004268:	d80d      	bhi.n	8004286 <ADC_Enable+0x96>
 800426a:	6823      	ldr	r3, [r4, #0]
 800426c:	681a      	ldr	r2, [r3, #0]
 800426e:	07d2      	lsls	r2, r2, #31
 8004270:	d413      	bmi.n	800429a <ADC_Enable+0xaa>
 8004272:	689a      	ldr	r2, [r3, #8]
 8004274:	07d2      	lsls	r2, r2, #31
 8004276:	d4f3      	bmi.n	8004260 <ADC_Enable+0x70>
 8004278:	689a      	ldr	r2, [r3, #8]
 800427a:	490b      	ldr	r1, [pc, #44]	@ (80042a8 <ADC_Enable+0xb8>)
 800427c:	400a      	ands	r2, r1
 800427e:	2101      	movs	r1, #1
 8004280:	430a      	orrs	r2, r1
 8004282:	609a      	str	r2, [r3, #8]
 8004284:	e7ec      	b.n	8004260 <ADC_Enable+0x70>
 8004286:	6da3      	ldr	r3, [r4, #88]	@ 0x58
 8004288:	2210      	movs	r2, #16
 800428a:	4313      	orrs	r3, r2
 800428c:	65a3      	str	r3, [r4, #88]	@ 0x58
 800428e:	6de3      	ldr	r3, [r4, #92]	@ 0x5c
 8004290:	3a0f      	subs	r2, #15
 8004292:	4313      	orrs	r3, r2
 8004294:	65e3      	str	r3, [r4, #92]	@ 0x5c
 8004296:	2001      	movs	r0, #1
 8004298:	e002      	b.n	80042a0 <ADC_Enable+0xb0>
 800429a:	2000      	movs	r0, #0
 800429c:	e000      	b.n	80042a0 <ADC_Enable+0xb0>
 800429e:	2000      	movs	r0, #0
 80042a0:	b003      	add	sp, #12
 80042a2:	bd30      	pop	{r4, r5, pc}
 80042a4:	80000017 	.word	0x80000017
 80042a8:	7fffffe8 	.word	0x7fffffe8
 80042ac:	40012708 	.word	0x40012708
 80042b0:	20000004 	.word	0x20000004
 80042b4:	00030d40 	.word	0x00030d40

080042b8 <HAL_ADC_Start_DMA>:
 80042b8:	b570      	push	{r4, r5, r6, lr}
 80042ba:	0004      	movs	r4, r0
 80042bc:	000d      	movs	r5, r1
 80042be:	0016      	movs	r6, r2
 80042c0:	6802      	ldr	r2, [r0, #0]
 80042c2:	6893      	ldr	r3, [r2, #8]
 80042c4:	075b      	lsls	r3, r3, #29
 80042c6:	d447      	bmi.n	8004358 <HAL_ADC_Start_DMA+0xa0>
 80042c8:	2354      	movs	r3, #84	@ 0x54
 80042ca:	5cc3      	ldrb	r3, [r0, r3]
 80042cc:	2b01      	cmp	r3, #1
 80042ce:	d045      	beq.n	800435c <HAL_ADC_Start_DMA+0xa4>
 80042d0:	2301      	movs	r3, #1
 80042d2:	2154      	movs	r1, #84	@ 0x54
 80042d4:	5443      	strb	r3, [r0, r1]
 80042d6:	68d1      	ldr	r1, [r2, #12]
 80042d8:	420b      	tst	r3, r1
 80042da:	d10d      	bne.n	80042f8 <HAL_ADC_Start_DMA+0x40>
 80042dc:	6893      	ldr	r3, [r2, #8]
 80042de:	07db      	lsls	r3, r3, #31
 80042e0:	d505      	bpl.n	80042ee <HAL_ADC_Start_DMA+0x36>
 80042e2:	6893      	ldr	r3, [r2, #8]
 80042e4:	491e      	ldr	r1, [pc, #120]	@ (8004360 <HAL_ADC_Start_DMA+0xa8>)
 80042e6:	400b      	ands	r3, r1
 80042e8:	2102      	movs	r1, #2
 80042ea:	430b      	orrs	r3, r1
 80042ec:	6093      	str	r3, [r2, #8]
 80042ee:	6822      	ldr	r2, [r4, #0]
 80042f0:	68d3      	ldr	r3, [r2, #12]
 80042f2:	2101      	movs	r1, #1
 80042f4:	430b      	orrs	r3, r1
 80042f6:	60d3      	str	r3, [r2, #12]
 80042f8:	0020      	movs	r0, r4
 80042fa:	f7ff ff79 	bl	80041f0 <ADC_Enable>
 80042fe:	2800      	cmp	r0, #0
 8004300:	d12b      	bne.n	800435a <HAL_ADC_Start_DMA+0xa2>
 8004302:	6da2      	ldr	r2, [r4, #88]	@ 0x58
 8004304:	4b17      	ldr	r3, [pc, #92]	@ (8004364 <HAL_ADC_Start_DMA+0xac>)
 8004306:	401a      	ands	r2, r3
 8004308:	2380      	movs	r3, #128	@ 0x80
 800430a:	005b      	lsls	r3, r3, #1
 800430c:	4313      	orrs	r3, r2
 800430e:	65a3      	str	r3, [r4, #88]	@ 0x58
 8004310:	2300      	movs	r3, #0
 8004312:	65e3      	str	r3, [r4, #92]	@ 0x5c
 8004314:	6d22      	ldr	r2, [r4, #80]	@ 0x50
 8004316:	4914      	ldr	r1, [pc, #80]	@ (8004368 <HAL_ADC_Start_DMA+0xb0>)
 8004318:	62d1      	str	r1, [r2, #44]	@ 0x2c
 800431a:	6d22      	ldr	r2, [r4, #80]	@ 0x50
 800431c:	4913      	ldr	r1, [pc, #76]	@ (800436c <HAL_ADC_Start_DMA+0xb4>)
 800431e:	6311      	str	r1, [r2, #48]	@ 0x30
 8004320:	6d22      	ldr	r2, [r4, #80]	@ 0x50
 8004322:	4913      	ldr	r1, [pc, #76]	@ (8004370 <HAL_ADC_Start_DMA+0xb8>)
 8004324:	6351      	str	r1, [r2, #52]	@ 0x34
 8004326:	6822      	ldr	r2, [r4, #0]
 8004328:	211c      	movs	r1, #28
 800432a:	6011      	str	r1, [r2, #0]
 800432c:	2254      	movs	r2, #84	@ 0x54
 800432e:	54a3      	strb	r3, [r4, r2]
 8004330:	6822      	ldr	r2, [r4, #0]
 8004332:	6853      	ldr	r3, [r2, #4]
 8004334:	390c      	subs	r1, #12
 8004336:	430b      	orrs	r3, r1
 8004338:	6053      	str	r3, [r2, #4]
 800433a:	6821      	ldr	r1, [r4, #0]
 800433c:	3140      	adds	r1, #64	@ 0x40
 800433e:	6d20      	ldr	r0, [r4, #80]	@ 0x50
 8004340:	0033      	movs	r3, r6
 8004342:	002a      	movs	r2, r5
 8004344:	f000 f9aa 	bl	800469c <HAL_DMA_Start_IT>
 8004348:	6822      	ldr	r2, [r4, #0]
 800434a:	6893      	ldr	r3, [r2, #8]
 800434c:	4904      	ldr	r1, [pc, #16]	@ (8004360 <HAL_ADC_Start_DMA+0xa8>)
 800434e:	400b      	ands	r3, r1
 8004350:	2104      	movs	r1, #4
 8004352:	430b      	orrs	r3, r1
 8004354:	6093      	str	r3, [r2, #8]
 8004356:	e000      	b.n	800435a <HAL_ADC_Start_DMA+0xa2>
 8004358:	2002      	movs	r0, #2
 800435a:	bd70      	pop	{r4, r5, r6, pc}
 800435c:	2002      	movs	r0, #2
 800435e:	e7fc      	b.n	800435a <HAL_ADC_Start_DMA+0xa2>
 8004360:	7fffffe8 	.word	0x7fffffe8
 8004364:	fffff0fe 	.word	0xfffff0fe
 8004368:	08003e99 	.word	0x08003e99
 800436c:	08003e73 	.word	0x08003e73
 8004370:	08003e7f 	.word	0x08003e7f

08004374 <ADC_Disable>:
 8004374:	b570      	push	{r4, r5, r6, lr}
 8004376:	0004      	movs	r4, r0
 8004378:	6803      	ldr	r3, [r0, #0]
 800437a:	689a      	ldr	r2, [r3, #8]
 800437c:	2102      	movs	r1, #2
 800437e:	0008      	movs	r0, r1
 8004380:	4010      	ands	r0, r2
 8004382:	4211      	tst	r1, r2
 8004384:	d000      	beq.n	8004388 <ADC_Disable+0x14>
 8004386:	2001      	movs	r0, #1
 8004388:	689a      	ldr	r2, [r3, #8]
 800438a:	07d2      	lsls	r2, r2, #31
 800438c:	d531      	bpl.n	80043f2 <ADC_Disable+0x7e>
 800438e:	2800      	cmp	r0, #0
 8004390:	d131      	bne.n	80043f6 <ADC_Disable+0x82>
 8004392:	6899      	ldr	r1, [r3, #8]
 8004394:	2205      	movs	r2, #5
 8004396:	400a      	ands	r2, r1
 8004398:	2a01      	cmp	r2, #1
 800439a:	d009      	beq.n	80043b0 <ADC_Disable+0x3c>
 800439c:	6da3      	ldr	r3, [r4, #88]	@ 0x58
 800439e:	2210      	movs	r2, #16
 80043a0:	4313      	orrs	r3, r2
 80043a2:	65a3      	str	r3, [r4, #88]	@ 0x58
 80043a4:	6de3      	ldr	r3, [r4, #92]	@ 0x5c
 80043a6:	3a0f      	subs	r2, #15
 80043a8:	4313      	orrs	r3, r2
 80043aa:	65e3      	str	r3, [r4, #92]	@ 0x5c
 80043ac:	2001      	movs	r0, #1
 80043ae:	e021      	b.n	80043f4 <ADC_Disable+0x80>
 80043b0:	689a      	ldr	r2, [r3, #8]
 80043b2:	4912      	ldr	r1, [pc, #72]	@ (80043fc <ADC_Disable+0x88>)
 80043b4:	400a      	ands	r2, r1
 80043b6:	2102      	movs	r1, #2
 80043b8:	430a      	orrs	r2, r1
 80043ba:	609a      	str	r2, [r3, #8]
 80043bc:	6823      	ldr	r3, [r4, #0]
 80043be:	2203      	movs	r2, #3
 80043c0:	601a      	str	r2, [r3, #0]
 80043c2:	f7ff fc2f 	bl	8003c24 <HAL_GetTick>
 80043c6:	0005      	movs	r5, r0
 80043c8:	6823      	ldr	r3, [r4, #0]
 80043ca:	689b      	ldr	r3, [r3, #8]
 80043cc:	07db      	lsls	r3, r3, #31
 80043ce:	d50e      	bpl.n	80043ee <ADC_Disable+0x7a>
 80043d0:	f7ff fc28 	bl	8003c24 <HAL_GetTick>
 80043d4:	1b40      	subs	r0, r0, r5
 80043d6:	2802      	cmp	r0, #2
 80043d8:	d9f6      	bls.n	80043c8 <ADC_Disable+0x54>
 80043da:	6da3      	ldr	r3, [r4, #88]	@ 0x58
 80043dc:	2210      	movs	r2, #16
 80043de:	4313      	orrs	r3, r2
 80043e0:	65a3      	str	r3, [r4, #88]	@ 0x58
 80043e2:	6de3      	ldr	r3, [r4, #92]	@ 0x5c
 80043e4:	3a0f      	subs	r2, #15
 80043e6:	4313      	orrs	r3, r2
 80043e8:	65e3      	str	r3, [r4, #92]	@ 0x5c
 80043ea:	2001      	movs	r0, #1
 80043ec:	e002      	b.n	80043f4 <ADC_Disable+0x80>
 80043ee:	2000      	movs	r0, #0
 80043f0:	e000      	b.n	80043f4 <ADC_Disable+0x80>
 80043f2:	2000      	movs	r0, #0
 80043f4:	bd70      	pop	{r4, r5, r6, pc}
 80043f6:	2000      	movs	r0, #0
 80043f8:	e7fc      	b.n	80043f4 <ADC_Disable+0x80>
 80043fa:	46c0      	nop			@ (mov r8, r8)
 80043fc:	7fffffe8 	.word	0x7fffffe8

08004400 <HAL_ADC_Stop_DMA>:
 8004400:	b570      	push	{r4, r5, r6, lr}
 8004402:	0004      	movs	r4, r0
 8004404:	2354      	movs	r3, #84	@ 0x54
 8004406:	5cc3      	ldrb	r3, [r0, r3]
 8004408:	2b01      	cmp	r3, #1
 800440a:	d036      	beq.n	800447a <HAL_ADC_Stop_DMA+0x7a>
 800440c:	2354      	movs	r3, #84	@ 0x54
 800440e:	2201      	movs	r2, #1
 8004410:	54c2      	strb	r2, [r0, r3]
 8004412:	f7ff fec1 	bl	8004198 <ADC_ConversionStop>
 8004416:	1e05      	subs	r5, r0, #0
 8004418:	d11d      	bne.n	8004456 <HAL_ADC_Stop_DMA+0x56>
 800441a:	6d20      	ldr	r0, [r4, #80]	@ 0x50
 800441c:	2325      	movs	r3, #37	@ 0x25
 800441e:	5cc3      	ldrb	r3, [r0, r3]
 8004420:	2b02      	cmp	r3, #2
 8004422:	d01d      	beq.n	8004460 <HAL_ADC_Stop_DMA+0x60>
 8004424:	6822      	ldr	r2, [r4, #0]
 8004426:	6853      	ldr	r3, [r2, #4]
 8004428:	2110      	movs	r1, #16
 800442a:	438b      	bics	r3, r1
 800442c:	6053      	str	r3, [r2, #4]
 800442e:	2d00      	cmp	r5, #0
 8004430:	d11f      	bne.n	8004472 <HAL_ADC_Stop_DMA+0x72>
 8004432:	0020      	movs	r0, r4
 8004434:	f7ff ff9e 	bl	8004374 <ADC_Disable>
 8004438:	0005      	movs	r5, r0
 800443a:	2d00      	cmp	r5, #0
 800443c:	d106      	bne.n	800444c <HAL_ADC_Stop_DMA+0x4c>
 800443e:	6da3      	ldr	r3, [r4, #88]	@ 0x58
 8004440:	4a0f      	ldr	r2, [pc, #60]	@ (8004480 <HAL_ADC_Stop_DMA+0x80>)
 8004442:	4013      	ands	r3, r2
 8004444:	3204      	adds	r2, #4
 8004446:	32ff      	adds	r2, #255	@ 0xff
 8004448:	4313      	orrs	r3, r2
 800444a:	65a3      	str	r3, [r4, #88]	@ 0x58
 800444c:	6822      	ldr	r2, [r4, #0]
 800444e:	68d3      	ldr	r3, [r2, #12]
 8004450:	2101      	movs	r1, #1
 8004452:	438b      	bics	r3, r1
 8004454:	60d3      	str	r3, [r2, #12]
 8004456:	2354      	movs	r3, #84	@ 0x54
 8004458:	2200      	movs	r2, #0
 800445a:	54e2      	strb	r2, [r4, r3]
 800445c:	0028      	movs	r0, r5
 800445e:	bd70      	pop	{r4, r5, r6, pc}
 8004460:	f000 f96c 	bl	800473c <HAL_DMA_Abort>
 8004464:	1e05      	subs	r5, r0, #0
 8004466:	d0dd      	beq.n	8004424 <HAL_ADC_Stop_DMA+0x24>
 8004468:	6da3      	ldr	r3, [r4, #88]	@ 0x58
 800446a:	2240      	movs	r2, #64	@ 0x40
 800446c:	4313      	orrs	r3, r2
 800446e:	65a3      	str	r3, [r4, #88]	@ 0x58
 8004470:	e7d8      	b.n	8004424 <HAL_ADC_Stop_DMA+0x24>
 8004472:	0020      	movs	r0, r4
 8004474:	f7ff ff7e 	bl	8004374 <ADC_Disable>
 8004478:	e7df      	b.n	800443a <HAL_ADC_Stop_DMA+0x3a>
 800447a:	2502      	movs	r5, #2
 800447c:	e7ee      	b.n	800445c <HAL_ADC_Stop_DMA+0x5c>
 800447e:	46c0      	nop			@ (mov r8, r8)
 8004480:	fffffefe 	.word	0xfffffefe

08004484 <__NVIC_SetPriority>:
 8004484:	b570      	push	{r4, r5, r6, lr}
 8004486:	2800      	cmp	r0, #0
 8004488:	db11      	blt.n	80044ae <__NVIC_SetPriority+0x2a>
 800448a:	0883      	lsrs	r3, r0, #2
 800448c:	4d13      	ldr	r5, [pc, #76]	@ (80044dc <__NVIC_SetPriority+0x58>)
 800448e:	33c0      	adds	r3, #192	@ 0xc0
 8004490:	009b      	lsls	r3, r3, #2
 8004492:	595c      	ldr	r4, [r3, r5]
 8004494:	2203      	movs	r2, #3
 8004496:	4010      	ands	r0, r2
 8004498:	00c0      	lsls	r0, r0, #3
 800449a:	32fc      	adds	r2, #252	@ 0xfc
 800449c:	0016      	movs	r6, r2
 800449e:	4086      	lsls	r6, r0
 80044a0:	43b4      	bics	r4, r6
 80044a2:	0189      	lsls	r1, r1, #6
 80044a4:	400a      	ands	r2, r1
 80044a6:	4082      	lsls	r2, r0
 80044a8:	4322      	orrs	r2, r4
 80044aa:	515a      	str	r2, [r3, r5]
 80044ac:	bd70      	pop	{r4, r5, r6, pc}
 80044ae:	230f      	movs	r3, #15
 80044b0:	4003      	ands	r3, r0
 80044b2:	3b08      	subs	r3, #8
 80044b4:	089b      	lsrs	r3, r3, #2
 80044b6:	3306      	adds	r3, #6
 80044b8:	009b      	lsls	r3, r3, #2
 80044ba:	4a09      	ldr	r2, [pc, #36]	@ (80044e0 <__NVIC_SetPriority+0x5c>)
 80044bc:	4694      	mov	ip, r2
 80044be:	4463      	add	r3, ip
 80044c0:	685c      	ldr	r4, [r3, #4]
 80044c2:	2203      	movs	r2, #3
 80044c4:	4010      	ands	r0, r2
 80044c6:	00c0      	lsls	r0, r0, #3
 80044c8:	32fc      	adds	r2, #252	@ 0xfc
 80044ca:	0015      	movs	r5, r2
 80044cc:	4085      	lsls	r5, r0
 80044ce:	43ac      	bics	r4, r5
 80044d0:	0189      	lsls	r1, r1, #6
 80044d2:	400a      	ands	r2, r1
 80044d4:	4082      	lsls	r2, r0
 80044d6:	4322      	orrs	r2, r4
 80044d8:	605a      	str	r2, [r3, #4]
 80044da:	e7e7      	b.n	80044ac <__NVIC_SetPriority+0x28>
 80044dc:	e000e100 	.word	0xe000e100
 80044e0:	e000ed00 	.word	0xe000ed00

080044e4 <SysTick_Config>:
 80044e4:	3801      	subs	r0, #1
 80044e6:	2380      	movs	r3, #128	@ 0x80
 80044e8:	045b      	lsls	r3, r3, #17
 80044ea:	4298      	cmp	r0, r3
 80044ec:	d20f      	bcs.n	800450e <SysTick_Config+0x2a>
 80044ee:	4a09      	ldr	r2, [pc, #36]	@ (8004514 <SysTick_Config+0x30>)
 80044f0:	6050      	str	r0, [r2, #4]
 80044f2:	4809      	ldr	r0, [pc, #36]	@ (8004518 <SysTick_Config+0x34>)
 80044f4:	6a03      	ldr	r3, [r0, #32]
 80044f6:	021b      	lsls	r3, r3, #8
 80044f8:	0a1b      	lsrs	r3, r3, #8
 80044fa:	21c0      	movs	r1, #192	@ 0xc0
 80044fc:	0609      	lsls	r1, r1, #24
 80044fe:	430b      	orrs	r3, r1
 8004500:	6203      	str	r3, [r0, #32]
 8004502:	2300      	movs	r3, #0
 8004504:	6093      	str	r3, [r2, #8]
 8004506:	3307      	adds	r3, #7
 8004508:	6013      	str	r3, [r2, #0]
 800450a:	2000      	movs	r0, #0
 800450c:	4770      	bx	lr
 800450e:	2001      	movs	r0, #1
 8004510:	e7fc      	b.n	800450c <SysTick_Config+0x28>
 8004512:	46c0      	nop			@ (mov r8, r8)
 8004514:	e000e010 	.word	0xe000e010
 8004518:	e000ed00 	.word	0xe000ed00

0800451c <HAL_NVIC_SetPriority>:
 800451c:	b510      	push	{r4, lr}
 800451e:	f7ff ffb1 	bl	8004484 <__NVIC_SetPriority>
 8004522:	bd10      	pop	{r4, pc}

08004524 <HAL_NVIC_EnableIRQ>:
 8004524:	2800      	cmp	r0, #0
 8004526:	db05      	blt.n	8004534 <HAL_NVIC_EnableIRQ+0x10>
 8004528:	221f      	movs	r2, #31
 800452a:	4002      	ands	r2, r0
 800452c:	2301      	movs	r3, #1
 800452e:	4093      	lsls	r3, r2
 8004530:	4a01      	ldr	r2, [pc, #4]	@ (8004538 <HAL_NVIC_EnableIRQ+0x14>)
 8004532:	6013      	str	r3, [r2, #0]
 8004534:	4770      	bx	lr
 8004536:	46c0      	nop			@ (mov r8, r8)
 8004538:	e000e100 	.word	0xe000e100

0800453c <HAL_SYSTICK_Config>:
 800453c:	b510      	push	{r4, lr}
 800453e:	f7ff ffd1 	bl	80044e4 <SysTick_Config>
 8004542:	bd10      	pop	{r4, pc}

08004544 <DMA_SetConfig>:
 8004544:	b5f0      	push	{r4, r5, r6, r7, lr}
 8004546:	6c84      	ldr	r4, [r0, #72]	@ 0x48
 8004548:	6cc5      	ldr	r5, [r0, #76]	@ 0x4c
 800454a:	6065      	str	r5, [r4, #4]
 800454c:	6d04      	ldr	r4, [r0, #80]	@ 0x50
 800454e:	2c00      	cmp	r4, #0
 8004550:	d002      	beq.n	8004558 <DMA_SetConfig+0x14>
 8004552:	6d44      	ldr	r4, [r0, #84]	@ 0x54
 8004554:	6d85      	ldr	r5, [r0, #88]	@ 0x58
 8004556:	6065      	str	r5, [r4, #4]
 8004558:	4f0b      	ldr	r7, [pc, #44]	@ (8004588 <DMA_SetConfig+0x44>)
 800455a:	687c      	ldr	r4, [r7, #4]
 800455c:	6c05      	ldr	r5, [r0, #64]	@ 0x40
 800455e:	261c      	movs	r6, #28
 8004560:	402e      	ands	r6, r5
 8004562:	2501      	movs	r5, #1
 8004564:	40b5      	lsls	r5, r6
 8004566:	432c      	orrs	r4, r5
 8004568:	607c      	str	r4, [r7, #4]
 800456a:	6804      	ldr	r4, [r0, #0]
 800456c:	6063      	str	r3, [r4, #4]
 800456e:	6883      	ldr	r3, [r0, #8]
 8004570:	2b10      	cmp	r3, #16
 8004572:	d004      	beq.n	800457e <DMA_SetConfig+0x3a>
 8004574:	6803      	ldr	r3, [r0, #0]
 8004576:	6099      	str	r1, [r3, #8]
 8004578:	6803      	ldr	r3, [r0, #0]
 800457a:	60da      	str	r2, [r3, #12]
 800457c:	bdf0      	pop	{r4, r5, r6, r7, pc}
 800457e:	6803      	ldr	r3, [r0, #0]
 8004580:	609a      	str	r2, [r3, #8]
 8004582:	6803      	ldr	r3, [r0, #0]
 8004584:	60d9      	str	r1, [r3, #12]
 8004586:	e7f9      	b.n	800457c <DMA_SetConfig+0x38>
 8004588:	40020000 	.word	0x40020000

0800458c <DMA_CalcDMAMUXChannelBaseAndMask>:
 800458c:	b510      	push	{r4, lr}
 800458e:	0004      	movs	r4, r0
 8004590:	6803      	ldr	r3, [r0, #0]
 8004592:	20ff      	movs	r0, #255	@ 0xff
 8004594:	4018      	ands	r0, r3
 8004596:	3808      	subs	r0, #8
 8004598:	2114      	movs	r1, #20
 800459a:	f7fb fdb5 	bl	8000108 <__udivsi3>
 800459e:	6c23      	ldr	r3, [r4, #64]	@ 0x40
 80045a0:	089b      	lsrs	r3, r3, #2
 80045a2:	4a06      	ldr	r2, [pc, #24]	@ (80045bc <DMA_CalcDMAMUXChannelBaseAndMask+0x30>)
 80045a4:	4694      	mov	ip, r2
 80045a6:	4463      	add	r3, ip
 80045a8:	009b      	lsls	r3, r3, #2
 80045aa:	6463      	str	r3, [r4, #68]	@ 0x44
 80045ac:	4b04      	ldr	r3, [pc, #16]	@ (80045c0 <DMA_CalcDMAMUXChannelBaseAndMask+0x34>)
 80045ae:	64a3      	str	r3, [r4, #72]	@ 0x48
 80045b0:	231c      	movs	r3, #28
 80045b2:	4018      	ands	r0, r3
 80045b4:	3b1b      	subs	r3, #27
 80045b6:	4083      	lsls	r3, r0
 80045b8:	64e3      	str	r3, [r4, #76]	@ 0x4c
 80045ba:	bd10      	pop	{r4, pc}
 80045bc:	10008200 	.word	0x10008200
 80045c0:	40020880 	.word	0x40020880

080045c4 <DMA_CalcDMAMUXRequestGenBaseAndMask>:
 80045c4:	6842      	ldr	r2, [r0, #4]
 80045c6:	23ff      	movs	r3, #255	@ 0xff
 80045c8:	4013      	ands	r3, r2
 80045ca:	4a06      	ldr	r2, [pc, #24]	@ (80045e4 <DMA_CalcDMAMUXRequestGenBaseAndMask+0x20>)
 80045cc:	189a      	adds	r2, r3, r2
 80045ce:	0092      	lsls	r2, r2, #2
 80045d0:	6502      	str	r2, [r0, #80]	@ 0x50
 80045d2:	4a05      	ldr	r2, [pc, #20]	@ (80045e8 <DMA_CalcDMAMUXRequestGenBaseAndMask+0x24>)
 80045d4:	6542      	str	r2, [r0, #84]	@ 0x54
 80045d6:	3b01      	subs	r3, #1
 80045d8:	2203      	movs	r2, #3
 80045da:	401a      	ands	r2, r3
 80045dc:	2301      	movs	r3, #1
 80045de:	4093      	lsls	r3, r2
 80045e0:	6583      	str	r3, [r0, #88]	@ 0x58
 80045e2:	4770      	bx	lr
 80045e4:	1000823f 	.word	0x1000823f
 80045e8:	40020940 	.word	0x40020940

080045ec <HAL_DMA_Init>:
 80045ec:	b570      	push	{r4, r5, r6, lr}
 80045ee:	1e04      	subs	r4, r0, #0
 80045f0:	d04d      	beq.n	800468e <HAL_DMA_Init+0xa2>
 80045f2:	6805      	ldr	r5, [r0, #0]
 80045f4:	4b27      	ldr	r3, [pc, #156]	@ (8004694 <HAL_DMA_Init+0xa8>)
 80045f6:	18e8      	adds	r0, r5, r3
 80045f8:	2114      	movs	r1, #20
 80045fa:	f7fb fd85 	bl	8000108 <__udivsi3>
 80045fe:	0080      	lsls	r0, r0, #2
 8004600:	6420      	str	r0, [r4, #64]	@ 0x40
 8004602:	2325      	movs	r3, #37	@ 0x25
 8004604:	2202      	movs	r2, #2
 8004606:	54e2      	strb	r2, [r4, r3]
 8004608:	682b      	ldr	r3, [r5, #0]
 800460a:	4a23      	ldr	r2, [pc, #140]	@ (8004698 <HAL_DMA_Init+0xac>)
 800460c:	4013      	ands	r3, r2
 800460e:	602b      	str	r3, [r5, #0]
 8004610:	6821      	ldr	r1, [r4, #0]
 8004612:	680a      	ldr	r2, [r1, #0]
 8004614:	68a3      	ldr	r3, [r4, #8]
 8004616:	68e0      	ldr	r0, [r4, #12]
 8004618:	4303      	orrs	r3, r0
 800461a:	6920      	ldr	r0, [r4, #16]
 800461c:	4303      	orrs	r3, r0
 800461e:	6960      	ldr	r0, [r4, #20]
 8004620:	4303      	orrs	r3, r0
 8004622:	69a0      	ldr	r0, [r4, #24]
 8004624:	4303      	orrs	r3, r0
 8004626:	69e0      	ldr	r0, [r4, #28]
 8004628:	4303      	orrs	r3, r0
 800462a:	6a20      	ldr	r0, [r4, #32]
 800462c:	4303      	orrs	r3, r0
 800462e:	4313      	orrs	r3, r2
 8004630:	600b      	str	r3, [r1, #0]
 8004632:	0020      	movs	r0, r4
 8004634:	f7ff ffaa 	bl	800458c <DMA_CalcDMAMUXChannelBaseAndMask>
 8004638:	68a2      	ldr	r2, [r4, #8]
 800463a:	2380      	movs	r3, #128	@ 0x80
 800463c:	01db      	lsls	r3, r3, #7
 800463e:	429a      	cmp	r2, r3
 8004640:	d018      	beq.n	8004674 <HAL_DMA_Init+0x88>
 8004642:	6861      	ldr	r1, [r4, #4]
 8004644:	6c62      	ldr	r2, [r4, #68]	@ 0x44
 8004646:	23ff      	movs	r3, #255	@ 0xff
 8004648:	400b      	ands	r3, r1
 800464a:	6013      	str	r3, [r2, #0]
 800464c:	6ca3      	ldr	r3, [r4, #72]	@ 0x48
 800464e:	6ce2      	ldr	r2, [r4, #76]	@ 0x4c
 8004650:	605a      	str	r2, [r3, #4]
 8004652:	6863      	ldr	r3, [r4, #4]
 8004654:	3b01      	subs	r3, #1
 8004656:	2b03      	cmp	r3, #3
 8004658:	d90f      	bls.n	800467a <HAL_DMA_Init+0x8e>
 800465a:	2300      	movs	r3, #0
 800465c:	6523      	str	r3, [r4, #80]	@ 0x50
 800465e:	6563      	str	r3, [r4, #84]	@ 0x54
 8004660:	65a3      	str	r3, [r4, #88]	@ 0x58
 8004662:	2300      	movs	r3, #0
 8004664:	63e3      	str	r3, [r4, #60]	@ 0x3c
 8004666:	2225      	movs	r2, #37	@ 0x25
 8004668:	2101      	movs	r1, #1
 800466a:	54a1      	strb	r1, [r4, r2]
 800466c:	3a01      	subs	r2, #1
 800466e:	54a3      	strb	r3, [r4, r2]
 8004670:	2000      	movs	r0, #0
 8004672:	bd70      	pop	{r4, r5, r6, pc}
 8004674:	2300      	movs	r3, #0
 8004676:	6063      	str	r3, [r4, #4]
 8004678:	e7e3      	b.n	8004642 <HAL_DMA_Init+0x56>
 800467a:	0020      	movs	r0, r4
 800467c:	f7ff ffa2 	bl	80045c4 <DMA_CalcDMAMUXRequestGenBaseAndMask>
 8004680:	6d23      	ldr	r3, [r4, #80]	@ 0x50
 8004682:	2200      	movs	r2, #0
 8004684:	601a      	str	r2, [r3, #0]
 8004686:	6d63      	ldr	r3, [r4, #84]	@ 0x54
 8004688:	6da2      	ldr	r2, [r4, #88]	@ 0x58
 800468a:	605a      	str	r2, [r3, #4]
 800468c:	e7e9      	b.n	8004662 <HAL_DMA_Init+0x76>
 800468e:	2001      	movs	r0, #1
 8004690:	e7ef      	b.n	8004672 <HAL_DMA_Init+0x86>
 8004692:	46c0      	nop			@ (mov r8, r8)
 8004694:	bffdfff8 	.word	0xbffdfff8
 8004698:	ffff800f 	.word	0xffff800f

0800469c <HAL_DMA_Start_IT>:
 800469c:	b570      	push	{r4, r5, r6, lr}
 800469e:	0004      	movs	r4, r0
 80046a0:	2024      	movs	r0, #36	@ 0x24
 80046a2:	5c20      	ldrb	r0, [r4, r0]
 80046a4:	2801      	cmp	r0, #1
 80046a6:	d046      	beq.n	8004736 <HAL_DMA_Start_IT+0x9a>
 80046a8:	2024      	movs	r0, #36	@ 0x24
 80046aa:	2501      	movs	r5, #1
 80046ac:	5425      	strb	r5, [r4, r0]
 80046ae:	3001      	adds	r0, #1
 80046b0:	5c20      	ldrb	r0, [r4, r0]
 80046b2:	2801      	cmp	r0, #1
 80046b4:	d007      	beq.n	80046c6 <HAL_DMA_Start_IT+0x2a>
 80046b6:	2324      	movs	r3, #36	@ 0x24
 80046b8:	2200      	movs	r2, #0
 80046ba:	54e2      	strb	r2, [r4, r3]
 80046bc:	2002      	movs	r0, #2
 80046be:	2324      	movs	r3, #36	@ 0x24
 80046c0:	2200      	movs	r2, #0
 80046c2:	54e2      	strb	r2, [r4, r3]
 80046c4:	bd70      	pop	{r4, r5, r6, pc}
 80046c6:	3024      	adds	r0, #36	@ 0x24
 80046c8:	3501      	adds	r5, #1
 80046ca:	5425      	strb	r5, [r4, r0]
 80046cc:	2000      	movs	r0, #0
 80046ce:	63e0      	str	r0, [r4, #60]	@ 0x3c
 80046d0:	6825      	ldr	r5, [r4, #0]
 80046d2:	6828      	ldr	r0, [r5, #0]
 80046d4:	2601      	movs	r6, #1
 80046d6:	43b0      	bics	r0, r6
 80046d8:	6028      	str	r0, [r5, #0]
 80046da:	0020      	movs	r0, r4
 80046dc:	f7ff ff32 	bl	8004544 <DMA_SetConfig>
 80046e0:	6b23      	ldr	r3, [r4, #48]	@ 0x30
 80046e2:	2b00      	cmp	r3, #0
 80046e4:	d01c      	beq.n	8004720 <HAL_DMA_Start_IT+0x84>
 80046e6:	6822      	ldr	r2, [r4, #0]
 80046e8:	6813      	ldr	r3, [r2, #0]
 80046ea:	210e      	movs	r1, #14
 80046ec:	430b      	orrs	r3, r1
 80046ee:	6013      	str	r3, [r2, #0]
 80046f0:	6c62      	ldr	r2, [r4, #68]	@ 0x44
 80046f2:	6813      	ldr	r3, [r2, #0]
 80046f4:	03db      	lsls	r3, r3, #15
 80046f6:	d504      	bpl.n	8004702 <HAL_DMA_Start_IT+0x66>
 80046f8:	6811      	ldr	r1, [r2, #0]
 80046fa:	2380      	movs	r3, #128	@ 0x80
 80046fc:	005b      	lsls	r3, r3, #1
 80046fe:	430b      	orrs	r3, r1
 8004700:	6013      	str	r3, [r2, #0]
 8004702:	6d23      	ldr	r3, [r4, #80]	@ 0x50
 8004704:	2b00      	cmp	r3, #0
 8004706:	d004      	beq.n	8004712 <HAL_DMA_Start_IT+0x76>
 8004708:	6819      	ldr	r1, [r3, #0]
 800470a:	2280      	movs	r2, #128	@ 0x80
 800470c:	0052      	lsls	r2, r2, #1
 800470e:	430a      	orrs	r2, r1
 8004710:	601a      	str	r2, [r3, #0]
 8004712:	6822      	ldr	r2, [r4, #0]
 8004714:	6813      	ldr	r3, [r2, #0]
 8004716:	2101      	movs	r1, #1
 8004718:	430b      	orrs	r3, r1
 800471a:	6013      	str	r3, [r2, #0]
 800471c:	2000      	movs	r0, #0
 800471e:	e7ce      	b.n	80046be <HAL_DMA_Start_IT+0x22>
 8004720:	6822      	ldr	r2, [r4, #0]
 8004722:	6813      	ldr	r3, [r2, #0]
 8004724:	2104      	movs	r1, #4
 8004726:	438b      	bics	r3, r1
 8004728:	6013      	str	r3, [r2, #0]
 800472a:	6822      	ldr	r2, [r4, #0]
 800472c:	6813      	ldr	r3, [r2, #0]
 800472e:	3106      	adds	r1, #6
 8004730:	430b      	orrs	r3, r1
 8004732:	6013      	str	r3, [r2, #0]
 8004734:	e7dc      	b.n	80046f0 <HAL_DMA_Start_IT+0x54>
 8004736:	2002      	movs	r0, #2
 8004738:	e7c4      	b.n	80046c4 <HAL_DMA_Start_IT+0x28>
	...

0800473c <HAL_DMA_Abort>:
 800473c:	b530      	push	{r4, r5, lr}
 800473e:	2800      	cmp	r0, #0
 8004740:	d036      	beq.n	80047b0 <HAL_DMA_Abort+0x74>
 8004742:	2325      	movs	r3, #37	@ 0x25
 8004744:	5cc3      	ldrb	r3, [r0, r3]
 8004746:	2b02      	cmp	r3, #2
 8004748:	d006      	beq.n	8004758 <HAL_DMA_Abort+0x1c>
 800474a:	2304      	movs	r3, #4
 800474c:	63c3      	str	r3, [r0, #60]	@ 0x3c
 800474e:	3320      	adds	r3, #32
 8004750:	2200      	movs	r2, #0
 8004752:	54c2      	strb	r2, [r0, r3]
 8004754:	2001      	movs	r0, #1
 8004756:	bd30      	pop	{r4, r5, pc}
 8004758:	6802      	ldr	r2, [r0, #0]
 800475a:	6813      	ldr	r3, [r2, #0]
 800475c:	210e      	movs	r1, #14
 800475e:	438b      	bics	r3, r1
 8004760:	6013      	str	r3, [r2, #0]
 8004762:	6c42      	ldr	r2, [r0, #68]	@ 0x44
 8004764:	6813      	ldr	r3, [r2, #0]
 8004766:	4913      	ldr	r1, [pc, #76]	@ (80047b4 <HAL_DMA_Abort+0x78>)
 8004768:	400b      	ands	r3, r1
 800476a:	6013      	str	r3, [r2, #0]
 800476c:	6801      	ldr	r1, [r0, #0]
 800476e:	680a      	ldr	r2, [r1, #0]
 8004770:	2301      	movs	r3, #1
 8004772:	439a      	bics	r2, r3
 8004774:	600a      	str	r2, [r1, #0]
 8004776:	4c10      	ldr	r4, [pc, #64]	@ (80047b8 <HAL_DMA_Abort+0x7c>)
 8004778:	6862      	ldr	r2, [r4, #4]
 800477a:	6c05      	ldr	r5, [r0, #64]	@ 0x40
 800477c:	211c      	movs	r1, #28
 800477e:	4029      	ands	r1, r5
 8004780:	408b      	lsls	r3, r1
 8004782:	4313      	orrs	r3, r2
 8004784:	6063      	str	r3, [r4, #4]
 8004786:	6c83      	ldr	r3, [r0, #72]	@ 0x48
 8004788:	6cc2      	ldr	r2, [r0, #76]	@ 0x4c
 800478a:	605a      	str	r2, [r3, #4]
 800478c:	6d03      	ldr	r3, [r0, #80]	@ 0x50
 800478e:	2b00      	cmp	r3, #0
 8004790:	d006      	beq.n	80047a0 <HAL_DMA_Abort+0x64>
 8004792:	681a      	ldr	r2, [r3, #0]
 8004794:	4907      	ldr	r1, [pc, #28]	@ (80047b4 <HAL_DMA_Abort+0x78>)
 8004796:	400a      	ands	r2, r1
 8004798:	601a      	str	r2, [r3, #0]
 800479a:	6d43      	ldr	r3, [r0, #84]	@ 0x54
 800479c:	6d82      	ldr	r2, [r0, #88]	@ 0x58
 800479e:	605a      	str	r2, [r3, #4]
 80047a0:	2325      	movs	r3, #37	@ 0x25
 80047a2:	2201      	movs	r2, #1
 80047a4:	54c2      	strb	r2, [r0, r3]
 80047a6:	3b01      	subs	r3, #1
 80047a8:	2200      	movs	r2, #0
 80047aa:	54c2      	strb	r2, [r0, r3]
 80047ac:	2000      	movs	r0, #0
 80047ae:	e7d2      	b.n	8004756 <HAL_DMA_Abort+0x1a>
 80047b0:	2001      	movs	r0, #1
 80047b2:	e7d0      	b.n	8004756 <HAL_DMA_Abort+0x1a>
 80047b4:	fffffeff 	.word	0xfffffeff
 80047b8:	40020000 	.word	0x40020000

080047bc <HAL_DMA_IRQHandler>:
 80047bc:	b570      	push	{r4, r5, r6, lr}
 80047be:	4b31      	ldr	r3, [pc, #196]	@ (8004884 <HAL_DMA_IRQHandler+0xc8>)
 80047c0:	6819      	ldr	r1, [r3, #0]
 80047c2:	6804      	ldr	r4, [r0, #0]
 80047c4:	6825      	ldr	r5, [r4, #0]
 80047c6:	6c02      	ldr	r2, [r0, #64]	@ 0x40
 80047c8:	231c      	movs	r3, #28
 80047ca:	4013      	ands	r3, r2
 80047cc:	2204      	movs	r2, #4
 80047ce:	409a      	lsls	r2, r3
 80047d0:	4211      	tst	r1, r2
 80047d2:	d016      	beq.n	8004802 <HAL_DMA_IRQHandler+0x46>
 80047d4:	076a      	lsls	r2, r5, #29
 80047d6:	d514      	bpl.n	8004802 <HAL_DMA_IRQHandler+0x46>
 80047d8:	6823      	ldr	r3, [r4, #0]
 80047da:	069b      	lsls	r3, r3, #26
 80047dc:	d403      	bmi.n	80047e6 <HAL_DMA_IRQHandler+0x2a>
 80047de:	6823      	ldr	r3, [r4, #0]
 80047e0:	2204      	movs	r2, #4
 80047e2:	4393      	bics	r3, r2
 80047e4:	6023      	str	r3, [r4, #0]
 80047e6:	4c27      	ldr	r4, [pc, #156]	@ (8004884 <HAL_DMA_IRQHandler+0xc8>)
 80047e8:	6863      	ldr	r3, [r4, #4]
 80047ea:	6c02      	ldr	r2, [r0, #64]	@ 0x40
 80047ec:	211c      	movs	r1, #28
 80047ee:	4011      	ands	r1, r2
 80047f0:	2204      	movs	r2, #4
 80047f2:	408a      	lsls	r2, r1
 80047f4:	4313      	orrs	r3, r2
 80047f6:	6063      	str	r3, [r4, #4]
 80047f8:	6b03      	ldr	r3, [r0, #48]	@ 0x30
 80047fa:	2b00      	cmp	r3, #0
 80047fc:	d000      	beq.n	8004800 <HAL_DMA_IRQHandler+0x44>
 80047fe:	4798      	blx	r3
 8004800:	bd70      	pop	{r4, r5, r6, pc}
 8004802:	2202      	movs	r2, #2
 8004804:	409a      	lsls	r2, r3
 8004806:	4211      	tst	r1, r2
 8004808:	d01c      	beq.n	8004844 <HAL_DMA_IRQHandler+0x88>
 800480a:	07aa      	lsls	r2, r5, #30
 800480c:	d51a      	bpl.n	8004844 <HAL_DMA_IRQHandler+0x88>
 800480e:	6823      	ldr	r3, [r4, #0]
 8004810:	069b      	lsls	r3, r3, #26
 8004812:	d406      	bmi.n	8004822 <HAL_DMA_IRQHandler+0x66>
 8004814:	6823      	ldr	r3, [r4, #0]
 8004816:	220a      	movs	r2, #10
 8004818:	4393      	bics	r3, r2
 800481a:	6023      	str	r3, [r4, #0]
 800481c:	2325      	movs	r3, #37	@ 0x25
 800481e:	3a09      	subs	r2, #9
 8004820:	54c2      	strb	r2, [r0, r3]
 8004822:	4c18      	ldr	r4, [pc, #96]	@ (8004884 <HAL_DMA_IRQHandler+0xc8>)
 8004824:	6863      	ldr	r3, [r4, #4]
 8004826:	6c02      	ldr	r2, [r0, #64]	@ 0x40
 8004828:	211c      	movs	r1, #28
 800482a:	4011      	ands	r1, r2
 800482c:	2202      	movs	r2, #2
 800482e:	408a      	lsls	r2, r1
 8004830:	4313      	orrs	r3, r2
 8004832:	6063      	str	r3, [r4, #4]
 8004834:	2324      	movs	r3, #36	@ 0x24
 8004836:	2200      	movs	r2, #0
 8004838:	54c2      	strb	r2, [r0, r3]
 800483a:	6ac3      	ldr	r3, [r0, #44]	@ 0x2c
 800483c:	2b00      	cmp	r3, #0
 800483e:	d0df      	beq.n	8004800 <HAL_DMA_IRQHandler+0x44>
 8004840:	4798      	blx	r3
 8004842:	e7dd      	b.n	8004800 <HAL_DMA_IRQHandler+0x44>
 8004844:	2208      	movs	r2, #8
 8004846:	409a      	lsls	r2, r3
 8004848:	4211      	tst	r1, r2
 800484a:	d0d9      	beq.n	8004800 <HAL_DMA_IRQHandler+0x44>
 800484c:	072d      	lsls	r5, r5, #28
 800484e:	d5d7      	bpl.n	8004800 <HAL_DMA_IRQHandler+0x44>
 8004850:	6823      	ldr	r3, [r4, #0]
 8004852:	220e      	movs	r2, #14
 8004854:	4393      	bics	r3, r2
 8004856:	6023      	str	r3, [r4, #0]
 8004858:	4c0a      	ldr	r4, [pc, #40]	@ (8004884 <HAL_DMA_IRQHandler+0xc8>)
 800485a:	6862      	ldr	r2, [r4, #4]
 800485c:	6c03      	ldr	r3, [r0, #64]	@ 0x40
 800485e:	211c      	movs	r1, #28
 8004860:	4019      	ands	r1, r3
 8004862:	2301      	movs	r3, #1
 8004864:	001d      	movs	r5, r3
 8004866:	408d      	lsls	r5, r1
 8004868:	432a      	orrs	r2, r5
 800486a:	6062      	str	r2, [r4, #4]
 800486c:	63c3      	str	r3, [r0, #60]	@ 0x3c
 800486e:	2225      	movs	r2, #37	@ 0x25
 8004870:	5483      	strb	r3, [r0, r2]
 8004872:	3323      	adds	r3, #35	@ 0x23
 8004874:	2200      	movs	r2, #0
 8004876:	54c2      	strb	r2, [r0, r3]
 8004878:	6b43      	ldr	r3, [r0, #52]	@ 0x34
 800487a:	2b00      	cmp	r3, #0
 800487c:	d0c0      	beq.n	8004800 <HAL_DMA_IRQHandler+0x44>
 800487e:	4798      	blx	r3
 8004880:	e7be      	b.n	8004800 <HAL_DMA_IRQHandler+0x44>
 8004882:	46c0      	nop			@ (mov r8, r8)
 8004884:	40020000 	.word	0x40020000

08004888 <HAL_GPIO_Init>:
 8004888:	b5f0      	push	{r4, r5, r6, r7, lr}
 800488a:	46d6      	mov	lr, sl
 800488c:	464f      	mov	r7, r9
 800488e:	4646      	mov	r6, r8
 8004890:	b5c0      	push	{r6, r7, lr}
 8004892:	2300      	movs	r3, #0
 8004894:	e03b      	b.n	800490e <HAL_GPIO_Init+0x86>
 8004896:	2505      	movs	r5, #5
 8004898:	e000      	b.n	800489c <HAL_GPIO_Init+0x14>
 800489a:	2500      	movs	r5, #0
 800489c:	40a5      	lsls	r5, r4
 800489e:	002c      	movs	r4, r5
 80048a0:	433c      	orrs	r4, r7
 80048a2:	4d61      	ldr	r5, [pc, #388]	@ (8004a28 <HAL_GPIO_Init+0x1a0>)
 80048a4:	3218      	adds	r2, #24
 80048a6:	0092      	lsls	r2, r2, #2
 80048a8:	5154      	str	r4, [r2, r5]
 80048aa:	2280      	movs	r2, #128	@ 0x80
 80048ac:	58af      	ldr	r7, [r5, r2]
 80048ae:	464a      	mov	r2, r9
 80048b0:	43d2      	mvns	r2, r2
 80048b2:	003d      	movs	r5, r7
 80048b4:	464c      	mov	r4, r9
 80048b6:	43a5      	bics	r5, r4
 80048b8:	684c      	ldr	r4, [r1, #4]
 80048ba:	03e4      	lsls	r4, r4, #15
 80048bc:	d502      	bpl.n	80048c4 <HAL_GPIO_Init+0x3c>
 80048be:	003d      	movs	r5, r7
 80048c0:	464c      	mov	r4, r9
 80048c2:	4325      	orrs	r5, r4
 80048c4:	4c58      	ldr	r4, [pc, #352]	@ (8004a28 <HAL_GPIO_Init+0x1a0>)
 80048c6:	2780      	movs	r7, #128	@ 0x80
 80048c8:	51e5      	str	r5, [r4, r7]
 80048ca:	2584      	movs	r5, #132	@ 0x84
 80048cc:	5967      	ldr	r7, [r4, r5]
 80048ce:	003d      	movs	r5, r7
 80048d0:	4015      	ands	r5, r2
 80048d2:	684c      	ldr	r4, [r1, #4]
 80048d4:	03a4      	lsls	r4, r4, #14
 80048d6:	d502      	bpl.n	80048de <HAL_GPIO_Init+0x56>
 80048d8:	003d      	movs	r5, r7
 80048da:	464c      	mov	r4, r9
 80048dc:	4325      	orrs	r5, r4
 80048de:	4c52      	ldr	r4, [pc, #328]	@ (8004a28 <HAL_GPIO_Init+0x1a0>)
 80048e0:	2784      	movs	r7, #132	@ 0x84
 80048e2:	51e5      	str	r5, [r4, r7]
 80048e4:	6827      	ldr	r7, [r4, #0]
 80048e6:	003d      	movs	r5, r7
 80048e8:	4015      	ands	r5, r2
 80048ea:	684c      	ldr	r4, [r1, #4]
 80048ec:	02e4      	lsls	r4, r4, #11
 80048ee:	d502      	bpl.n	80048f6 <HAL_GPIO_Init+0x6e>
 80048f0:	003d      	movs	r5, r7
 80048f2:	464c      	mov	r4, r9
 80048f4:	4325      	orrs	r5, r4
 80048f6:	4c4c      	ldr	r4, [pc, #304]	@ (8004a28 <HAL_GPIO_Init+0x1a0>)
 80048f8:	6025      	str	r5, [r4, #0]
 80048fa:	6865      	ldr	r5, [r4, #4]
 80048fc:	402a      	ands	r2, r5
 80048fe:	684c      	ldr	r4, [r1, #4]
 8004900:	02a4      	lsls	r4, r4, #10
 8004902:	d501      	bpl.n	8004908 <HAL_GPIO_Init+0x80>
 8004904:	464a      	mov	r2, r9
 8004906:	432a      	orrs	r2, r5
 8004908:	4c47      	ldr	r4, [pc, #284]	@ (8004a28 <HAL_GPIO_Init+0x1a0>)
 800490a:	6062      	str	r2, [r4, #4]
 800490c:	3301      	adds	r3, #1
 800490e:	680c      	ldr	r4, [r1, #0]
 8004910:	0022      	movs	r2, r4
 8004912:	40da      	lsrs	r2, r3
 8004914:	d100      	bne.n	8004918 <HAL_GPIO_Init+0x90>
 8004916:	e081      	b.n	8004a1c <HAL_GPIO_Init+0x194>
 8004918:	2201      	movs	r2, #1
 800491a:	409a      	lsls	r2, r3
 800491c:	0026      	movs	r6, r4
 800491e:	4016      	ands	r6, r2
 8004920:	46b1      	mov	r9, r6
 8004922:	4214      	tst	r4, r2
 8004924:	d0f2      	beq.n	800490c <HAL_GPIO_Init+0x84>
 8004926:	684c      	ldr	r4, [r1, #4]
 8004928:	2c02      	cmp	r4, #2
 800492a:	d001      	beq.n	8004930 <HAL_GPIO_Init+0xa8>
 800492c:	2c12      	cmp	r4, #18
 800492e:	d118      	bne.n	8004962 <HAL_GPIO_Init+0xda>
 8004930:	08dd      	lsrs	r5, r3, #3
 8004932:	3508      	adds	r5, #8
 8004934:	00ad      	lsls	r5, r5, #2
 8004936:	582c      	ldr	r4, [r5, r0]
 8004938:	46a4      	mov	ip, r4
 800493a:	2707      	movs	r7, #7
 800493c:	401f      	ands	r7, r3
 800493e:	00bf      	lsls	r7, r7, #2
 8004940:	240f      	movs	r4, #15
 8004942:	46a2      	mov	sl, r4
 8004944:	0026      	movs	r6, r4
 8004946:	40be      	lsls	r6, r7
 8004948:	46b0      	mov	r8, r6
 800494a:	4666      	mov	r6, ip
 800494c:	4644      	mov	r4, r8
 800494e:	43a6      	bics	r6, r4
 8004950:	46b4      	mov	ip, r6
 8004952:	690c      	ldr	r4, [r1, #16]
 8004954:	4656      	mov	r6, sl
 8004956:	4026      	ands	r6, r4
 8004958:	0034      	movs	r4, r6
 800495a:	40bc      	lsls	r4, r7
 800495c:	4666      	mov	r6, ip
 800495e:	4334      	orrs	r4, r6
 8004960:	502c      	str	r4, [r5, r0]
 8004962:	6804      	ldr	r4, [r0, #0]
 8004964:	46a4      	mov	ip, r4
 8004966:	005d      	lsls	r5, r3, #1
 8004968:	2403      	movs	r4, #3
 800496a:	46a2      	mov	sl, r4
 800496c:	0027      	movs	r7, r4
 800496e:	40af      	lsls	r7, r5
 8004970:	46b8      	mov	r8, r7
 8004972:	43ff      	mvns	r7, r7
 8004974:	4666      	mov	r6, ip
 8004976:	4644      	mov	r4, r8
 8004978:	43a6      	bics	r6, r4
 800497a:	46b4      	mov	ip, r6
 800497c:	684c      	ldr	r4, [r1, #4]
 800497e:	4656      	mov	r6, sl
 8004980:	4026      	ands	r6, r4
 8004982:	0034      	movs	r4, r6
 8004984:	40ac      	lsls	r4, r5
 8004986:	4666      	mov	r6, ip
 8004988:	4334      	orrs	r4, r6
 800498a:	6004      	str	r4, [r0, #0]
 800498c:	684c      	ldr	r4, [r1, #4]
 800498e:	1e66      	subs	r6, r4, #1
 8004990:	2e01      	cmp	r6, #1
 8004992:	d903      	bls.n	800499c <HAL_GPIO_Init+0x114>
 8004994:	2c11      	cmp	r4, #17
 8004996:	d001      	beq.n	800499c <HAL_GPIO_Init+0x114>
 8004998:	2c12      	cmp	r4, #18
 800499a:	d112      	bne.n	80049c2 <HAL_GPIO_Init+0x13a>
 800499c:	6884      	ldr	r4, [r0, #8]
 800499e:	403c      	ands	r4, r7
 80049a0:	46a4      	mov	ip, r4
 80049a2:	68cc      	ldr	r4, [r1, #12]
 80049a4:	40ac      	lsls	r4, r5
 80049a6:	4666      	mov	r6, ip
 80049a8:	4334      	orrs	r4, r6
 80049aa:	6084      	str	r4, [r0, #8]
 80049ac:	6844      	ldr	r4, [r0, #4]
 80049ae:	4394      	bics	r4, r2
 80049b0:	684a      	ldr	r2, [r1, #4]
 80049b2:	0912      	lsrs	r2, r2, #4
 80049b4:	4694      	mov	ip, r2
 80049b6:	2201      	movs	r2, #1
 80049b8:	4666      	mov	r6, ip
 80049ba:	4032      	ands	r2, r6
 80049bc:	409a      	lsls	r2, r3
 80049be:	4322      	orrs	r2, r4
 80049c0:	6042      	str	r2, [r0, #4]
 80049c2:	684a      	ldr	r2, [r1, #4]
 80049c4:	2a03      	cmp	r2, #3
 80049c6:	d005      	beq.n	80049d4 <HAL_GPIO_Init+0x14c>
 80049c8:	68c4      	ldr	r4, [r0, #12]
 80049ca:	403c      	ands	r4, r7
 80049cc:	688a      	ldr	r2, [r1, #8]
 80049ce:	40aa      	lsls	r2, r5
 80049d0:	4322      	orrs	r2, r4
 80049d2:	60c2      	str	r2, [r0, #12]
 80049d4:	684a      	ldr	r2, [r1, #4]
 80049d6:	00d2      	lsls	r2, r2, #3
 80049d8:	d598      	bpl.n	800490c <HAL_GPIO_Init+0x84>
 80049da:	089a      	lsrs	r2, r3, #2
 80049dc:	0014      	movs	r4, r2
 80049de:	3418      	adds	r4, #24
 80049e0:	00a4      	lsls	r4, r4, #2
 80049e2:	4d11      	ldr	r5, [pc, #68]	@ (8004a28 <HAL_GPIO_Init+0x1a0>)
 80049e4:	5967      	ldr	r7, [r4, r5]
 80049e6:	2403      	movs	r4, #3
 80049e8:	401c      	ands	r4, r3
 80049ea:	00e4      	lsls	r4, r4, #3
 80049ec:	250f      	movs	r5, #15
 80049ee:	40a5      	lsls	r5, r4
 80049f0:	43af      	bics	r7, r5
 80049f2:	25a0      	movs	r5, #160	@ 0xa0
 80049f4:	05ed      	lsls	r5, r5, #23
 80049f6:	42a8      	cmp	r0, r5
 80049f8:	d100      	bne.n	80049fc <HAL_GPIO_Init+0x174>
 80049fa:	e74e      	b.n	800489a <HAL_GPIO_Init+0x12>
 80049fc:	4d0b      	ldr	r5, [pc, #44]	@ (8004a2c <HAL_GPIO_Init+0x1a4>)
 80049fe:	42a8      	cmp	r0, r5
 8004a00:	d008      	beq.n	8004a14 <HAL_GPIO_Init+0x18c>
 8004a02:	4d0b      	ldr	r5, [pc, #44]	@ (8004a30 <HAL_GPIO_Init+0x1a8>)
 8004a04:	42a8      	cmp	r0, r5
 8004a06:	d007      	beq.n	8004a18 <HAL_GPIO_Init+0x190>
 8004a08:	4d0a      	ldr	r5, [pc, #40]	@ (8004a34 <HAL_GPIO_Init+0x1ac>)
 8004a0a:	42a8      	cmp	r0, r5
 8004a0c:	d100      	bne.n	8004a10 <HAL_GPIO_Init+0x188>
 8004a0e:	e742      	b.n	8004896 <HAL_GPIO_Init+0xe>
 8004a10:	2506      	movs	r5, #6
 8004a12:	e743      	b.n	800489c <HAL_GPIO_Init+0x14>
 8004a14:	2501      	movs	r5, #1
 8004a16:	e741      	b.n	800489c <HAL_GPIO_Init+0x14>
 8004a18:	2502      	movs	r5, #2
 8004a1a:	e73f      	b.n	800489c <HAL_GPIO_Init+0x14>
 8004a1c:	bce0      	pop	{r5, r6, r7}
 8004a1e:	46ba      	mov	sl, r7
 8004a20:	46b1      	mov	r9, r6
 8004a22:	46a8      	mov	r8, r5
 8004a24:	bdf0      	pop	{r4, r5, r6, r7, pc}
 8004a26:	46c0      	nop			@ (mov r8, r8)
 8004a28:	40021800 	.word	0x40021800
 8004a2c:	50000400 	.word	0x50000400
 8004a30:	50000800 	.word	0x50000800
 8004a34:	50001400 	.word	0x50001400

08004a38 <HAL_GPIO_ReadPin>:
 8004a38:	6903      	ldr	r3, [r0, #16]
 8004a3a:	420b      	tst	r3, r1
 8004a3c:	d001      	beq.n	8004a42 <HAL_GPIO_ReadPin+0xa>
 8004a3e:	2001      	movs	r0, #1
 8004a40:	4770      	bx	lr
 8004a42:	2000      	movs	r0, #0
 8004a44:	e7fc      	b.n	8004a40 <HAL_GPIO_ReadPin+0x8>

08004a46 <HAL_GPIO_WritePin>:
 8004a46:	2a00      	cmp	r2, #0
 8004a48:	d001      	beq.n	8004a4e <HAL_GPIO_WritePin+0x8>
 8004a4a:	6181      	str	r1, [r0, #24]
 8004a4c:	4770      	bx	lr
 8004a4e:	6281      	str	r1, [r0, #40]	@ 0x28
 8004a50:	e7fc      	b.n	8004a4c <HAL_GPIO_WritePin+0x6>

08004a52 <HAL_GPIO_TogglePin>:
 8004a52:	6942      	ldr	r2, [r0, #20]
 8004a54:	0013      	movs	r3, r2
 8004a56:	400b      	ands	r3, r1
 8004a58:	041b      	lsls	r3, r3, #16
 8004a5a:	4391      	bics	r1, r2
 8004a5c:	430b      	orrs	r3, r1
 8004a5e:	6183      	str	r3, [r0, #24]
 8004a60:	4770      	bx	lr
	...

08004a64 <HAL_RCC_OscConfig>:
 8004a64:	b570      	push	{r4, r5, r6, lr}
 8004a66:	1e04      	subs	r4, r0, #0
 8004a68:	d100      	bne.n	8004a6c <HAL_RCC_OscConfig+0x8>
 8004a6a:	e139      	b.n	8004ce0 <HAL_RCC_OscConfig+0x27c>
 8004a6c:	6803      	ldr	r3, [r0, #0]
 8004a6e:	07db      	lsls	r3, r3, #31
 8004a70:	d52c      	bpl.n	8004acc <HAL_RCC_OscConfig+0x68>
 8004a72:	4ba1      	ldr	r3, [pc, #644]	@ (8004cf8 <HAL_RCC_OscConfig+0x294>)
 8004a74:	689a      	ldr	r2, [r3, #8]
 8004a76:	2338      	movs	r3, #56	@ 0x38
 8004a78:	4013      	ands	r3, r2
 8004a7a:	2b08      	cmp	r3, #8
 8004a7c:	d022      	beq.n	8004ac4 <HAL_RCC_OscConfig+0x60>
 8004a7e:	6843      	ldr	r3, [r0, #4]
 8004a80:	2280      	movs	r2, #128	@ 0x80
 8004a82:	0252      	lsls	r2, r2, #9
 8004a84:	4293      	cmp	r3, r2
 8004a86:	d02e      	beq.n	8004ae6 <HAL_RCC_OscConfig+0x82>
 8004a88:	22a0      	movs	r2, #160	@ 0xa0
 8004a8a:	02d2      	lsls	r2, r2, #11
 8004a8c:	4293      	cmp	r3, r2
 8004a8e:	d031      	beq.n	8004af4 <HAL_RCC_OscConfig+0x90>
 8004a90:	4b99      	ldr	r3, [pc, #612]	@ (8004cf8 <HAL_RCC_OscConfig+0x294>)
 8004a92:	681a      	ldr	r2, [r3, #0]
 8004a94:	4999      	ldr	r1, [pc, #612]	@ (8004cfc <HAL_RCC_OscConfig+0x298>)
 8004a96:	400a      	ands	r2, r1
 8004a98:	601a      	str	r2, [r3, #0]
 8004a9a:	681a      	ldr	r2, [r3, #0]
 8004a9c:	4998      	ldr	r1, [pc, #608]	@ (8004d00 <HAL_RCC_OscConfig+0x29c>)
 8004a9e:	400a      	ands	r2, r1
 8004aa0:	601a      	str	r2, [r3, #0]
 8004aa2:	6863      	ldr	r3, [r4, #4]
 8004aa4:	2b00      	cmp	r3, #0
 8004aa6:	d031      	beq.n	8004b0c <HAL_RCC_OscConfig+0xa8>
 8004aa8:	f7ff f8bc 	bl	8003c24 <HAL_GetTick>
 8004aac:	0005      	movs	r5, r0
 8004aae:	4b92      	ldr	r3, [pc, #584]	@ (8004cf8 <HAL_RCC_OscConfig+0x294>)
 8004ab0:	681b      	ldr	r3, [r3, #0]
 8004ab2:	039b      	lsls	r3, r3, #14
 8004ab4:	d40a      	bmi.n	8004acc <HAL_RCC_OscConfig+0x68>
 8004ab6:	f7ff f8b5 	bl	8003c24 <HAL_GetTick>
 8004aba:	1b40      	subs	r0, r0, r5
 8004abc:	2864      	cmp	r0, #100	@ 0x64
 8004abe:	d9f6      	bls.n	8004aae <HAL_RCC_OscConfig+0x4a>
 8004ac0:	2003      	movs	r0, #3
 8004ac2:	e10e      	b.n	8004ce2 <HAL_RCC_OscConfig+0x27e>
 8004ac4:	6843      	ldr	r3, [r0, #4]
 8004ac6:	2b00      	cmp	r3, #0
 8004ac8:	d100      	bne.n	8004acc <HAL_RCC_OscConfig+0x68>
 8004aca:	e10b      	b.n	8004ce4 <HAL_RCC_OscConfig+0x280>
 8004acc:	6823      	ldr	r3, [r4, #0]
 8004ace:	079b      	lsls	r3, r3, #30
 8004ad0:	d547      	bpl.n	8004b62 <HAL_RCC_OscConfig+0xfe>
 8004ad2:	4b89      	ldr	r3, [pc, #548]	@ (8004cf8 <HAL_RCC_OscConfig+0x294>)
 8004ad4:	689b      	ldr	r3, [r3, #8]
 8004ad6:	2238      	movs	r2, #56	@ 0x38
 8004ad8:	421a      	tst	r2, r3
 8004ada:	d161      	bne.n	8004ba0 <HAL_RCC_OscConfig+0x13c>
 8004adc:	68e3      	ldr	r3, [r4, #12]
 8004ade:	2b00      	cmp	r3, #0
 8004ae0:	d122      	bne.n	8004b28 <HAL_RCC_OscConfig+0xc4>
 8004ae2:	2001      	movs	r0, #1
 8004ae4:	e0fd      	b.n	8004ce2 <HAL_RCC_OscConfig+0x27e>
 8004ae6:	4a84      	ldr	r2, [pc, #528]	@ (8004cf8 <HAL_RCC_OscConfig+0x294>)
 8004ae8:	6811      	ldr	r1, [r2, #0]
 8004aea:	2380      	movs	r3, #128	@ 0x80
 8004aec:	025b      	lsls	r3, r3, #9
 8004aee:	430b      	orrs	r3, r1
 8004af0:	6013      	str	r3, [r2, #0]
 8004af2:	e7d6      	b.n	8004aa2 <HAL_RCC_OscConfig+0x3e>
 8004af4:	4b80      	ldr	r3, [pc, #512]	@ (8004cf8 <HAL_RCC_OscConfig+0x294>)
 8004af6:	6819      	ldr	r1, [r3, #0]
 8004af8:	2280      	movs	r2, #128	@ 0x80
 8004afa:	02d2      	lsls	r2, r2, #11
 8004afc:	430a      	orrs	r2, r1
 8004afe:	601a      	str	r2, [r3, #0]
 8004b00:	6819      	ldr	r1, [r3, #0]
 8004b02:	2280      	movs	r2, #128	@ 0x80
 8004b04:	0252      	lsls	r2, r2, #9
 8004b06:	430a      	orrs	r2, r1
 8004b08:	601a      	str	r2, [r3, #0]
 8004b0a:	e7ca      	b.n	8004aa2 <HAL_RCC_OscConfig+0x3e>
 8004b0c:	f7ff f88a 	bl	8003c24 <HAL_GetTick>
 8004b10:	0005      	movs	r5, r0
 8004b12:	4b79      	ldr	r3, [pc, #484]	@ (8004cf8 <HAL_RCC_OscConfig+0x294>)
 8004b14:	681b      	ldr	r3, [r3, #0]
 8004b16:	039b      	lsls	r3, r3, #14
 8004b18:	d5d8      	bpl.n	8004acc <HAL_RCC_OscConfig+0x68>
 8004b1a:	f7ff f883 	bl	8003c24 <HAL_GetTick>
 8004b1e:	1b40      	subs	r0, r0, r5
 8004b20:	2864      	cmp	r0, #100	@ 0x64
 8004b22:	d9f6      	bls.n	8004b12 <HAL_RCC_OscConfig+0xae>
 8004b24:	2003      	movs	r0, #3
 8004b26:	e0dc      	b.n	8004ce2 <HAL_RCC_OscConfig+0x27e>
 8004b28:	4b73      	ldr	r3, [pc, #460]	@ (8004cf8 <HAL_RCC_OscConfig+0x294>)
 8004b2a:	685a      	ldr	r2, [r3, #4]
 8004b2c:	4975      	ldr	r1, [pc, #468]	@ (8004d04 <HAL_RCC_OscConfig+0x2a0>)
 8004b2e:	400a      	ands	r2, r1
 8004b30:	6961      	ldr	r1, [r4, #20]
 8004b32:	0209      	lsls	r1, r1, #8
 8004b34:	430a      	orrs	r2, r1
 8004b36:	605a      	str	r2, [r3, #4]
 8004b38:	681a      	ldr	r2, [r3, #0]
 8004b3a:	4973      	ldr	r1, [pc, #460]	@ (8004d08 <HAL_RCC_OscConfig+0x2a4>)
 8004b3c:	400a      	ands	r2, r1
 8004b3e:	6921      	ldr	r1, [r4, #16]
 8004b40:	430a      	orrs	r2, r1
 8004b42:	601a      	str	r2, [r3, #0]
 8004b44:	681b      	ldr	r3, [r3, #0]
 8004b46:	0adb      	lsrs	r3, r3, #11
 8004b48:	2207      	movs	r2, #7
 8004b4a:	401a      	ands	r2, r3
 8004b4c:	4b6f      	ldr	r3, [pc, #444]	@ (8004d0c <HAL_RCC_OscConfig+0x2a8>)
 8004b4e:	40d3      	lsrs	r3, r2
 8004b50:	4a6f      	ldr	r2, [pc, #444]	@ (8004d10 <HAL_RCC_OscConfig+0x2ac>)
 8004b52:	6013      	str	r3, [r2, #0]
 8004b54:	4b6f      	ldr	r3, [pc, #444]	@ (8004d14 <HAL_RCC_OscConfig+0x2b0>)
 8004b56:	6818      	ldr	r0, [r3, #0]
 8004b58:	f7ff f820 	bl	8003b9c <HAL_InitTick>
 8004b5c:	2800      	cmp	r0, #0
 8004b5e:	d000      	beq.n	8004b62 <HAL_RCC_OscConfig+0xfe>
 8004b60:	e0c2      	b.n	8004ce8 <HAL_RCC_OscConfig+0x284>
 8004b62:	6823      	ldr	r3, [r4, #0]
 8004b64:	071b      	lsls	r3, r3, #28
 8004b66:	d557      	bpl.n	8004c18 <HAL_RCC_OscConfig+0x1b4>
 8004b68:	4b63      	ldr	r3, [pc, #396]	@ (8004cf8 <HAL_RCC_OscConfig+0x294>)
 8004b6a:	689a      	ldr	r2, [r3, #8]
 8004b6c:	2338      	movs	r3, #56	@ 0x38
 8004b6e:	4013      	ands	r3, r2
 8004b70:	2b18      	cmp	r3, #24
 8004b72:	d04e      	beq.n	8004c12 <HAL_RCC_OscConfig+0x1ae>
 8004b74:	69a3      	ldr	r3, [r4, #24]
 8004b76:	2b00      	cmp	r3, #0
 8004b78:	d077      	beq.n	8004c6a <HAL_RCC_OscConfig+0x206>
 8004b7a:	4a5f      	ldr	r2, [pc, #380]	@ (8004cf8 <HAL_RCC_OscConfig+0x294>)
 8004b7c:	6e13      	ldr	r3, [r2, #96]	@ 0x60
 8004b7e:	2101      	movs	r1, #1
 8004b80:	430b      	orrs	r3, r1
 8004b82:	6613      	str	r3, [r2, #96]	@ 0x60
 8004b84:	f7ff f84e 	bl	8003c24 <HAL_GetTick>
 8004b88:	0005      	movs	r5, r0
 8004b8a:	4b5b      	ldr	r3, [pc, #364]	@ (8004cf8 <HAL_RCC_OscConfig+0x294>)
 8004b8c:	6e1b      	ldr	r3, [r3, #96]	@ 0x60
 8004b8e:	079b      	lsls	r3, r3, #30
 8004b90:	d442      	bmi.n	8004c18 <HAL_RCC_OscConfig+0x1b4>
 8004b92:	f7ff f847 	bl	8003c24 <HAL_GetTick>
 8004b96:	1b40      	subs	r0, r0, r5
 8004b98:	2802      	cmp	r0, #2
 8004b9a:	d9f6      	bls.n	8004b8a <HAL_RCC_OscConfig+0x126>
 8004b9c:	2003      	movs	r0, #3
 8004b9e:	e0a0      	b.n	8004ce2 <HAL_RCC_OscConfig+0x27e>
 8004ba0:	68e3      	ldr	r3, [r4, #12]
 8004ba2:	2b00      	cmp	r3, #0
 8004ba4:	d022      	beq.n	8004bec <HAL_RCC_OscConfig+0x188>
 8004ba6:	4a54      	ldr	r2, [pc, #336]	@ (8004cf8 <HAL_RCC_OscConfig+0x294>)
 8004ba8:	6813      	ldr	r3, [r2, #0]
 8004baa:	4957      	ldr	r1, [pc, #348]	@ (8004d08 <HAL_RCC_OscConfig+0x2a4>)
 8004bac:	400b      	ands	r3, r1
 8004bae:	6921      	ldr	r1, [r4, #16]
 8004bb0:	430b      	orrs	r3, r1
 8004bb2:	6013      	str	r3, [r2, #0]
 8004bb4:	6811      	ldr	r1, [r2, #0]
 8004bb6:	2380      	movs	r3, #128	@ 0x80
 8004bb8:	005b      	lsls	r3, r3, #1
 8004bba:	430b      	orrs	r3, r1
 8004bbc:	6013      	str	r3, [r2, #0]
 8004bbe:	f7ff f831 	bl	8003c24 <HAL_GetTick>
 8004bc2:	0005      	movs	r5, r0
 8004bc4:	4b4c      	ldr	r3, [pc, #304]	@ (8004cf8 <HAL_RCC_OscConfig+0x294>)
 8004bc6:	681b      	ldr	r3, [r3, #0]
 8004bc8:	055b      	lsls	r3, r3, #21
 8004bca:	d406      	bmi.n	8004bda <HAL_RCC_OscConfig+0x176>
 8004bcc:	f7ff f82a 	bl	8003c24 <HAL_GetTick>
 8004bd0:	1b40      	subs	r0, r0, r5
 8004bd2:	2802      	cmp	r0, #2
 8004bd4:	d9f6      	bls.n	8004bc4 <HAL_RCC_OscConfig+0x160>
 8004bd6:	2003      	movs	r0, #3
 8004bd8:	e083      	b.n	8004ce2 <HAL_RCC_OscConfig+0x27e>
 8004bda:	4947      	ldr	r1, [pc, #284]	@ (8004cf8 <HAL_RCC_OscConfig+0x294>)
 8004bdc:	684b      	ldr	r3, [r1, #4]
 8004bde:	4a49      	ldr	r2, [pc, #292]	@ (8004d04 <HAL_RCC_OscConfig+0x2a0>)
 8004be0:	4013      	ands	r3, r2
 8004be2:	6962      	ldr	r2, [r4, #20]
 8004be4:	0212      	lsls	r2, r2, #8
 8004be6:	4313      	orrs	r3, r2
 8004be8:	604b      	str	r3, [r1, #4]
 8004bea:	e7ba      	b.n	8004b62 <HAL_RCC_OscConfig+0xfe>
 8004bec:	4a42      	ldr	r2, [pc, #264]	@ (8004cf8 <HAL_RCC_OscConfig+0x294>)
 8004bee:	6813      	ldr	r3, [r2, #0]
 8004bf0:	4949      	ldr	r1, [pc, #292]	@ (8004d18 <HAL_RCC_OscConfig+0x2b4>)
 8004bf2:	400b      	ands	r3, r1
 8004bf4:	6013      	str	r3, [r2, #0]
 8004bf6:	f7ff f815 	bl	8003c24 <HAL_GetTick>
 8004bfa:	0005      	movs	r5, r0
 8004bfc:	4b3e      	ldr	r3, [pc, #248]	@ (8004cf8 <HAL_RCC_OscConfig+0x294>)
 8004bfe:	681b      	ldr	r3, [r3, #0]
 8004c00:	055b      	lsls	r3, r3, #21
 8004c02:	d5ae      	bpl.n	8004b62 <HAL_RCC_OscConfig+0xfe>
 8004c04:	f7ff f80e 	bl	8003c24 <HAL_GetTick>
 8004c08:	1b40      	subs	r0, r0, r5
 8004c0a:	2802      	cmp	r0, #2
 8004c0c:	d9f6      	bls.n	8004bfc <HAL_RCC_OscConfig+0x198>
 8004c0e:	2003      	movs	r0, #3
 8004c10:	e067      	b.n	8004ce2 <HAL_RCC_OscConfig+0x27e>
 8004c12:	69a3      	ldr	r3, [r4, #24]
 8004c14:	2b00      	cmp	r3, #0
 8004c16:	d069      	beq.n	8004cec <HAL_RCC_OscConfig+0x288>
 8004c18:	6823      	ldr	r3, [r4, #0]
 8004c1a:	075b      	lsls	r3, r3, #29
 8004c1c:	d568      	bpl.n	8004cf0 <HAL_RCC_OscConfig+0x28c>
 8004c1e:	4b36      	ldr	r3, [pc, #216]	@ (8004cf8 <HAL_RCC_OscConfig+0x294>)
 8004c20:	689a      	ldr	r2, [r3, #8]
 8004c22:	2338      	movs	r3, #56	@ 0x38
 8004c24:	4013      	ands	r3, r2
 8004c26:	2b20      	cmp	r3, #32
 8004c28:	d032      	beq.n	8004c90 <HAL_RCC_OscConfig+0x22c>
 8004c2a:	68a3      	ldr	r3, [r4, #8]
 8004c2c:	2b01      	cmp	r3, #1
 8004c2e:	d034      	beq.n	8004c9a <HAL_RCC_OscConfig+0x236>
 8004c30:	2b05      	cmp	r3, #5
 8004c32:	d038      	beq.n	8004ca6 <HAL_RCC_OscConfig+0x242>
 8004c34:	4b30      	ldr	r3, [pc, #192]	@ (8004cf8 <HAL_RCC_OscConfig+0x294>)
 8004c36:	6dda      	ldr	r2, [r3, #92]	@ 0x5c
 8004c38:	2101      	movs	r1, #1
 8004c3a:	438a      	bics	r2, r1
 8004c3c:	65da      	str	r2, [r3, #92]	@ 0x5c
 8004c3e:	6dda      	ldr	r2, [r3, #92]	@ 0x5c
 8004c40:	3103      	adds	r1, #3
 8004c42:	438a      	bics	r2, r1
 8004c44:	65da      	str	r2, [r3, #92]	@ 0x5c
 8004c46:	68a3      	ldr	r3, [r4, #8]
 8004c48:	2b00      	cmp	r3, #0
 8004c4a:	d038      	beq.n	8004cbe <HAL_RCC_OscConfig+0x25a>
 8004c4c:	f7fe ffea 	bl	8003c24 <HAL_GetTick>
 8004c50:	0004      	movs	r4, r0
 8004c52:	4b29      	ldr	r3, [pc, #164]	@ (8004cf8 <HAL_RCC_OscConfig+0x294>)
 8004c54:	6ddb      	ldr	r3, [r3, #92]	@ 0x5c
 8004c56:	079b      	lsls	r3, r3, #30
 8004c58:	d42f      	bmi.n	8004cba <HAL_RCC_OscConfig+0x256>
 8004c5a:	f7fe ffe3 	bl	8003c24 <HAL_GetTick>
 8004c5e:	1b00      	subs	r0, r0, r4
 8004c60:	4b2e      	ldr	r3, [pc, #184]	@ (8004d1c <HAL_RCC_OscConfig+0x2b8>)
 8004c62:	4298      	cmp	r0, r3
 8004c64:	d9f5      	bls.n	8004c52 <HAL_RCC_OscConfig+0x1ee>
 8004c66:	2003      	movs	r0, #3
 8004c68:	e03b      	b.n	8004ce2 <HAL_RCC_OscConfig+0x27e>
 8004c6a:	4a23      	ldr	r2, [pc, #140]	@ (8004cf8 <HAL_RCC_OscConfig+0x294>)
 8004c6c:	6e13      	ldr	r3, [r2, #96]	@ 0x60
 8004c6e:	2101      	movs	r1, #1
 8004c70:	438b      	bics	r3, r1
 8004c72:	6613      	str	r3, [r2, #96]	@ 0x60
 8004c74:	f7fe ffd6 	bl	8003c24 <HAL_GetTick>
 8004c78:	0005      	movs	r5, r0
 8004c7a:	4b1f      	ldr	r3, [pc, #124]	@ (8004cf8 <HAL_RCC_OscConfig+0x294>)
 8004c7c:	6e1b      	ldr	r3, [r3, #96]	@ 0x60
 8004c7e:	079b      	lsls	r3, r3, #30
 8004c80:	d5ca      	bpl.n	8004c18 <HAL_RCC_OscConfig+0x1b4>
 8004c82:	f7fe ffcf 	bl	8003c24 <HAL_GetTick>
 8004c86:	1b40      	subs	r0, r0, r5
 8004c88:	2802      	cmp	r0, #2
 8004c8a:	d9f6      	bls.n	8004c7a <HAL_RCC_OscConfig+0x216>
 8004c8c:	2003      	movs	r0, #3
 8004c8e:	e028      	b.n	8004ce2 <HAL_RCC_OscConfig+0x27e>
 8004c90:	68a3      	ldr	r3, [r4, #8]
 8004c92:	2b00      	cmp	r3, #0
 8004c94:	d02e      	beq.n	8004cf4 <HAL_RCC_OscConfig+0x290>
 8004c96:	2000      	movs	r0, #0
 8004c98:	e023      	b.n	8004ce2 <HAL_RCC_OscConfig+0x27e>
 8004c9a:	4a17      	ldr	r2, [pc, #92]	@ (8004cf8 <HAL_RCC_OscConfig+0x294>)
 8004c9c:	6dd3      	ldr	r3, [r2, #92]	@ 0x5c
 8004c9e:	2101      	movs	r1, #1
 8004ca0:	430b      	orrs	r3, r1
 8004ca2:	65d3      	str	r3, [r2, #92]	@ 0x5c
 8004ca4:	e7cf      	b.n	8004c46 <HAL_RCC_OscConfig+0x1e2>
 8004ca6:	4b14      	ldr	r3, [pc, #80]	@ (8004cf8 <HAL_RCC_OscConfig+0x294>)
 8004ca8:	6dda      	ldr	r2, [r3, #92]	@ 0x5c
 8004caa:	2104      	movs	r1, #4
 8004cac:	430a      	orrs	r2, r1
 8004cae:	65da      	str	r2, [r3, #92]	@ 0x5c
 8004cb0:	6dda      	ldr	r2, [r3, #92]	@ 0x5c
 8004cb2:	3903      	subs	r1, #3
 8004cb4:	430a      	orrs	r2, r1
 8004cb6:	65da      	str	r2, [r3, #92]	@ 0x5c
 8004cb8:	e7c5      	b.n	8004c46 <HAL_RCC_OscConfig+0x1e2>
 8004cba:	2000      	movs	r0, #0
 8004cbc:	e011      	b.n	8004ce2 <HAL_RCC_OscConfig+0x27e>
 8004cbe:	f7fe ffb1 	bl	8003c24 <HAL_GetTick>
 8004cc2:	0004      	movs	r4, r0
 8004cc4:	4b0c      	ldr	r3, [pc, #48]	@ (8004cf8 <HAL_RCC_OscConfig+0x294>)
 8004cc6:	6ddb      	ldr	r3, [r3, #92]	@ 0x5c
 8004cc8:	079b      	lsls	r3, r3, #30
 8004cca:	d507      	bpl.n	8004cdc <HAL_RCC_OscConfig+0x278>
 8004ccc:	f7fe ffaa 	bl	8003c24 <HAL_GetTick>
 8004cd0:	1b00      	subs	r0, r0, r4
 8004cd2:	4b12      	ldr	r3, [pc, #72]	@ (8004d1c <HAL_RCC_OscConfig+0x2b8>)
 8004cd4:	4298      	cmp	r0, r3
 8004cd6:	d9f5      	bls.n	8004cc4 <HAL_RCC_OscConfig+0x260>
 8004cd8:	2003      	movs	r0, #3
 8004cda:	e002      	b.n	8004ce2 <HAL_RCC_OscConfig+0x27e>
 8004cdc:	2000      	movs	r0, #0
 8004cde:	e000      	b.n	8004ce2 <HAL_RCC_OscConfig+0x27e>
 8004ce0:	2001      	movs	r0, #1
 8004ce2:	bd70      	pop	{r4, r5, r6, pc}
 8004ce4:	2001      	movs	r0, #1
 8004ce6:	e7fc      	b.n	8004ce2 <HAL_RCC_OscConfig+0x27e>
 8004ce8:	2001      	movs	r0, #1
 8004cea:	e7fa      	b.n	8004ce2 <HAL_RCC_OscConfig+0x27e>
 8004cec:	2001      	movs	r0, #1
 8004cee:	e7f8      	b.n	8004ce2 <HAL_RCC_OscConfig+0x27e>
 8004cf0:	2000      	movs	r0, #0
 8004cf2:	e7f6      	b.n	8004ce2 <HAL_RCC_OscConfig+0x27e>
 8004cf4:	2001      	movs	r0, #1
 8004cf6:	e7f4      	b.n	8004ce2 <HAL_RCC_OscConfig+0x27e>
 8004cf8:	40021000 	.word	0x40021000
 8004cfc:	fffeffff 	.word	0xfffeffff
 8004d00:	fffbffff 	.word	0xfffbffff
 8004d04:	ffff80ff 	.word	0xffff80ff
 8004d08:	ffffc7ff 	.word	0xffffc7ff
 8004d0c:	02dc6c00 	.word	0x02dc6c00
 8004d10:	20000004 	.word	0x20000004
 8004d14:	2000000c 	.word	0x2000000c
 8004d18:	fffffeff 	.word	0xfffffeff
 8004d1c:	00001388 	.word	0x00001388

08004d20 <HAL_RCC_GetSysClockFreq>:
 8004d20:	4b14      	ldr	r3, [pc, #80]	@ (8004d74 <HAL_RCC_GetSysClockFreq+0x54>)
 8004d22:	689b      	ldr	r3, [r3, #8]
 8004d24:	2238      	movs	r2, #56	@ 0x38
 8004d26:	421a      	tst	r2, r3
 8004d28:	d107      	bne.n	8004d3a <HAL_RCC_GetSysClockFreq+0x1a>
 8004d2a:	4b12      	ldr	r3, [pc, #72]	@ (8004d74 <HAL_RCC_GetSysClockFreq+0x54>)
 8004d2c:	681a      	ldr	r2, [r3, #0]
 8004d2e:	0ad2      	lsrs	r2, r2, #11
 8004d30:	2307      	movs	r3, #7
 8004d32:	4013      	ands	r3, r2
 8004d34:	4810      	ldr	r0, [pc, #64]	@ (8004d78 <HAL_RCC_GetSysClockFreq+0x58>)
 8004d36:	40d8      	lsrs	r0, r3
 8004d38:	4770      	bx	lr
 8004d3a:	4b0e      	ldr	r3, [pc, #56]	@ (8004d74 <HAL_RCC_GetSysClockFreq+0x54>)
 8004d3c:	689a      	ldr	r2, [r3, #8]
 8004d3e:	2338      	movs	r3, #56	@ 0x38
 8004d40:	4013      	ands	r3, r2
 8004d42:	2b08      	cmp	r3, #8
 8004d44:	d010      	beq.n	8004d68 <HAL_RCC_GetSysClockFreq+0x48>
 8004d46:	4b0b      	ldr	r3, [pc, #44]	@ (8004d74 <HAL_RCC_GetSysClockFreq+0x54>)
 8004d48:	689a      	ldr	r2, [r3, #8]
 8004d4a:	2338      	movs	r3, #56	@ 0x38
 8004d4c:	4013      	ands	r3, r2
 8004d4e:	2b20      	cmp	r3, #32
 8004d50:	d00c      	beq.n	8004d6c <HAL_RCC_GetSysClockFreq+0x4c>
 8004d52:	4b08      	ldr	r3, [pc, #32]	@ (8004d74 <HAL_RCC_GetSysClockFreq+0x54>)
 8004d54:	689a      	ldr	r2, [r3, #8]
 8004d56:	2338      	movs	r3, #56	@ 0x38
 8004d58:	4013      	ands	r3, r2
 8004d5a:	2b18      	cmp	r3, #24
 8004d5c:	d001      	beq.n	8004d62 <HAL_RCC_GetSysClockFreq+0x42>
 8004d5e:	2000      	movs	r0, #0
 8004d60:	e7ea      	b.n	8004d38 <HAL_RCC_GetSysClockFreq+0x18>
 8004d62:	20fa      	movs	r0, #250	@ 0xfa
 8004d64:	01c0      	lsls	r0, r0, #7
 8004d66:	e7e7      	b.n	8004d38 <HAL_RCC_GetSysClockFreq+0x18>
 8004d68:	4804      	ldr	r0, [pc, #16]	@ (8004d7c <HAL_RCC_GetSysClockFreq+0x5c>)
 8004d6a:	e7e5      	b.n	8004d38 <HAL_RCC_GetSysClockFreq+0x18>
 8004d6c:	2080      	movs	r0, #128	@ 0x80
 8004d6e:	0200      	lsls	r0, r0, #8
 8004d70:	e7e2      	b.n	8004d38 <HAL_RCC_GetSysClockFreq+0x18>
 8004d72:	46c0      	nop			@ (mov r8, r8)
 8004d74:	40021000 	.word	0x40021000
 8004d78:	02dc6c00 	.word	0x02dc6c00
 8004d7c:	007a1200 	.word	0x007a1200

08004d80 <HAL_RCC_ClockConfig>:
 8004d80:	b570      	push	{r4, r5, r6, lr}
 8004d82:	0004      	movs	r4, r0
 8004d84:	000d      	movs	r5, r1
 8004d86:	2800      	cmp	r0, #0
 8004d88:	d100      	bne.n	8004d8c <HAL_RCC_ClockConfig+0xc>
 8004d8a:	e0aa      	b.n	8004ee2 <HAL_RCC_ClockConfig+0x162>
 8004d8c:	4b57      	ldr	r3, [pc, #348]	@ (8004eec <HAL_RCC_ClockConfig+0x16c>)
 8004d8e:	681a      	ldr	r2, [r3, #0]
 8004d90:	2307      	movs	r3, #7
 8004d92:	4013      	ands	r3, r2
 8004d94:	428b      	cmp	r3, r1
 8004d96:	d328      	bcc.n	8004dea <HAL_RCC_ClockConfig+0x6a>
 8004d98:	6823      	ldr	r3, [r4, #0]
 8004d9a:	079a      	lsls	r2, r3, #30
 8004d9c:	d510      	bpl.n	8004dc0 <HAL_RCC_ClockConfig+0x40>
 8004d9e:	075b      	lsls	r3, r3, #29
 8004da0:	d507      	bpl.n	8004db2 <HAL_RCC_ClockConfig+0x32>
 8004da2:	4953      	ldr	r1, [pc, #332]	@ (8004ef0 <HAL_RCC_ClockConfig+0x170>)
 8004da4:	688a      	ldr	r2, [r1, #8]
 8004da6:	4b53      	ldr	r3, [pc, #332]	@ (8004ef4 <HAL_RCC_ClockConfig+0x174>)
 8004da8:	401a      	ands	r2, r3
 8004daa:	23b0      	movs	r3, #176	@ 0xb0
 8004dac:	011b      	lsls	r3, r3, #4
 8004dae:	4313      	orrs	r3, r2
 8004db0:	608b      	str	r3, [r1, #8]
 8004db2:	4a4f      	ldr	r2, [pc, #316]	@ (8004ef0 <HAL_RCC_ClockConfig+0x170>)
 8004db4:	6893      	ldr	r3, [r2, #8]
 8004db6:	4950      	ldr	r1, [pc, #320]	@ (8004ef8 <HAL_RCC_ClockConfig+0x178>)
 8004db8:	400b      	ands	r3, r1
 8004dba:	68e1      	ldr	r1, [r4, #12]
 8004dbc:	430b      	orrs	r3, r1
 8004dbe:	6093      	str	r3, [r2, #8]
 8004dc0:	6823      	ldr	r3, [r4, #0]
 8004dc2:	07db      	lsls	r3, r3, #31
 8004dc4:	d552      	bpl.n	8004e6c <HAL_RCC_ClockConfig+0xec>
 8004dc6:	4a4a      	ldr	r2, [pc, #296]	@ (8004ef0 <HAL_RCC_ClockConfig+0x170>)
 8004dc8:	6813      	ldr	r3, [r2, #0]
 8004dca:	211c      	movs	r1, #28
 8004dcc:	438b      	bics	r3, r1
 8004dce:	68a1      	ldr	r1, [r4, #8]
 8004dd0:	430b      	orrs	r3, r1
 8004dd2:	6013      	str	r3, [r2, #0]
 8004dd4:	6863      	ldr	r3, [r4, #4]
 8004dd6:	2b01      	cmp	r3, #1
 8004dd8:	d01e      	beq.n	8004e18 <HAL_RCC_ClockConfig+0x98>
 8004dda:	2b00      	cmp	r3, #0
 8004ddc:	d138      	bne.n	8004e50 <HAL_RCC_ClockConfig+0xd0>
 8004dde:	4a44      	ldr	r2, [pc, #272]	@ (8004ef0 <HAL_RCC_ClockConfig+0x170>)
 8004de0:	6812      	ldr	r2, [r2, #0]
 8004de2:	0552      	lsls	r2, r2, #21
 8004de4:	d41b      	bmi.n	8004e1e <HAL_RCC_ClockConfig+0x9e>
 8004de6:	2001      	movs	r0, #1
 8004de8:	e063      	b.n	8004eb2 <HAL_RCC_ClockConfig+0x132>
 8004dea:	4a40      	ldr	r2, [pc, #256]	@ (8004eec <HAL_RCC_ClockConfig+0x16c>)
 8004dec:	6813      	ldr	r3, [r2, #0]
 8004dee:	2107      	movs	r1, #7
 8004df0:	438b      	bics	r3, r1
 8004df2:	432b      	orrs	r3, r5
 8004df4:	6013      	str	r3, [r2, #0]
 8004df6:	f7fe ff15 	bl	8003c24 <HAL_GetTick>
 8004dfa:	0006      	movs	r6, r0
 8004dfc:	4b3b      	ldr	r3, [pc, #236]	@ (8004eec <HAL_RCC_ClockConfig+0x16c>)
 8004dfe:	681a      	ldr	r2, [r3, #0]
 8004e00:	2307      	movs	r3, #7
 8004e02:	4013      	ands	r3, r2
 8004e04:	42ab      	cmp	r3, r5
 8004e06:	d0c7      	beq.n	8004d98 <HAL_RCC_ClockConfig+0x18>
 8004e08:	f7fe ff0c 	bl	8003c24 <HAL_GetTick>
 8004e0c:	1b80      	subs	r0, r0, r6
 8004e0e:	4a3b      	ldr	r2, [pc, #236]	@ (8004efc <HAL_RCC_ClockConfig+0x17c>)
 8004e10:	4290      	cmp	r0, r2
 8004e12:	d9f3      	bls.n	8004dfc <HAL_RCC_ClockConfig+0x7c>
 8004e14:	2003      	movs	r0, #3
 8004e16:	e04c      	b.n	8004eb2 <HAL_RCC_ClockConfig+0x132>
 8004e18:	6812      	ldr	r2, [r2, #0]
 8004e1a:	0392      	lsls	r2, r2, #14
 8004e1c:	d563      	bpl.n	8004ee6 <HAL_RCC_ClockConfig+0x166>
 8004e1e:	4934      	ldr	r1, [pc, #208]	@ (8004ef0 <HAL_RCC_ClockConfig+0x170>)
 8004e20:	688a      	ldr	r2, [r1, #8]
 8004e22:	2007      	movs	r0, #7
 8004e24:	4382      	bics	r2, r0
 8004e26:	4313      	orrs	r3, r2
 8004e28:	608b      	str	r3, [r1, #8]
 8004e2a:	f7fe fefb 	bl	8003c24 <HAL_GetTick>
 8004e2e:	0006      	movs	r6, r0
 8004e30:	4b2f      	ldr	r3, [pc, #188]	@ (8004ef0 <HAL_RCC_ClockConfig+0x170>)
 8004e32:	689b      	ldr	r3, [r3, #8]
 8004e34:	2238      	movs	r2, #56	@ 0x38
 8004e36:	401a      	ands	r2, r3
 8004e38:	6863      	ldr	r3, [r4, #4]
 8004e3a:	00db      	lsls	r3, r3, #3
 8004e3c:	429a      	cmp	r2, r3
 8004e3e:	d015      	beq.n	8004e6c <HAL_RCC_ClockConfig+0xec>
 8004e40:	f7fe fef0 	bl	8003c24 <HAL_GetTick>
 8004e44:	1b80      	subs	r0, r0, r6
 8004e46:	4b2d      	ldr	r3, [pc, #180]	@ (8004efc <HAL_RCC_ClockConfig+0x17c>)
 8004e48:	4298      	cmp	r0, r3
 8004e4a:	d9f1      	bls.n	8004e30 <HAL_RCC_ClockConfig+0xb0>
 8004e4c:	2003      	movs	r0, #3
 8004e4e:	e030      	b.n	8004eb2 <HAL_RCC_ClockConfig+0x132>
 8004e50:	2b03      	cmp	r3, #3
 8004e52:	d005      	beq.n	8004e60 <HAL_RCC_ClockConfig+0xe0>
 8004e54:	4a26      	ldr	r2, [pc, #152]	@ (8004ef0 <HAL_RCC_ClockConfig+0x170>)
 8004e56:	6dd2      	ldr	r2, [r2, #92]	@ 0x5c
 8004e58:	0792      	lsls	r2, r2, #30
 8004e5a:	d4e0      	bmi.n	8004e1e <HAL_RCC_ClockConfig+0x9e>
 8004e5c:	2001      	movs	r0, #1
 8004e5e:	e028      	b.n	8004eb2 <HAL_RCC_ClockConfig+0x132>
 8004e60:	4a23      	ldr	r2, [pc, #140]	@ (8004ef0 <HAL_RCC_ClockConfig+0x170>)
 8004e62:	6e12      	ldr	r2, [r2, #96]	@ 0x60
 8004e64:	0792      	lsls	r2, r2, #30
 8004e66:	d4da      	bmi.n	8004e1e <HAL_RCC_ClockConfig+0x9e>
 8004e68:	2001      	movs	r0, #1
 8004e6a:	e022      	b.n	8004eb2 <HAL_RCC_ClockConfig+0x132>
 8004e6c:	4b1f      	ldr	r3, [pc, #124]	@ (8004eec <HAL_RCC_ClockConfig+0x16c>)
 8004e6e:	681a      	ldr	r2, [r3, #0]
 8004e70:	2307      	movs	r3, #7
 8004e72:	4013      	ands	r3, r2
 8004e74:	42ab      	cmp	r3, r5
 8004e76:	d81d      	bhi.n	8004eb4 <HAL_RCC_ClockConfig+0x134>
 8004e78:	6823      	ldr	r3, [r4, #0]
 8004e7a:	075b      	lsls	r3, r3, #29
 8004e7c:	d506      	bpl.n	8004e8c <HAL_RCC_ClockConfig+0x10c>
 8004e7e:	4a1c      	ldr	r2, [pc, #112]	@ (8004ef0 <HAL_RCC_ClockConfig+0x170>)
 8004e80:	6893      	ldr	r3, [r2, #8]
 8004e82:	491f      	ldr	r1, [pc, #124]	@ (8004f00 <HAL_RCC_ClockConfig+0x180>)
 8004e84:	400b      	ands	r3, r1
 8004e86:	6921      	ldr	r1, [r4, #16]
 8004e88:	430b      	orrs	r3, r1
 8004e8a:	6093      	str	r3, [r2, #8]
 8004e8c:	f7ff ff48 	bl	8004d20 <HAL_RCC_GetSysClockFreq>
 8004e90:	4b17      	ldr	r3, [pc, #92]	@ (8004ef0 <HAL_RCC_ClockConfig+0x170>)
 8004e92:	689a      	ldr	r2, [r3, #8]
 8004e94:	0a12      	lsrs	r2, r2, #8
 8004e96:	230f      	movs	r3, #15
 8004e98:	4013      	ands	r3, r2
 8004e9a:	4a1a      	ldr	r2, [pc, #104]	@ (8004f04 <HAL_RCC_ClockConfig+0x184>)
 8004e9c:	009b      	lsls	r3, r3, #2
 8004e9e:	589a      	ldr	r2, [r3, r2]
 8004ea0:	231f      	movs	r3, #31
 8004ea2:	4013      	ands	r3, r2
 8004ea4:	40d8      	lsrs	r0, r3
 8004ea6:	4b18      	ldr	r3, [pc, #96]	@ (8004f08 <HAL_RCC_ClockConfig+0x188>)
 8004ea8:	6018      	str	r0, [r3, #0]
 8004eaa:	4b18      	ldr	r3, [pc, #96]	@ (8004f0c <HAL_RCC_ClockConfig+0x18c>)
 8004eac:	6818      	ldr	r0, [r3, #0]
 8004eae:	f7fe fe75 	bl	8003b9c <HAL_InitTick>
 8004eb2:	bd70      	pop	{r4, r5, r6, pc}
 8004eb4:	4a0d      	ldr	r2, [pc, #52]	@ (8004eec <HAL_RCC_ClockConfig+0x16c>)
 8004eb6:	6813      	ldr	r3, [r2, #0]
 8004eb8:	2107      	movs	r1, #7
 8004eba:	438b      	bics	r3, r1
 8004ebc:	432b      	orrs	r3, r5
 8004ebe:	6013      	str	r3, [r2, #0]
 8004ec0:	f7fe feb0 	bl	8003c24 <HAL_GetTick>
 8004ec4:	0006      	movs	r6, r0
 8004ec6:	4b09      	ldr	r3, [pc, #36]	@ (8004eec <HAL_RCC_ClockConfig+0x16c>)
 8004ec8:	681a      	ldr	r2, [r3, #0]
 8004eca:	2307      	movs	r3, #7
 8004ecc:	4013      	ands	r3, r2
 8004ece:	42ab      	cmp	r3, r5
 8004ed0:	d0d2      	beq.n	8004e78 <HAL_RCC_ClockConfig+0xf8>
 8004ed2:	f7fe fea7 	bl	8003c24 <HAL_GetTick>
 8004ed6:	1b80      	subs	r0, r0, r6
 8004ed8:	4b08      	ldr	r3, [pc, #32]	@ (8004efc <HAL_RCC_ClockConfig+0x17c>)
 8004eda:	4298      	cmp	r0, r3
 8004edc:	d9f3      	bls.n	8004ec6 <HAL_RCC_ClockConfig+0x146>
 8004ede:	2003      	movs	r0, #3
 8004ee0:	e7e7      	b.n	8004eb2 <HAL_RCC_ClockConfig+0x132>
 8004ee2:	2001      	movs	r0, #1
 8004ee4:	e7e5      	b.n	8004eb2 <HAL_RCC_ClockConfig+0x132>
 8004ee6:	2001      	movs	r0, #1
 8004ee8:	e7e3      	b.n	8004eb2 <HAL_RCC_ClockConfig+0x132>
 8004eea:	46c0      	nop			@ (mov r8, r8)
 8004eec:	40022000 	.word	0x40022000
 8004ef0:	40021000 	.word	0x40021000
 8004ef4:	ffff84ff 	.word	0xffff84ff
 8004ef8:	fffff0ff 	.word	0xfffff0ff
 8004efc:	00001388 	.word	0x00001388
 8004f00:	ffff8fff 	.word	0xffff8fff
 8004f04:	08006260 	.word	0x08006260
 8004f08:	20000004 	.word	0x20000004
 8004f0c:	2000000c 	.word	0x2000000c

08004f10 <HAL_RCCEx_PeriphCLKConfig>:
 8004f10:	b570      	push	{r4, r5, r6, lr}
 8004f12:	b082      	sub	sp, #8
 8004f14:	0004      	movs	r4, r0
 8004f16:	6803      	ldr	r3, [r0, #0]
 8004f18:	039b      	lsls	r3, r3, #14
 8004f1a:	d54e      	bpl.n	8004fba <HAL_RCCEx_PeriphCLKConfig+0xaa>
 8004f1c:	4b42      	ldr	r3, [pc, #264]	@ (8005028 <HAL_RCCEx_PeriphCLKConfig+0x118>)
 8004f1e:	6bdb      	ldr	r3, [r3, #60]	@ 0x3c
 8004f20:	00db      	lsls	r3, r3, #3
 8004f22:	d435      	bmi.n	8004f90 <HAL_RCCEx_PeriphCLKConfig+0x80>
 8004f24:	4b40      	ldr	r3, [pc, #256]	@ (8005028 <HAL_RCCEx_PeriphCLKConfig+0x118>)
 8004f26:	6bda      	ldr	r2, [r3, #60]	@ 0x3c
 8004f28:	2180      	movs	r1, #128	@ 0x80
 8004f2a:	0549      	lsls	r1, r1, #21
 8004f2c:	430a      	orrs	r2, r1
 8004f2e:	63da      	str	r2, [r3, #60]	@ 0x3c
 8004f30:	6bdb      	ldr	r3, [r3, #60]	@ 0x3c
 8004f32:	400b      	ands	r3, r1
 8004f34:	9301      	str	r3, [sp, #4]
 8004f36:	9b01      	ldr	r3, [sp, #4]
 8004f38:	2501      	movs	r5, #1
 8004f3a:	4b3b      	ldr	r3, [pc, #236]	@ (8005028 <HAL_RCCEx_PeriphCLKConfig+0x118>)
 8004f3c:	6dd9      	ldr	r1, [r3, #92]	@ 0x5c
 8004f3e:	22c0      	movs	r2, #192	@ 0xc0
 8004f40:	0092      	lsls	r2, r2, #2
 8004f42:	000b      	movs	r3, r1
 8004f44:	4013      	ands	r3, r2
 8004f46:	4211      	tst	r1, r2
 8004f48:	d010      	beq.n	8004f6c <HAL_RCCEx_PeriphCLKConfig+0x5c>
 8004f4a:	69a2      	ldr	r2, [r4, #24]
 8004f4c:	429a      	cmp	r2, r3
 8004f4e:	d00d      	beq.n	8004f6c <HAL_RCCEx_PeriphCLKConfig+0x5c>
 8004f50:	4a35      	ldr	r2, [pc, #212]	@ (8005028 <HAL_RCCEx_PeriphCLKConfig+0x118>)
 8004f52:	6dd3      	ldr	r3, [r2, #92]	@ 0x5c
 8004f54:	4935      	ldr	r1, [pc, #212]	@ (800502c <HAL_RCCEx_PeriphCLKConfig+0x11c>)
 8004f56:	400b      	ands	r3, r1
 8004f58:	6dd0      	ldr	r0, [r2, #92]	@ 0x5c
 8004f5a:	2180      	movs	r1, #128	@ 0x80
 8004f5c:	0249      	lsls	r1, r1, #9
 8004f5e:	4301      	orrs	r1, r0
 8004f60:	65d1      	str	r1, [r2, #92]	@ 0x5c
 8004f62:	6dd1      	ldr	r1, [r2, #92]	@ 0x5c
 8004f64:	4832      	ldr	r0, [pc, #200]	@ (8005030 <HAL_RCCEx_PeriphCLKConfig+0x120>)
 8004f66:	4001      	ands	r1, r0
 8004f68:	65d1      	str	r1, [r2, #92]	@ 0x5c
 8004f6a:	65d3      	str	r3, [r2, #92]	@ 0x5c
 8004f6c:	07db      	lsls	r3, r3, #31
 8004f6e:	d411      	bmi.n	8004f94 <HAL_RCCEx_PeriphCLKConfig+0x84>
 8004f70:	4a2d      	ldr	r2, [pc, #180]	@ (8005028 <HAL_RCCEx_PeriphCLKConfig+0x118>)
 8004f72:	6dd3      	ldr	r3, [r2, #92]	@ 0x5c
 8004f74:	492d      	ldr	r1, [pc, #180]	@ (800502c <HAL_RCCEx_PeriphCLKConfig+0x11c>)
 8004f76:	400b      	ands	r3, r1
 8004f78:	69a1      	ldr	r1, [r4, #24]
 8004f7a:	430b      	orrs	r3, r1
 8004f7c:	65d3      	str	r3, [r2, #92]	@ 0x5c
 8004f7e:	2000      	movs	r0, #0
 8004f80:	2d01      	cmp	r5, #1
 8004f82:	d11b      	bne.n	8004fbc <HAL_RCCEx_PeriphCLKConfig+0xac>
 8004f84:	4a28      	ldr	r2, [pc, #160]	@ (8005028 <HAL_RCCEx_PeriphCLKConfig+0x118>)
 8004f86:	6bd3      	ldr	r3, [r2, #60]	@ 0x3c
 8004f88:	492a      	ldr	r1, [pc, #168]	@ (8005034 <HAL_RCCEx_PeriphCLKConfig+0x124>)
 8004f8a:	400b      	ands	r3, r1
 8004f8c:	63d3      	str	r3, [r2, #60]	@ 0x3c
 8004f8e:	e015      	b.n	8004fbc <HAL_RCCEx_PeriphCLKConfig+0xac>
 8004f90:	2500      	movs	r5, #0
 8004f92:	e7d2      	b.n	8004f3a <HAL_RCCEx_PeriphCLKConfig+0x2a>
 8004f94:	f7fe fe46 	bl	8003c24 <HAL_GetTick>
 8004f98:	0006      	movs	r6, r0
 8004f9a:	4b23      	ldr	r3, [pc, #140]	@ (8005028 <HAL_RCCEx_PeriphCLKConfig+0x118>)
 8004f9c:	6ddb      	ldr	r3, [r3, #92]	@ 0x5c
 8004f9e:	079b      	lsls	r3, r3, #30
 8004fa0:	d407      	bmi.n	8004fb2 <HAL_RCCEx_PeriphCLKConfig+0xa2>
 8004fa2:	f7fe fe3f 	bl	8003c24 <HAL_GetTick>
 8004fa6:	1b80      	subs	r0, r0, r6
 8004fa8:	4b23      	ldr	r3, [pc, #140]	@ (8005038 <HAL_RCCEx_PeriphCLKConfig+0x128>)
 8004faa:	4298      	cmp	r0, r3
 8004fac:	d9f5      	bls.n	8004f9a <HAL_RCCEx_PeriphCLKConfig+0x8a>
 8004fae:	2003      	movs	r0, #3
 8004fb0:	e000      	b.n	8004fb4 <HAL_RCCEx_PeriphCLKConfig+0xa4>
 8004fb2:	2000      	movs	r0, #0
 8004fb4:	2800      	cmp	r0, #0
 8004fb6:	d1e3      	bne.n	8004f80 <HAL_RCCEx_PeriphCLKConfig+0x70>
 8004fb8:	e7da      	b.n	8004f70 <HAL_RCCEx_PeriphCLKConfig+0x60>
 8004fba:	2000      	movs	r0, #0
 8004fbc:	6823      	ldr	r3, [r4, #0]
 8004fbe:	07db      	lsls	r3, r3, #31
 8004fc0:	d506      	bpl.n	8004fd0 <HAL_RCCEx_PeriphCLKConfig+0xc0>
 8004fc2:	4a19      	ldr	r2, [pc, #100]	@ (8005028 <HAL_RCCEx_PeriphCLKConfig+0x118>)
 8004fc4:	6d53      	ldr	r3, [r2, #84]	@ 0x54
 8004fc6:	2103      	movs	r1, #3
 8004fc8:	438b      	bics	r3, r1
 8004fca:	68a1      	ldr	r1, [r4, #8]
 8004fcc:	430b      	orrs	r3, r1
 8004fce:	6553      	str	r3, [r2, #84]	@ 0x54
 8004fd0:	6823      	ldr	r3, [r4, #0]
 8004fd2:	065b      	lsls	r3, r3, #25
 8004fd4:	d506      	bpl.n	8004fe4 <HAL_RCCEx_PeriphCLKConfig+0xd4>
 8004fd6:	4a14      	ldr	r2, [pc, #80]	@ (8005028 <HAL_RCCEx_PeriphCLKConfig+0x118>)
 8004fd8:	6d53      	ldr	r3, [r2, #84]	@ 0x54
 8004fda:	4918      	ldr	r1, [pc, #96]	@ (800503c <HAL_RCCEx_PeriphCLKConfig+0x12c>)
 8004fdc:	400b      	ands	r3, r1
 8004fde:	68e1      	ldr	r1, [r4, #12]
 8004fe0:	430b      	orrs	r3, r1
 8004fe2:	6553      	str	r3, [r2, #84]	@ 0x54
 8004fe4:	6823      	ldr	r3, [r4, #0]
 8004fe6:	045b      	lsls	r3, r3, #17
 8004fe8:	d506      	bpl.n	8004ff8 <HAL_RCCEx_PeriphCLKConfig+0xe8>
 8004fea:	4a0f      	ldr	r2, [pc, #60]	@ (8005028 <HAL_RCCEx_PeriphCLKConfig+0x118>)
 8004fec:	6d53      	ldr	r3, [r2, #84]	@ 0x54
 8004fee:	009b      	lsls	r3, r3, #2
 8004ff0:	089b      	lsrs	r3, r3, #2
 8004ff2:	6961      	ldr	r1, [r4, #20]
 8004ff4:	430b      	orrs	r3, r1
 8004ff6:	6553      	str	r3, [r2, #84]	@ 0x54
 8004ff8:	6823      	ldr	r3, [r4, #0]
 8004ffa:	051b      	lsls	r3, r3, #20
 8004ffc:	d506      	bpl.n	800500c <HAL_RCCEx_PeriphCLKConfig+0xfc>
 8004ffe:	4a0a      	ldr	r2, [pc, #40]	@ (8005028 <HAL_RCCEx_PeriphCLKConfig+0x118>)
 8005000:	6d53      	ldr	r3, [r2, #84]	@ 0x54
 8005002:	490f      	ldr	r1, [pc, #60]	@ (8005040 <HAL_RCCEx_PeriphCLKConfig+0x130>)
 8005004:	400b      	ands	r3, r1
 8005006:	6921      	ldr	r1, [r4, #16]
 8005008:	430b      	orrs	r3, r1
 800500a:	6553      	str	r3, [r2, #84]	@ 0x54
 800500c:	6823      	ldr	r3, [r4, #0]
 800500e:	2b00      	cmp	r3, #0
 8005010:	db01      	blt.n	8005016 <HAL_RCCEx_PeriphCLKConfig+0x106>
 8005012:	b002      	add	sp, #8
 8005014:	bd70      	pop	{r4, r5, r6, pc}
 8005016:	4a04      	ldr	r2, [pc, #16]	@ (8005028 <HAL_RCCEx_PeriphCLKConfig+0x118>)
 8005018:	6813      	ldr	r3, [r2, #0]
 800501a:	21e0      	movs	r1, #224	@ 0xe0
 800501c:	438b      	bics	r3, r1
 800501e:	6861      	ldr	r1, [r4, #4]
 8005020:	430b      	orrs	r3, r1
 8005022:	6013      	str	r3, [r2, #0]
 8005024:	e7f5      	b.n	8005012 <HAL_RCCEx_PeriphCLKConfig+0x102>
 8005026:	46c0      	nop			@ (mov r8, r8)
 8005028:	40021000 	.word	0x40021000
 800502c:	fffffcff 	.word	0xfffffcff
 8005030:	fffeffff 	.word	0xfffeffff
 8005034:	efffffff 	.word	0xefffffff
 8005038:	00001388 	.word	0x00001388
 800503c:	ffffcfff 	.word	0xffffcfff
 8005040:	ffff3fff 	.word	0xffff3fff

08005044 <TIM_OC1_SetConfig>:
 8005044:	b530      	push	{r4, r5, lr}
 8005046:	6a05      	ldr	r5, [r0, #32]
 8005048:	6a03      	ldr	r3, [r0, #32]
 800504a:	2201      	movs	r2, #1
 800504c:	4393      	bics	r3, r2
 800504e:	6203      	str	r3, [r0, #32]
 8005050:	6842      	ldr	r2, [r0, #4]
 8005052:	6983      	ldr	r3, [r0, #24]
 8005054:	4c16      	ldr	r4, [pc, #88]	@ (80050b0 <TIM_OC1_SetConfig+0x6c>)
 8005056:	4023      	ands	r3, r4
 8005058:	680c      	ldr	r4, [r1, #0]
 800505a:	431c      	orrs	r4, r3
 800505c:	2302      	movs	r3, #2
 800505e:	439d      	bics	r5, r3
 8005060:	688b      	ldr	r3, [r1, #8]
 8005062:	432b      	orrs	r3, r5
 8005064:	4d13      	ldr	r5, [pc, #76]	@ (80050b4 <TIM_OC1_SetConfig+0x70>)
 8005066:	42a8      	cmp	r0, r5
 8005068:	d005      	beq.n	8005076 <TIM_OC1_SetConfig+0x32>
 800506a:	4d13      	ldr	r5, [pc, #76]	@ (80050b8 <TIM_OC1_SetConfig+0x74>)
 800506c:	42a8      	cmp	r0, r5
 800506e:	d002      	beq.n	8005076 <TIM_OC1_SetConfig+0x32>
 8005070:	4d12      	ldr	r5, [pc, #72]	@ (80050bc <TIM_OC1_SetConfig+0x78>)
 8005072:	42a8      	cmp	r0, r5
 8005074:	d106      	bne.n	8005084 <TIM_OC1_SetConfig+0x40>
 8005076:	2508      	movs	r5, #8
 8005078:	43ab      	bics	r3, r5
 800507a:	001d      	movs	r5, r3
 800507c:	68cb      	ldr	r3, [r1, #12]
 800507e:	432b      	orrs	r3, r5
 8005080:	2504      	movs	r5, #4
 8005082:	43ab      	bics	r3, r5
 8005084:	4d0b      	ldr	r5, [pc, #44]	@ (80050b4 <TIM_OC1_SetConfig+0x70>)
 8005086:	42a8      	cmp	r0, r5
 8005088:	d005      	beq.n	8005096 <TIM_OC1_SetConfig+0x52>
 800508a:	4d0b      	ldr	r5, [pc, #44]	@ (80050b8 <TIM_OC1_SetConfig+0x74>)
 800508c:	42a8      	cmp	r0, r5
 800508e:	d002      	beq.n	8005096 <TIM_OC1_SetConfig+0x52>
 8005090:	4d0a      	ldr	r5, [pc, #40]	@ (80050bc <TIM_OC1_SetConfig+0x78>)
 8005092:	42a8      	cmp	r0, r5
 8005094:	d105      	bne.n	80050a2 <TIM_OC1_SetConfig+0x5e>
 8005096:	4d0a      	ldr	r5, [pc, #40]	@ (80050c0 <TIM_OC1_SetConfig+0x7c>)
 8005098:	402a      	ands	r2, r5
 800509a:	694d      	ldr	r5, [r1, #20]
 800509c:	4315      	orrs	r5, r2
 800509e:	698a      	ldr	r2, [r1, #24]
 80050a0:	432a      	orrs	r2, r5
 80050a2:	6042      	str	r2, [r0, #4]
 80050a4:	6184      	str	r4, [r0, #24]
 80050a6:	684a      	ldr	r2, [r1, #4]
 80050a8:	6342      	str	r2, [r0, #52]	@ 0x34
 80050aa:	6203      	str	r3, [r0, #32]
 80050ac:	bd30      	pop	{r4, r5, pc}
 80050ae:	46c0      	nop			@ (mov r8, r8)
 80050b0:	fffeff8c 	.word	0xfffeff8c
 80050b4:	40012c00 	.word	0x40012c00
 80050b8:	40014400 	.word	0x40014400
 80050bc:	40014800 	.word	0x40014800
 80050c0:	fffffcff 	.word	0xfffffcff

080050c4 <TIM_OC3_SetConfig>:
 80050c4:	b530      	push	{r4, r5, lr}
 80050c6:	6a04      	ldr	r4, [r0, #32]
 80050c8:	6a03      	ldr	r3, [r0, #32]
 80050ca:	4a16      	ldr	r2, [pc, #88]	@ (8005124 <TIM_OC3_SetConfig+0x60>)
 80050cc:	4013      	ands	r3, r2
 80050ce:	6203      	str	r3, [r0, #32]
 80050d0:	6842      	ldr	r2, [r0, #4]
 80050d2:	69c3      	ldr	r3, [r0, #28]
 80050d4:	4d14      	ldr	r5, [pc, #80]	@ (8005128 <TIM_OC3_SetConfig+0x64>)
 80050d6:	402b      	ands	r3, r5
 80050d8:	680d      	ldr	r5, [r1, #0]
 80050da:	431d      	orrs	r5, r3
 80050dc:	4b13      	ldr	r3, [pc, #76]	@ (800512c <TIM_OC3_SetConfig+0x68>)
 80050de:	401c      	ands	r4, r3
 80050e0:	688b      	ldr	r3, [r1, #8]
 80050e2:	021b      	lsls	r3, r3, #8
 80050e4:	4323      	orrs	r3, r4
 80050e6:	4c12      	ldr	r4, [pc, #72]	@ (8005130 <TIM_OC3_SetConfig+0x6c>)
 80050e8:	42a0      	cmp	r0, r4
 80050ea:	d006      	beq.n	80050fa <TIM_OC3_SetConfig+0x36>
 80050ec:	4c11      	ldr	r4, [pc, #68]	@ (8005134 <TIM_OC3_SetConfig+0x70>)
 80050ee:	42a0      	cmp	r0, r4
 80050f0:	d00a      	beq.n	8005108 <TIM_OC3_SetConfig+0x44>
 80050f2:	4c11      	ldr	r4, [pc, #68]	@ (8005138 <TIM_OC3_SetConfig+0x74>)
 80050f4:	42a0      	cmp	r0, r4
 80050f6:	d10f      	bne.n	8005118 <TIM_OC3_SetConfig+0x54>
 80050f8:	e006      	b.n	8005108 <TIM_OC3_SetConfig+0x44>
 80050fa:	4c10      	ldr	r4, [pc, #64]	@ (800513c <TIM_OC3_SetConfig+0x78>)
 80050fc:	401c      	ands	r4, r3
 80050fe:	68cb      	ldr	r3, [r1, #12]
 8005100:	021b      	lsls	r3, r3, #8
 8005102:	4323      	orrs	r3, r4
 8005104:	4c0e      	ldr	r4, [pc, #56]	@ (8005140 <TIM_OC3_SetConfig+0x7c>)
 8005106:	4023      	ands	r3, r4
 8005108:	4c0e      	ldr	r4, [pc, #56]	@ (8005144 <TIM_OC3_SetConfig+0x80>)
 800510a:	4022      	ands	r2, r4
 800510c:	694c      	ldr	r4, [r1, #20]
 800510e:	0124      	lsls	r4, r4, #4
 8005110:	4314      	orrs	r4, r2
 8005112:	698a      	ldr	r2, [r1, #24]
 8005114:	0112      	lsls	r2, r2, #4
 8005116:	4322      	orrs	r2, r4
 8005118:	6042      	str	r2, [r0, #4]
 800511a:	61c5      	str	r5, [r0, #28]
 800511c:	684a      	ldr	r2, [r1, #4]
 800511e:	63c2      	str	r2, [r0, #60]	@ 0x3c
 8005120:	6203      	str	r3, [r0, #32]
 8005122:	bd30      	pop	{r4, r5, pc}
 8005124:	fffffeff 	.word	0xfffffeff
 8005128:	fffeff8c 	.word	0xfffeff8c
 800512c:	fffffdff 	.word	0xfffffdff
 8005130:	40012c00 	.word	0x40012c00
 8005134:	40014400 	.word	0x40014400
 8005138:	40014800 	.word	0x40014800
 800513c:	fffff7ff 	.word	0xfffff7ff
 8005140:	fffffbff 	.word	0xfffffbff
 8005144:	ffffcfff 	.word	0xffffcfff

08005148 <TIM_OC4_SetConfig>:
 8005148:	b530      	push	{r4, r5, lr}
 800514a:	6a04      	ldr	r4, [r0, #32]
 800514c:	6a03      	ldr	r3, [r0, #32]
 800514e:	4a11      	ldr	r2, [pc, #68]	@ (8005194 <TIM_OC4_SetConfig+0x4c>)
 8005150:	4013      	ands	r3, r2
 8005152:	6203      	str	r3, [r0, #32]
 8005154:	6845      	ldr	r5, [r0, #4]
 8005156:	69c3      	ldr	r3, [r0, #28]
 8005158:	4a0f      	ldr	r2, [pc, #60]	@ (8005198 <TIM_OC4_SetConfig+0x50>)
 800515a:	4013      	ands	r3, r2
 800515c:	680a      	ldr	r2, [r1, #0]
 800515e:	0212      	lsls	r2, r2, #8
 8005160:	431a      	orrs	r2, r3
 8005162:	4b0e      	ldr	r3, [pc, #56]	@ (800519c <TIM_OC4_SetConfig+0x54>)
 8005164:	401c      	ands	r4, r3
 8005166:	688b      	ldr	r3, [r1, #8]
 8005168:	031b      	lsls	r3, r3, #12
 800516a:	4323      	orrs	r3, r4
 800516c:	4c0c      	ldr	r4, [pc, #48]	@ (80051a0 <TIM_OC4_SetConfig+0x58>)
 800516e:	42a0      	cmp	r0, r4
 8005170:	d005      	beq.n	800517e <TIM_OC4_SetConfig+0x36>
 8005172:	4c0c      	ldr	r4, [pc, #48]	@ (80051a4 <TIM_OC4_SetConfig+0x5c>)
 8005174:	42a0      	cmp	r0, r4
 8005176:	d002      	beq.n	800517e <TIM_OC4_SetConfig+0x36>
 8005178:	4c0b      	ldr	r4, [pc, #44]	@ (80051a8 <TIM_OC4_SetConfig+0x60>)
 800517a:	42a0      	cmp	r0, r4
 800517c:	d104      	bne.n	8005188 <TIM_OC4_SetConfig+0x40>
 800517e:	4c0b      	ldr	r4, [pc, #44]	@ (80051ac <TIM_OC4_SetConfig+0x64>)
 8005180:	402c      	ands	r4, r5
 8005182:	694d      	ldr	r5, [r1, #20]
 8005184:	01ad      	lsls	r5, r5, #6
 8005186:	4325      	orrs	r5, r4
 8005188:	6045      	str	r5, [r0, #4]
 800518a:	61c2      	str	r2, [r0, #28]
 800518c:	684a      	ldr	r2, [r1, #4]
 800518e:	6402      	str	r2, [r0, #64]	@ 0x40
 8005190:	6203      	str	r3, [r0, #32]
 8005192:	bd30      	pop	{r4, r5, pc}
 8005194:	ffffefff 	.word	0xffffefff
 8005198:	feff8cff 	.word	0xfeff8cff
 800519c:	ffffdfff 	.word	0xffffdfff
 80051a0:	40012c00 	.word	0x40012c00
 80051a4:	40014400 	.word	0x40014400
 80051a8:	40014800 	.word	0x40014800
 80051ac:	ffffbfff 	.word	0xffffbfff

080051b0 <TIM_OC5_SetConfig>:
 80051b0:	b530      	push	{r4, r5, lr}
 80051b2:	6a04      	ldr	r4, [r0, #32]
 80051b4:	6a03      	ldr	r3, [r0, #32]
 80051b6:	4a11      	ldr	r2, [pc, #68]	@ (80051fc <TIM_OC5_SetConfig+0x4c>)
 80051b8:	4013      	ands	r3, r2
 80051ba:	6203      	str	r3, [r0, #32]
 80051bc:	6842      	ldr	r2, [r0, #4]
 80051be:	6d43      	ldr	r3, [r0, #84]	@ 0x54
 80051c0:	4d0f      	ldr	r5, [pc, #60]	@ (8005200 <TIM_OC5_SetConfig+0x50>)
 80051c2:	402b      	ands	r3, r5
 80051c4:	680d      	ldr	r5, [r1, #0]
 80051c6:	431d      	orrs	r5, r3
 80051c8:	4b0e      	ldr	r3, [pc, #56]	@ (8005204 <TIM_OC5_SetConfig+0x54>)
 80051ca:	401c      	ands	r4, r3
 80051cc:	688b      	ldr	r3, [r1, #8]
 80051ce:	041b      	lsls	r3, r3, #16
 80051d0:	4323      	orrs	r3, r4
 80051d2:	4c0d      	ldr	r4, [pc, #52]	@ (8005208 <TIM_OC5_SetConfig+0x58>)
 80051d4:	42a0      	cmp	r0, r4
 80051d6:	d005      	beq.n	80051e4 <TIM_OC5_SetConfig+0x34>
 80051d8:	4c0c      	ldr	r4, [pc, #48]	@ (800520c <TIM_OC5_SetConfig+0x5c>)
 80051da:	42a0      	cmp	r0, r4
 80051dc:	d002      	beq.n	80051e4 <TIM_OC5_SetConfig+0x34>
 80051de:	4c0c      	ldr	r4, [pc, #48]	@ (8005210 <TIM_OC5_SetConfig+0x60>)
 80051e0:	42a0      	cmp	r0, r4
 80051e2:	d104      	bne.n	80051ee <TIM_OC5_SetConfig+0x3e>
 80051e4:	4c05      	ldr	r4, [pc, #20]	@ (80051fc <TIM_OC5_SetConfig+0x4c>)
 80051e6:	4014      	ands	r4, r2
 80051e8:	694a      	ldr	r2, [r1, #20]
 80051ea:	0212      	lsls	r2, r2, #8
 80051ec:	4322      	orrs	r2, r4
 80051ee:	6042      	str	r2, [r0, #4]
 80051f0:	6545      	str	r5, [r0, #84]	@ 0x54
 80051f2:	684a      	ldr	r2, [r1, #4]
 80051f4:	6582      	str	r2, [r0, #88]	@ 0x58
 80051f6:	6203      	str	r3, [r0, #32]
 80051f8:	bd30      	pop	{r4, r5, pc}
 80051fa:	46c0      	nop			@ (mov r8, r8)
 80051fc:	fffeffff 	.word	0xfffeffff
 8005200:	fffeff8f 	.word	0xfffeff8f
 8005204:	fffdffff 	.word	0xfffdffff
 8005208:	40012c00 	.word	0x40012c00
 800520c:	40014400 	.word	0x40014400
 8005210:	40014800 	.word	0x40014800

08005214 <TIM_OC6_SetConfig>:
 8005214:	b530      	push	{r4, r5, lr}
 8005216:	6a04      	ldr	r4, [r0, #32]
 8005218:	6a03      	ldr	r3, [r0, #32]
 800521a:	4a11      	ldr	r2, [pc, #68]	@ (8005260 <TIM_OC6_SetConfig+0x4c>)
 800521c:	4013      	ands	r3, r2
 800521e:	6203      	str	r3, [r0, #32]
 8005220:	6845      	ldr	r5, [r0, #4]
 8005222:	6d43      	ldr	r3, [r0, #84]	@ 0x54
 8005224:	4a0f      	ldr	r2, [pc, #60]	@ (8005264 <TIM_OC6_SetConfig+0x50>)
 8005226:	4013      	ands	r3, r2
 8005228:	680a      	ldr	r2, [r1, #0]
 800522a:	0212      	lsls	r2, r2, #8
 800522c:	431a      	orrs	r2, r3
 800522e:	4b0e      	ldr	r3, [pc, #56]	@ (8005268 <TIM_OC6_SetConfig+0x54>)
 8005230:	401c      	ands	r4, r3
 8005232:	688b      	ldr	r3, [r1, #8]
 8005234:	051b      	lsls	r3, r3, #20
 8005236:	4323      	orrs	r3, r4
 8005238:	4c0c      	ldr	r4, [pc, #48]	@ (800526c <TIM_OC6_SetConfig+0x58>)
 800523a:	42a0      	cmp	r0, r4
 800523c:	d005      	beq.n	800524a <TIM_OC6_SetConfig+0x36>
 800523e:	4c0c      	ldr	r4, [pc, #48]	@ (8005270 <TIM_OC6_SetConfig+0x5c>)
 8005240:	42a0      	cmp	r0, r4
 8005242:	d002      	beq.n	800524a <TIM_OC6_SetConfig+0x36>
 8005244:	4c0b      	ldr	r4, [pc, #44]	@ (8005274 <TIM_OC6_SetConfig+0x60>)
 8005246:	42a0      	cmp	r0, r4
 8005248:	d104      	bne.n	8005254 <TIM_OC6_SetConfig+0x40>
 800524a:	4c0b      	ldr	r4, [pc, #44]	@ (8005278 <TIM_OC6_SetConfig+0x64>)
 800524c:	402c      	ands	r4, r5
 800524e:	694d      	ldr	r5, [r1, #20]
 8005250:	02ad      	lsls	r5, r5, #10
 8005252:	4325      	orrs	r5, r4
 8005254:	6045      	str	r5, [r0, #4]
 8005256:	6542      	str	r2, [r0, #84]	@ 0x54
 8005258:	684a      	ldr	r2, [r1, #4]
 800525a:	65c2      	str	r2, [r0, #92]	@ 0x5c
 800525c:	6203      	str	r3, [r0, #32]
 800525e:	bd30      	pop	{r4, r5, pc}
 8005260:	ffefffff 	.word	0xffefffff
 8005264:	feff8fff 	.word	0xfeff8fff
 8005268:	ffdfffff 	.word	0xffdfffff
 800526c:	40012c00 	.word	0x40012c00
 8005270:	40014400 	.word	0x40014400
 8005274:	40014800 	.word	0x40014800
 8005278:	fffbffff 	.word	0xfffbffff

0800527c <TIM_TI1_ConfigInputStage>:
 800527c:	b530      	push	{r4, r5, lr}
 800527e:	6a03      	ldr	r3, [r0, #32]
 8005280:	6a04      	ldr	r4, [r0, #32]
 8005282:	2501      	movs	r5, #1
 8005284:	43ac      	bics	r4, r5
 8005286:	6204      	str	r4, [r0, #32]
 8005288:	6984      	ldr	r4, [r0, #24]
 800528a:	35ef      	adds	r5, #239	@ 0xef
 800528c:	43ac      	bics	r4, r5
 800528e:	0112      	lsls	r2, r2, #4
 8005290:	4322      	orrs	r2, r4
 8005292:	240a      	movs	r4, #10
 8005294:	43a3      	bics	r3, r4
 8005296:	430b      	orrs	r3, r1
 8005298:	6182      	str	r2, [r0, #24]
 800529a:	6203      	str	r3, [r0, #32]
 800529c:	bd30      	pop	{r4, r5, pc}
	...

080052a0 <TIM_TI2_ConfigInputStage>:
 80052a0:	b530      	push	{r4, r5, lr}
 80052a2:	6a03      	ldr	r3, [r0, #32]
 80052a4:	6a04      	ldr	r4, [r0, #32]
 80052a6:	2510      	movs	r5, #16
 80052a8:	43ac      	bics	r4, r5
 80052aa:	6204      	str	r4, [r0, #32]
 80052ac:	6984      	ldr	r4, [r0, #24]
 80052ae:	4d05      	ldr	r5, [pc, #20]	@ (80052c4 <TIM_TI2_ConfigInputStage+0x24>)
 80052b0:	402c      	ands	r4, r5
 80052b2:	0312      	lsls	r2, r2, #12
 80052b4:	4322      	orrs	r2, r4
 80052b6:	24a0      	movs	r4, #160	@ 0xa0
 80052b8:	43a3      	bics	r3, r4
 80052ba:	0109      	lsls	r1, r1, #4
 80052bc:	4319      	orrs	r1, r3
 80052be:	6182      	str	r2, [r0, #24]
 80052c0:	6201      	str	r1, [r0, #32]
 80052c2:	bd30      	pop	{r4, r5, pc}
 80052c4:	ffff0fff 	.word	0xffff0fff

080052c8 <TIM_ITRx_SetConfig>:
 80052c8:	6883      	ldr	r3, [r0, #8]
 80052ca:	4a03      	ldr	r2, [pc, #12]	@ (80052d8 <TIM_ITRx_SetConfig+0x10>)
 80052cc:	4013      	ands	r3, r2
 80052ce:	430b      	orrs	r3, r1
 80052d0:	2207      	movs	r2, #7
 80052d2:	4313      	orrs	r3, r2
 80052d4:	6083      	str	r3, [r0, #8]
 80052d6:	4770      	bx	lr
 80052d8:	ffcfff8f 	.word	0xffcfff8f

080052dc <HAL_TIM_Base_Start_IT>:
 80052dc:	233d      	movs	r3, #61	@ 0x3d
 80052de:	5cc3      	ldrb	r3, [r0, r3]
 80052e0:	2b01      	cmp	r3, #1
 80052e2:	d122      	bne.n	800532a <HAL_TIM_Base_Start_IT+0x4e>
 80052e4:	333c      	adds	r3, #60	@ 0x3c
 80052e6:	2202      	movs	r2, #2
 80052e8:	54c2      	strb	r2, [r0, r3]
 80052ea:	6802      	ldr	r2, [r0, #0]
 80052ec:	68d3      	ldr	r3, [r2, #12]
 80052ee:	2101      	movs	r1, #1
 80052f0:	430b      	orrs	r3, r1
 80052f2:	60d3      	str	r3, [r2, #12]
 80052f4:	6803      	ldr	r3, [r0, #0]
 80052f6:	4a10      	ldr	r2, [pc, #64]	@ (8005338 <HAL_TIM_Base_Start_IT+0x5c>)
 80052f8:	4293      	cmp	r3, r2
 80052fa:	d008      	beq.n	800530e <HAL_TIM_Base_Start_IT+0x32>
 80052fc:	4a0f      	ldr	r2, [pc, #60]	@ (800533c <HAL_TIM_Base_Start_IT+0x60>)
 80052fe:	4293      	cmp	r3, r2
 8005300:	d005      	beq.n	800530e <HAL_TIM_Base_Start_IT+0x32>
 8005302:	681a      	ldr	r2, [r3, #0]
 8005304:	2101      	movs	r1, #1
 8005306:	430a      	orrs	r2, r1
 8005308:	601a      	str	r2, [r3, #0]
 800530a:	2000      	movs	r0, #0
 800530c:	e00e      	b.n	800532c <HAL_TIM_Base_Start_IT+0x50>
 800530e:	689a      	ldr	r2, [r3, #8]
 8005310:	490b      	ldr	r1, [pc, #44]	@ (8005340 <HAL_TIM_Base_Start_IT+0x64>)
 8005312:	400a      	ands	r2, r1
 8005314:	2a06      	cmp	r2, #6
 8005316:	d00a      	beq.n	800532e <HAL_TIM_Base_Start_IT+0x52>
 8005318:	3907      	subs	r1, #7
 800531a:	428a      	cmp	r2, r1
 800531c:	d009      	beq.n	8005332 <HAL_TIM_Base_Start_IT+0x56>
 800531e:	681a      	ldr	r2, [r3, #0]
 8005320:	2101      	movs	r1, #1
 8005322:	430a      	orrs	r2, r1
 8005324:	601a      	str	r2, [r3, #0]
 8005326:	2000      	movs	r0, #0
 8005328:	e000      	b.n	800532c <HAL_TIM_Base_Start_IT+0x50>
 800532a:	2001      	movs	r0, #1
 800532c:	4770      	bx	lr
 800532e:	2000      	movs	r0, #0
 8005330:	e7fc      	b.n	800532c <HAL_TIM_Base_Start_IT+0x50>
 8005332:	2000      	movs	r0, #0
 8005334:	e7fa      	b.n	800532c <HAL_TIM_Base_Start_IT+0x50>
 8005336:	46c0      	nop			@ (mov r8, r8)
 8005338:	40012c00 	.word	0x40012c00
 800533c:	40000400 	.word	0x40000400
 8005340:	00010007 	.word	0x00010007

08005344 <HAL_TIM_OC_MspInit>:
 8005344:	4770      	bx	lr

08005346 <HAL_TIM_PWM_MspInit>:
 8005346:	4770      	bx	lr

08005348 <HAL_TIM_OC_DelayElapsedCallback>:
 8005348:	4770      	bx	lr

0800534a <HAL_TIM_IC_CaptureCallback>:
 800534a:	4770      	bx	lr

0800534c <HAL_TIM_PWM_PulseFinishedCallback>:
 800534c:	4770      	bx	lr

0800534e <HAL_TIM_TriggerCallback>:
 800534e:	4770      	bx	lr

08005350 <HAL_TIM_IRQHandler>:
 8005350:	b570      	push	{r4, r5, r6, lr}
 8005352:	0005      	movs	r5, r0
 8005354:	6803      	ldr	r3, [r0, #0]
 8005356:	68de      	ldr	r6, [r3, #12]
 8005358:	691c      	ldr	r4, [r3, #16]
 800535a:	07a2      	lsls	r2, r4, #30
 800535c:	d50e      	bpl.n	800537c <HAL_TIM_IRQHandler+0x2c>
 800535e:	07b2      	lsls	r2, r6, #30
 8005360:	d50c      	bpl.n	800537c <HAL_TIM_IRQHandler+0x2c>
 8005362:	2203      	movs	r2, #3
 8005364:	4252      	negs	r2, r2
 8005366:	611a      	str	r2, [r3, #16]
 8005368:	2301      	movs	r3, #1
 800536a:	7703      	strb	r3, [r0, #28]
 800536c:	6803      	ldr	r3, [r0, #0]
 800536e:	699b      	ldr	r3, [r3, #24]
 8005370:	079b      	lsls	r3, r3, #30
 8005372:	d055      	beq.n	8005420 <HAL_TIM_IRQHandler+0xd0>
 8005374:	f7ff ffe9 	bl	800534a <HAL_TIM_IC_CaptureCallback>
 8005378:	2300      	movs	r3, #0
 800537a:	772b      	strb	r3, [r5, #28]
 800537c:	0763      	lsls	r3, r4, #29
 800537e:	d512      	bpl.n	80053a6 <HAL_TIM_IRQHandler+0x56>
 8005380:	0773      	lsls	r3, r6, #29
 8005382:	d510      	bpl.n	80053a6 <HAL_TIM_IRQHandler+0x56>
 8005384:	682b      	ldr	r3, [r5, #0]
 8005386:	2205      	movs	r2, #5
 8005388:	4252      	negs	r2, r2
 800538a:	611a      	str	r2, [r3, #16]
 800538c:	2302      	movs	r3, #2
 800538e:	772b      	strb	r3, [r5, #28]
 8005390:	682b      	ldr	r3, [r5, #0]
 8005392:	699a      	ldr	r2, [r3, #24]
 8005394:	23c0      	movs	r3, #192	@ 0xc0
 8005396:	009b      	lsls	r3, r3, #2
 8005398:	421a      	tst	r2, r3
 800539a:	d047      	beq.n	800542c <HAL_TIM_IRQHandler+0xdc>
 800539c:	0028      	movs	r0, r5
 800539e:	f7ff ffd4 	bl	800534a <HAL_TIM_IC_CaptureCallback>
 80053a2:	2300      	movs	r3, #0
 80053a4:	772b      	strb	r3, [r5, #28]
 80053a6:	0723      	lsls	r3, r4, #28
 80053a8:	d510      	bpl.n	80053cc <HAL_TIM_IRQHandler+0x7c>
 80053aa:	0733      	lsls	r3, r6, #28
 80053ac:	d50e      	bpl.n	80053cc <HAL_TIM_IRQHandler+0x7c>
 80053ae:	682b      	ldr	r3, [r5, #0]
 80053b0:	2209      	movs	r2, #9
 80053b2:	4252      	negs	r2, r2
 80053b4:	611a      	str	r2, [r3, #16]
 80053b6:	2304      	movs	r3, #4
 80053b8:	772b      	strb	r3, [r5, #28]
 80053ba:	682b      	ldr	r3, [r5, #0]
 80053bc:	69db      	ldr	r3, [r3, #28]
 80053be:	079b      	lsls	r3, r3, #30
 80053c0:	d03b      	beq.n	800543a <HAL_TIM_IRQHandler+0xea>
 80053c2:	0028      	movs	r0, r5
 80053c4:	f7ff ffc1 	bl	800534a <HAL_TIM_IC_CaptureCallback>
 80053c8:	2300      	movs	r3, #0
 80053ca:	772b      	strb	r3, [r5, #28]
 80053cc:	06e3      	lsls	r3, r4, #27
 80053ce:	d512      	bpl.n	80053f6 <HAL_TIM_IRQHandler+0xa6>
 80053d0:	06f3      	lsls	r3, r6, #27
 80053d2:	d510      	bpl.n	80053f6 <HAL_TIM_IRQHandler+0xa6>
 80053d4:	682b      	ldr	r3, [r5, #0]
 80053d6:	2211      	movs	r2, #17
 80053d8:	4252      	negs	r2, r2
 80053da:	611a      	str	r2, [r3, #16]
 80053dc:	2308      	movs	r3, #8
 80053de:	772b      	strb	r3, [r5, #28]
 80053e0:	682b      	ldr	r3, [r5, #0]
 80053e2:	69da      	ldr	r2, [r3, #28]
 80053e4:	23c0      	movs	r3, #192	@ 0xc0
 80053e6:	009b      	lsls	r3, r3, #2
 80053e8:	421a      	tst	r2, r3
 80053ea:	d02d      	beq.n	8005448 <HAL_TIM_IRQHandler+0xf8>
 80053ec:	0028      	movs	r0, r5
 80053ee:	f7ff ffac 	bl	800534a <HAL_TIM_IC_CaptureCallback>
 80053f2:	2300      	movs	r3, #0
 80053f4:	772b      	strb	r3, [r5, #28]
 80053f6:	07e3      	lsls	r3, r4, #31
 80053f8:	d501      	bpl.n	80053fe <HAL_TIM_IRQHandler+0xae>
 80053fa:	07f3      	lsls	r3, r6, #31
 80053fc:	d42b      	bmi.n	8005456 <HAL_TIM_IRQHandler+0x106>
 80053fe:	0623      	lsls	r3, r4, #24
 8005400:	d501      	bpl.n	8005406 <HAL_TIM_IRQHandler+0xb6>
 8005402:	0633      	lsls	r3, r6, #24
 8005404:	d42f      	bmi.n	8005466 <HAL_TIM_IRQHandler+0x116>
 8005406:	05e3      	lsls	r3, r4, #23
 8005408:	d501      	bpl.n	800540e <HAL_TIM_IRQHandler+0xbe>
 800540a:	0633      	lsls	r3, r6, #24
 800540c:	d433      	bmi.n	8005476 <HAL_TIM_IRQHandler+0x126>
 800540e:	0663      	lsls	r3, r4, #25
 8005410:	d501      	bpl.n	8005416 <HAL_TIM_IRQHandler+0xc6>
 8005412:	0673      	lsls	r3, r6, #25
 8005414:	d436      	bmi.n	8005484 <HAL_TIM_IRQHandler+0x134>
 8005416:	06a4      	lsls	r4, r4, #26
 8005418:	d501      	bpl.n	800541e <HAL_TIM_IRQHandler+0xce>
 800541a:	06b6      	lsls	r6, r6, #26
 800541c:	d43a      	bmi.n	8005494 <HAL_TIM_IRQHandler+0x144>
 800541e:	bd70      	pop	{r4, r5, r6, pc}
 8005420:	f7ff ff92 	bl	8005348 <HAL_TIM_OC_DelayElapsedCallback>
 8005424:	0028      	movs	r0, r5
 8005426:	f7ff ff91 	bl	800534c <HAL_TIM_PWM_PulseFinishedCallback>
 800542a:	e7a5      	b.n	8005378 <HAL_TIM_IRQHandler+0x28>
 800542c:	0028      	movs	r0, r5
 800542e:	f7ff ff8b 	bl	8005348 <HAL_TIM_OC_DelayElapsedCallback>
 8005432:	0028      	movs	r0, r5
 8005434:	f7ff ff8a 	bl	800534c <HAL_TIM_PWM_PulseFinishedCallback>
 8005438:	e7b3      	b.n	80053a2 <HAL_TIM_IRQHandler+0x52>
 800543a:	0028      	movs	r0, r5
 800543c:	f7ff ff84 	bl	8005348 <HAL_TIM_OC_DelayElapsedCallback>
 8005440:	0028      	movs	r0, r5
 8005442:	f7ff ff83 	bl	800534c <HAL_TIM_PWM_PulseFinishedCallback>
 8005446:	e7bf      	b.n	80053c8 <HAL_TIM_IRQHandler+0x78>
 8005448:	0028      	movs	r0, r5
 800544a:	f7ff ff7d 	bl	8005348 <HAL_TIM_OC_DelayElapsedCallback>
 800544e:	0028      	movs	r0, r5
 8005450:	f7ff ff7c 	bl	800534c <HAL_TIM_PWM_PulseFinishedCallback>
 8005454:	e7cd      	b.n	80053f2 <HAL_TIM_IRQHandler+0xa2>
 8005456:	682b      	ldr	r3, [r5, #0]
 8005458:	2202      	movs	r2, #2
 800545a:	4252      	negs	r2, r2
 800545c:	611a      	str	r2, [r3, #16]
 800545e:	0028      	movs	r0, r5
 8005460:	f7fd fe66 	bl	8003130 <HAL_TIM_PeriodElapsedCallback>
 8005464:	e7cb      	b.n	80053fe <HAL_TIM_IRQHandler+0xae>
 8005466:	682b      	ldr	r3, [r5, #0]
 8005468:	2281      	movs	r2, #129	@ 0x81
 800546a:	4252      	negs	r2, r2
 800546c:	611a      	str	r2, [r3, #16]
 800546e:	0028      	movs	r0, r5
 8005470:	f000 fc61 	bl	8005d36 <HAL_TIMEx_BreakCallback>
 8005474:	e7c7      	b.n	8005406 <HAL_TIM_IRQHandler+0xb6>
 8005476:	682b      	ldr	r3, [r5, #0]
 8005478:	4a0a      	ldr	r2, [pc, #40]	@ (80054a4 <HAL_TIM_IRQHandler+0x154>)
 800547a:	611a      	str	r2, [r3, #16]
 800547c:	0028      	movs	r0, r5
 800547e:	f000 fc5b 	bl	8005d38 <HAL_TIMEx_Break2Callback>
 8005482:	e7c4      	b.n	800540e <HAL_TIM_IRQHandler+0xbe>
 8005484:	682b      	ldr	r3, [r5, #0]
 8005486:	2241      	movs	r2, #65	@ 0x41
 8005488:	4252      	negs	r2, r2
 800548a:	611a      	str	r2, [r3, #16]
 800548c:	0028      	movs	r0, r5
 800548e:	f7ff ff5e 	bl	800534e <HAL_TIM_TriggerCallback>
 8005492:	e7c0      	b.n	8005416 <HAL_TIM_IRQHandler+0xc6>
 8005494:	682b      	ldr	r3, [r5, #0]
 8005496:	2221      	movs	r2, #33	@ 0x21
 8005498:	4252      	negs	r2, r2
 800549a:	611a      	str	r2, [r3, #16]
 800549c:	0028      	movs	r0, r5
 800549e:	f000 fc49 	bl	8005d34 <HAL_TIMEx_CommutCallback>
 80054a2:	e7bc      	b.n	800541e <HAL_TIM_IRQHandler+0xce>
 80054a4:	fffffeff 	.word	0xfffffeff

080054a8 <TIM_Base_SetConfig>:
 80054a8:	6803      	ldr	r3, [r0, #0]
 80054aa:	4a1a      	ldr	r2, [pc, #104]	@ (8005514 <TIM_Base_SetConfig+0x6c>)
 80054ac:	4290      	cmp	r0, r2
 80054ae:	d002      	beq.n	80054b6 <TIM_Base_SetConfig+0xe>
 80054b0:	4a19      	ldr	r2, [pc, #100]	@ (8005518 <TIM_Base_SetConfig+0x70>)
 80054b2:	4290      	cmp	r0, r2
 80054b4:	d103      	bne.n	80054be <TIM_Base_SetConfig+0x16>
 80054b6:	2270      	movs	r2, #112	@ 0x70
 80054b8:	4393      	bics	r3, r2
 80054ba:	684a      	ldr	r2, [r1, #4]
 80054bc:	4313      	orrs	r3, r2
 80054be:	4a15      	ldr	r2, [pc, #84]	@ (8005514 <TIM_Base_SetConfig+0x6c>)
 80054c0:	4290      	cmp	r0, r2
 80054c2:	d00b      	beq.n	80054dc <TIM_Base_SetConfig+0x34>
 80054c4:	4a14      	ldr	r2, [pc, #80]	@ (8005518 <TIM_Base_SetConfig+0x70>)
 80054c6:	4290      	cmp	r0, r2
 80054c8:	d008      	beq.n	80054dc <TIM_Base_SetConfig+0x34>
 80054ca:	4a14      	ldr	r2, [pc, #80]	@ (800551c <TIM_Base_SetConfig+0x74>)
 80054cc:	4290      	cmp	r0, r2
 80054ce:	d005      	beq.n	80054dc <TIM_Base_SetConfig+0x34>
 80054d0:	4a13      	ldr	r2, [pc, #76]	@ (8005520 <TIM_Base_SetConfig+0x78>)
 80054d2:	4290      	cmp	r0, r2
 80054d4:	d002      	beq.n	80054dc <TIM_Base_SetConfig+0x34>
 80054d6:	4a13      	ldr	r2, [pc, #76]	@ (8005524 <TIM_Base_SetConfig+0x7c>)
 80054d8:	4290      	cmp	r0, r2
 80054da:	d103      	bne.n	80054e4 <TIM_Base_SetConfig+0x3c>
 80054dc:	4a12      	ldr	r2, [pc, #72]	@ (8005528 <TIM_Base_SetConfig+0x80>)
 80054de:	4013      	ands	r3, r2
 80054e0:	68ca      	ldr	r2, [r1, #12]
 80054e2:	4313      	orrs	r3, r2
 80054e4:	2280      	movs	r2, #128	@ 0x80
 80054e6:	4393      	bics	r3, r2
 80054e8:	694a      	ldr	r2, [r1, #20]
 80054ea:	4313      	orrs	r3, r2
 80054ec:	6003      	str	r3, [r0, #0]
 80054ee:	688b      	ldr	r3, [r1, #8]
 80054f0:	62c3      	str	r3, [r0, #44]	@ 0x2c
 80054f2:	680b      	ldr	r3, [r1, #0]
 80054f4:	6283      	str	r3, [r0, #40]	@ 0x28
 80054f6:	4b07      	ldr	r3, [pc, #28]	@ (8005514 <TIM_Base_SetConfig+0x6c>)
 80054f8:	4298      	cmp	r0, r3
 80054fa:	d005      	beq.n	8005508 <TIM_Base_SetConfig+0x60>
 80054fc:	4b08      	ldr	r3, [pc, #32]	@ (8005520 <TIM_Base_SetConfig+0x78>)
 80054fe:	4298      	cmp	r0, r3
 8005500:	d002      	beq.n	8005508 <TIM_Base_SetConfig+0x60>
 8005502:	4b08      	ldr	r3, [pc, #32]	@ (8005524 <TIM_Base_SetConfig+0x7c>)
 8005504:	4298      	cmp	r0, r3
 8005506:	d101      	bne.n	800550c <TIM_Base_SetConfig+0x64>
 8005508:	690b      	ldr	r3, [r1, #16]
 800550a:	6303      	str	r3, [r0, #48]	@ 0x30
 800550c:	2301      	movs	r3, #1
 800550e:	6143      	str	r3, [r0, #20]
 8005510:	4770      	bx	lr
 8005512:	46c0      	nop			@ (mov r8, r8)
 8005514:	40012c00 	.word	0x40012c00
 8005518:	40000400 	.word	0x40000400
 800551c:	40002000 	.word	0x40002000
 8005520:	40014400 	.word	0x40014400
 8005524:	40014800 	.word	0x40014800
 8005528:	fffffcff 	.word	0xfffffcff

0800552c <HAL_TIM_Base_Init>:
 800552c:	b570      	push	{r4, r5, r6, lr}
 800552e:	1e04      	subs	r4, r0, #0
 8005530:	d02a      	beq.n	8005588 <HAL_TIM_Base_Init+0x5c>
 8005532:	233d      	movs	r3, #61	@ 0x3d
 8005534:	5cc3      	ldrb	r3, [r0, r3]
 8005536:	2b00      	cmp	r3, #0
 8005538:	d020      	beq.n	800557c <HAL_TIM_Base_Init+0x50>
 800553a:	253d      	movs	r5, #61	@ 0x3d
 800553c:	2302      	movs	r3, #2
 800553e:	5563      	strb	r3, [r4, r5]
 8005540:	0021      	movs	r1, r4
 8005542:	c901      	ldmia	r1!, {r0}
 8005544:	f7ff ffb0 	bl	80054a8 <TIM_Base_SetConfig>
 8005548:	2301      	movs	r3, #1
 800554a:	2248      	movs	r2, #72	@ 0x48
 800554c:	54a3      	strb	r3, [r4, r2]
 800554e:	3a0a      	subs	r2, #10
 8005550:	54a3      	strb	r3, [r4, r2]
 8005552:	3201      	adds	r2, #1
 8005554:	54a3      	strb	r3, [r4, r2]
 8005556:	3201      	adds	r2, #1
 8005558:	54a3      	strb	r3, [r4, r2]
 800555a:	3201      	adds	r2, #1
 800555c:	54a3      	strb	r3, [r4, r2]
 800555e:	3201      	adds	r2, #1
 8005560:	54a3      	strb	r3, [r4, r2]
 8005562:	3201      	adds	r2, #1
 8005564:	54a3      	strb	r3, [r4, r2]
 8005566:	3201      	adds	r2, #1
 8005568:	54a3      	strb	r3, [r4, r2]
 800556a:	3201      	adds	r2, #1
 800556c:	54a3      	strb	r3, [r4, r2]
 800556e:	3201      	adds	r2, #1
 8005570:	54a3      	strb	r3, [r4, r2]
 8005572:	3201      	adds	r2, #1
 8005574:	54a3      	strb	r3, [r4, r2]
 8005576:	5563      	strb	r3, [r4, r5]
 8005578:	2000      	movs	r0, #0
 800557a:	bd70      	pop	{r4, r5, r6, pc}
 800557c:	333c      	adds	r3, #60	@ 0x3c
 800557e:	2200      	movs	r2, #0
 8005580:	54c2      	strb	r2, [r0, r3]
 8005582:	f7fe fa23 	bl	80039cc <HAL_TIM_Base_MspInit>
 8005586:	e7d8      	b.n	800553a <HAL_TIM_Base_Init+0xe>
 8005588:	2001      	movs	r0, #1
 800558a:	e7f6      	b.n	800557a <HAL_TIM_Base_Init+0x4e>

0800558c <HAL_TIM_OC_Init>:
 800558c:	b570      	push	{r4, r5, r6, lr}
 800558e:	1e04      	subs	r4, r0, #0
 8005590:	d02a      	beq.n	80055e8 <HAL_TIM_OC_Init+0x5c>
 8005592:	233d      	movs	r3, #61	@ 0x3d
 8005594:	5cc3      	ldrb	r3, [r0, r3]
 8005596:	2b00      	cmp	r3, #0
 8005598:	d020      	beq.n	80055dc <HAL_TIM_OC_Init+0x50>
 800559a:	253d      	movs	r5, #61	@ 0x3d
 800559c:	2302      	movs	r3, #2
 800559e:	5563      	strb	r3, [r4, r5]
 80055a0:	0021      	movs	r1, r4
 80055a2:	c901      	ldmia	r1!, {r0}
 80055a4:	f7ff ff80 	bl	80054a8 <TIM_Base_SetConfig>
 80055a8:	2301      	movs	r3, #1
 80055aa:	2248      	movs	r2, #72	@ 0x48
 80055ac:	54a3      	strb	r3, [r4, r2]
 80055ae:	3a0a      	subs	r2, #10
 80055b0:	54a3      	strb	r3, [r4, r2]
 80055b2:	3201      	adds	r2, #1
 80055b4:	54a3      	strb	r3, [r4, r2]
 80055b6:	3201      	adds	r2, #1
 80055b8:	54a3      	strb	r3, [r4, r2]
 80055ba:	3201      	adds	r2, #1
 80055bc:	54a3      	strb	r3, [r4, r2]
 80055be:	3201      	adds	r2, #1
 80055c0:	54a3      	strb	r3, [r4, r2]
 80055c2:	3201      	adds	r2, #1
 80055c4:	54a3      	strb	r3, [r4, r2]
 80055c6:	3201      	adds	r2, #1
 80055c8:	54a3      	strb	r3, [r4, r2]
 80055ca:	3201      	adds	r2, #1
 80055cc:	54a3      	strb	r3, [r4, r2]
 80055ce:	3201      	adds	r2, #1
 80055d0:	54a3      	strb	r3, [r4, r2]
 80055d2:	3201      	adds	r2, #1
 80055d4:	54a3      	strb	r3, [r4, r2]
 80055d6:	5563      	strb	r3, [r4, r5]
 80055d8:	2000      	movs	r0, #0
 80055da:	bd70      	pop	{r4, r5, r6, pc}
 80055dc:	333c      	adds	r3, #60	@ 0x3c
 80055de:	2200      	movs	r2, #0
 80055e0:	54c2      	strb	r2, [r0, r3]
 80055e2:	f7ff feaf 	bl	8005344 <HAL_TIM_OC_MspInit>
 80055e6:	e7d8      	b.n	800559a <HAL_TIM_OC_Init+0xe>
 80055e8:	2001      	movs	r0, #1
 80055ea:	e7f6      	b.n	80055da <HAL_TIM_OC_Init+0x4e>

080055ec <HAL_TIM_PWM_Init>:
 80055ec:	b570      	push	{r4, r5, r6, lr}
 80055ee:	1e04      	subs	r4, r0, #0
 80055f0:	d02a      	beq.n	8005648 <HAL_TIM_PWM_Init+0x5c>
 80055f2:	233d      	movs	r3, #61	@ 0x3d
 80055f4:	5cc3      	ldrb	r3, [r0, r3]
 80055f6:	2b00      	cmp	r3, #0
 80055f8:	d020      	beq.n	800563c <HAL_TIM_PWM_Init+0x50>
 80055fa:	253d      	movs	r5, #61	@ 0x3d
 80055fc:	2302      	movs	r3, #2
 80055fe:	5563      	strb	r3, [r4, r5]
 8005600:	0021      	movs	r1, r4
 8005602:	c901      	ldmia	r1!, {r0}
 8005604:	f7ff ff50 	bl	80054a8 <TIM_Base_SetConfig>
 8005608:	2301      	movs	r3, #1
 800560a:	2248      	movs	r2, #72	@ 0x48
 800560c:	54a3      	strb	r3, [r4, r2]
 800560e:	3a0a      	subs	r2, #10
 8005610:	54a3      	strb	r3, [r4, r2]
 8005612:	3201      	adds	r2, #1
 8005614:	54a3      	strb	r3, [r4, r2]
 8005616:	3201      	adds	r2, #1
 8005618:	54a3      	strb	r3, [r4, r2]
 800561a:	3201      	adds	r2, #1
 800561c:	54a3      	strb	r3, [r4, r2]
 800561e:	3201      	adds	r2, #1
 8005620:	54a3      	strb	r3, [r4, r2]
 8005622:	3201      	adds	r2, #1
 8005624:	54a3      	strb	r3, [r4, r2]
 8005626:	3201      	adds	r2, #1
 8005628:	54a3      	strb	r3, [r4, r2]
 800562a:	3201      	adds	r2, #1
 800562c:	54a3      	strb	r3, [r4, r2]
 800562e:	3201      	adds	r2, #1
 8005630:	54a3      	strb	r3, [r4, r2]
 8005632:	3201      	adds	r2, #1
 8005634:	54a3      	strb	r3, [r4, r2]
 8005636:	5563      	strb	r3, [r4, r5]
 8005638:	2000      	movs	r0, #0
 800563a:	bd70      	pop	{r4, r5, r6, pc}
 800563c:	333c      	adds	r3, #60	@ 0x3c
 800563e:	2200      	movs	r2, #0
 8005640:	54c2      	strb	r2, [r0, r3]
 8005642:	f7ff fe80 	bl	8005346 <HAL_TIM_PWM_MspInit>
 8005646:	e7d8      	b.n	80055fa <HAL_TIM_PWM_Init+0xe>
 8005648:	2001      	movs	r0, #1
 800564a:	e7f6      	b.n	800563a <HAL_TIM_PWM_Init+0x4e>

0800564c <TIM_OC2_SetConfig>:
 800564c:	b570      	push	{r4, r5, r6, lr}
 800564e:	6a02      	ldr	r2, [r0, #32]
 8005650:	6a03      	ldr	r3, [r0, #32]
 8005652:	2410      	movs	r4, #16
 8005654:	43a3      	bics	r3, r4
 8005656:	6203      	str	r3, [r0, #32]
 8005658:	6845      	ldr	r5, [r0, #4]
 800565a:	6983      	ldr	r3, [r0, #24]
 800565c:	4c14      	ldr	r4, [pc, #80]	@ (80056b0 <TIM_OC2_SetConfig+0x64>)
 800565e:	4023      	ands	r3, r4
 8005660:	680c      	ldr	r4, [r1, #0]
 8005662:	0224      	lsls	r4, r4, #8
 8005664:	431c      	orrs	r4, r3
 8005666:	2320      	movs	r3, #32
 8005668:	439a      	bics	r2, r3
 800566a:	688b      	ldr	r3, [r1, #8]
 800566c:	011b      	lsls	r3, r3, #4
 800566e:	4313      	orrs	r3, r2
 8005670:	4a10      	ldr	r2, [pc, #64]	@ (80056b4 <TIM_OC2_SetConfig+0x68>)
 8005672:	4290      	cmp	r0, r2
 8005674:	d006      	beq.n	8005684 <TIM_OC2_SetConfig+0x38>
 8005676:	4a10      	ldr	r2, [pc, #64]	@ (80056b8 <TIM_OC2_SetConfig+0x6c>)
 8005678:	4290      	cmp	r0, r2
 800567a:	d00b      	beq.n	8005694 <TIM_OC2_SetConfig+0x48>
 800567c:	4a0f      	ldr	r2, [pc, #60]	@ (80056bc <TIM_OC2_SetConfig+0x70>)
 800567e:	4290      	cmp	r0, r2
 8005680:	d110      	bne.n	80056a4 <TIM_OC2_SetConfig+0x58>
 8005682:	e007      	b.n	8005694 <TIM_OC2_SetConfig+0x48>
 8005684:	2280      	movs	r2, #128	@ 0x80
 8005686:	4393      	bics	r3, r2
 8005688:	001e      	movs	r6, r3
 800568a:	68cb      	ldr	r3, [r1, #12]
 800568c:	011b      	lsls	r3, r3, #4
 800568e:	4333      	orrs	r3, r6
 8005690:	3a40      	subs	r2, #64	@ 0x40
 8005692:	4393      	bics	r3, r2
 8005694:	4a0a      	ldr	r2, [pc, #40]	@ (80056c0 <TIM_OC2_SetConfig+0x74>)
 8005696:	4015      	ands	r5, r2
 8005698:	694a      	ldr	r2, [r1, #20]
 800569a:	0092      	lsls	r2, r2, #2
 800569c:	432a      	orrs	r2, r5
 800569e:	698d      	ldr	r5, [r1, #24]
 80056a0:	00ad      	lsls	r5, r5, #2
 80056a2:	4315      	orrs	r5, r2
 80056a4:	6045      	str	r5, [r0, #4]
 80056a6:	6184      	str	r4, [r0, #24]
 80056a8:	684a      	ldr	r2, [r1, #4]
 80056aa:	6382      	str	r2, [r0, #56]	@ 0x38
 80056ac:	6203      	str	r3, [r0, #32]
 80056ae:	bd70      	pop	{r4, r5, r6, pc}
 80056b0:	feff8cff 	.word	0xfeff8cff
 80056b4:	40012c00 	.word	0x40012c00
 80056b8:	40014400 	.word	0x40014400
 80056bc:	40014800 	.word	0x40014800
 80056c0:	fffff3ff 	.word	0xfffff3ff

080056c4 <HAL_TIM_OC_ConfigChannel>:
 80056c4:	b510      	push	{r4, lr}
 80056c6:	0004      	movs	r4, r0
 80056c8:	233c      	movs	r3, #60	@ 0x3c
 80056ca:	5cc3      	ldrb	r3, [r0, r3]
 80056cc:	2b01      	cmp	r3, #1
 80056ce:	d02b      	beq.n	8005728 <HAL_TIM_OC_ConfigChannel+0x64>
 80056d0:	233c      	movs	r3, #60	@ 0x3c
 80056d2:	2001      	movs	r0, #1
 80056d4:	54e0      	strb	r0, [r4, r3]
 80056d6:	2a14      	cmp	r2, #20
 80056d8:	d821      	bhi.n	800571e <HAL_TIM_OC_ConfigChannel+0x5a>
 80056da:	0092      	lsls	r2, r2, #2
 80056dc:	4b13      	ldr	r3, [pc, #76]	@ (800572c <HAL_TIM_OC_ConfigChannel+0x68>)
 80056de:	589b      	ldr	r3, [r3, r2]
 80056e0:	469f      	mov	pc, r3
 80056e2:	6820      	ldr	r0, [r4, #0]
 80056e4:	f7ff fcae 	bl	8005044 <TIM_OC1_SetConfig>
 80056e8:	2000      	movs	r0, #0
 80056ea:	e019      	b.n	8005720 <HAL_TIM_OC_ConfigChannel+0x5c>
 80056ec:	6820      	ldr	r0, [r4, #0]
 80056ee:	f7ff ffad 	bl	800564c <TIM_OC2_SetConfig>
 80056f2:	2000      	movs	r0, #0
 80056f4:	e014      	b.n	8005720 <HAL_TIM_OC_ConfigChannel+0x5c>
 80056f6:	6820      	ldr	r0, [r4, #0]
 80056f8:	f7ff fce4 	bl	80050c4 <TIM_OC3_SetConfig>
 80056fc:	2000      	movs	r0, #0
 80056fe:	e00f      	b.n	8005720 <HAL_TIM_OC_ConfigChannel+0x5c>
 8005700:	6820      	ldr	r0, [r4, #0]
 8005702:	f7ff fd21 	bl	8005148 <TIM_OC4_SetConfig>
 8005706:	2000      	movs	r0, #0
 8005708:	e00a      	b.n	8005720 <HAL_TIM_OC_ConfigChannel+0x5c>
 800570a:	6820      	ldr	r0, [r4, #0]
 800570c:	f7ff fd50 	bl	80051b0 <TIM_OC5_SetConfig>
 8005710:	2000      	movs	r0, #0
 8005712:	e005      	b.n	8005720 <HAL_TIM_OC_ConfigChannel+0x5c>
 8005714:	6820      	ldr	r0, [r4, #0]
 8005716:	f7ff fd7d 	bl	8005214 <TIM_OC6_SetConfig>
 800571a:	2000      	movs	r0, #0
 800571c:	e000      	b.n	8005720 <HAL_TIM_OC_ConfigChannel+0x5c>
 800571e:	2001      	movs	r0, #1
 8005720:	233c      	movs	r3, #60	@ 0x3c
 8005722:	2200      	movs	r2, #0
 8005724:	54e2      	strb	r2, [r4, r3]
 8005726:	bd10      	pop	{r4, pc}
 8005728:	2002      	movs	r0, #2
 800572a:	e7fc      	b.n	8005726 <HAL_TIM_OC_ConfigChannel+0x62>
 800572c:	080062a0 	.word	0x080062a0

08005730 <HAL_TIM_PWM_ConfigChannel>:
 8005730:	b570      	push	{r4, r5, r6, lr}
 8005732:	0004      	movs	r4, r0
 8005734:	000d      	movs	r5, r1
 8005736:	233c      	movs	r3, #60	@ 0x3c
 8005738:	5cc3      	ldrb	r3, [r0, r3]
 800573a:	2b01      	cmp	r3, #1
 800573c:	d100      	bne.n	8005740 <HAL_TIM_PWM_ConfigChannel+0x10>
 800573e:	e092      	b.n	8005866 <HAL_TIM_PWM_ConfigChannel+0x136>
 8005740:	233c      	movs	r3, #60	@ 0x3c
 8005742:	2101      	movs	r1, #1
 8005744:	54c1      	strb	r1, [r0, r3]
 8005746:	2a14      	cmp	r2, #20
 8005748:	d900      	bls.n	800574c <HAL_TIM_PWM_ConfigChannel+0x1c>
 800574a:	e087      	b.n	800585c <HAL_TIM_PWM_ConfigChannel+0x12c>
 800574c:	0092      	lsls	r2, r2, #2
 800574e:	4b47      	ldr	r3, [pc, #284]	@ (800586c <HAL_TIM_PWM_ConfigChannel+0x13c>)
 8005750:	589b      	ldr	r3, [r3, r2]
 8005752:	469f      	mov	pc, r3
 8005754:	6800      	ldr	r0, [r0, #0]
 8005756:	0029      	movs	r1, r5
 8005758:	f7ff fc74 	bl	8005044 <TIM_OC1_SetConfig>
 800575c:	6822      	ldr	r2, [r4, #0]
 800575e:	6993      	ldr	r3, [r2, #24]
 8005760:	2108      	movs	r1, #8
 8005762:	430b      	orrs	r3, r1
 8005764:	6193      	str	r3, [r2, #24]
 8005766:	6822      	ldr	r2, [r4, #0]
 8005768:	6993      	ldr	r3, [r2, #24]
 800576a:	3904      	subs	r1, #4
 800576c:	438b      	bics	r3, r1
 800576e:	6193      	str	r3, [r2, #24]
 8005770:	6822      	ldr	r2, [r4, #0]
 8005772:	6993      	ldr	r3, [r2, #24]
 8005774:	6929      	ldr	r1, [r5, #16]
 8005776:	430b      	orrs	r3, r1
 8005778:	6193      	str	r3, [r2, #24]
 800577a:	2000      	movs	r0, #0
 800577c:	e06f      	b.n	800585e <HAL_TIM_PWM_ConfigChannel+0x12e>
 800577e:	6800      	ldr	r0, [r0, #0]
 8005780:	0029      	movs	r1, r5
 8005782:	f7ff ff63 	bl	800564c <TIM_OC2_SetConfig>
 8005786:	6822      	ldr	r2, [r4, #0]
 8005788:	6991      	ldr	r1, [r2, #24]
 800578a:	2380      	movs	r3, #128	@ 0x80
 800578c:	011b      	lsls	r3, r3, #4
 800578e:	430b      	orrs	r3, r1
 8005790:	6193      	str	r3, [r2, #24]
 8005792:	6822      	ldr	r2, [r4, #0]
 8005794:	6993      	ldr	r3, [r2, #24]
 8005796:	4936      	ldr	r1, [pc, #216]	@ (8005870 <HAL_TIM_PWM_ConfigChannel+0x140>)
 8005798:	400b      	ands	r3, r1
 800579a:	6193      	str	r3, [r2, #24]
 800579c:	6821      	ldr	r1, [r4, #0]
 800579e:	698b      	ldr	r3, [r1, #24]
 80057a0:	692a      	ldr	r2, [r5, #16]
 80057a2:	0212      	lsls	r2, r2, #8
 80057a4:	4313      	orrs	r3, r2
 80057a6:	618b      	str	r3, [r1, #24]
 80057a8:	2000      	movs	r0, #0
 80057aa:	e058      	b.n	800585e <HAL_TIM_PWM_ConfigChannel+0x12e>
 80057ac:	6800      	ldr	r0, [r0, #0]
 80057ae:	0029      	movs	r1, r5
 80057b0:	f7ff fc88 	bl	80050c4 <TIM_OC3_SetConfig>
 80057b4:	6822      	ldr	r2, [r4, #0]
 80057b6:	69d3      	ldr	r3, [r2, #28]
 80057b8:	2108      	movs	r1, #8
 80057ba:	430b      	orrs	r3, r1
 80057bc:	61d3      	str	r3, [r2, #28]
 80057be:	6822      	ldr	r2, [r4, #0]
 80057c0:	69d3      	ldr	r3, [r2, #28]
 80057c2:	3904      	subs	r1, #4
 80057c4:	438b      	bics	r3, r1
 80057c6:	61d3      	str	r3, [r2, #28]
 80057c8:	6822      	ldr	r2, [r4, #0]
 80057ca:	69d3      	ldr	r3, [r2, #28]
 80057cc:	6929      	ldr	r1, [r5, #16]
 80057ce:	430b      	orrs	r3, r1
 80057d0:	61d3      	str	r3, [r2, #28]
 80057d2:	2000      	movs	r0, #0
 80057d4:	e043      	b.n	800585e <HAL_TIM_PWM_ConfigChannel+0x12e>
 80057d6:	6800      	ldr	r0, [r0, #0]
 80057d8:	0029      	movs	r1, r5
 80057da:	f7ff fcb5 	bl	8005148 <TIM_OC4_SetConfig>
 80057de:	6822      	ldr	r2, [r4, #0]
 80057e0:	69d1      	ldr	r1, [r2, #28]
 80057e2:	2380      	movs	r3, #128	@ 0x80
 80057e4:	011b      	lsls	r3, r3, #4
 80057e6:	430b      	orrs	r3, r1
 80057e8:	61d3      	str	r3, [r2, #28]
 80057ea:	6822      	ldr	r2, [r4, #0]
 80057ec:	69d3      	ldr	r3, [r2, #28]
 80057ee:	4920      	ldr	r1, [pc, #128]	@ (8005870 <HAL_TIM_PWM_ConfigChannel+0x140>)
 80057f0:	400b      	ands	r3, r1
 80057f2:	61d3      	str	r3, [r2, #28]
 80057f4:	6821      	ldr	r1, [r4, #0]
 80057f6:	69cb      	ldr	r3, [r1, #28]
 80057f8:	692a      	ldr	r2, [r5, #16]
 80057fa:	0212      	lsls	r2, r2, #8
 80057fc:	4313      	orrs	r3, r2
 80057fe:	61cb      	str	r3, [r1, #28]
 8005800:	2000      	movs	r0, #0
 8005802:	e02c      	b.n	800585e <HAL_TIM_PWM_ConfigChannel+0x12e>
 8005804:	6800      	ldr	r0, [r0, #0]
 8005806:	0029      	movs	r1, r5
 8005808:	f7ff fcd2 	bl	80051b0 <TIM_OC5_SetConfig>
 800580c:	6822      	ldr	r2, [r4, #0]
 800580e:	6d53      	ldr	r3, [r2, #84]	@ 0x54
 8005810:	2108      	movs	r1, #8
 8005812:	430b      	orrs	r3, r1
 8005814:	6553      	str	r3, [r2, #84]	@ 0x54
 8005816:	6822      	ldr	r2, [r4, #0]
 8005818:	6d53      	ldr	r3, [r2, #84]	@ 0x54
 800581a:	3904      	subs	r1, #4
 800581c:	438b      	bics	r3, r1
 800581e:	6553      	str	r3, [r2, #84]	@ 0x54
 8005820:	6822      	ldr	r2, [r4, #0]
 8005822:	6d53      	ldr	r3, [r2, #84]	@ 0x54
 8005824:	6929      	ldr	r1, [r5, #16]
 8005826:	430b      	orrs	r3, r1
 8005828:	6553      	str	r3, [r2, #84]	@ 0x54
 800582a:	2000      	movs	r0, #0
 800582c:	e017      	b.n	800585e <HAL_TIM_PWM_ConfigChannel+0x12e>
 800582e:	6800      	ldr	r0, [r0, #0]
 8005830:	0029      	movs	r1, r5
 8005832:	f7ff fcef 	bl	8005214 <TIM_OC6_SetConfig>
 8005836:	6822      	ldr	r2, [r4, #0]
 8005838:	6d51      	ldr	r1, [r2, #84]	@ 0x54
 800583a:	2380      	movs	r3, #128	@ 0x80
 800583c:	011b      	lsls	r3, r3, #4
 800583e:	430b      	orrs	r3, r1
 8005840:	6553      	str	r3, [r2, #84]	@ 0x54
 8005842:	6822      	ldr	r2, [r4, #0]
 8005844:	6d53      	ldr	r3, [r2, #84]	@ 0x54
 8005846:	490a      	ldr	r1, [pc, #40]	@ (8005870 <HAL_TIM_PWM_ConfigChannel+0x140>)
 8005848:	400b      	ands	r3, r1
 800584a:	6553      	str	r3, [r2, #84]	@ 0x54
 800584c:	6821      	ldr	r1, [r4, #0]
 800584e:	6d4b      	ldr	r3, [r1, #84]	@ 0x54
 8005850:	692a      	ldr	r2, [r5, #16]
 8005852:	0212      	lsls	r2, r2, #8
 8005854:	4313      	orrs	r3, r2
 8005856:	654b      	str	r3, [r1, #84]	@ 0x54
 8005858:	2000      	movs	r0, #0
 800585a:	e000      	b.n	800585e <HAL_TIM_PWM_ConfigChannel+0x12e>
 800585c:	2001      	movs	r0, #1
 800585e:	233c      	movs	r3, #60	@ 0x3c
 8005860:	2200      	movs	r2, #0
 8005862:	54e2      	strb	r2, [r4, r3]
 8005864:	bd70      	pop	{r4, r5, r6, pc}
 8005866:	2002      	movs	r0, #2
 8005868:	e7fc      	b.n	8005864 <HAL_TIM_PWM_ConfigChannel+0x134>
 800586a:	46c0      	nop			@ (mov r8, r8)
 800586c:	080062f4 	.word	0x080062f4
 8005870:	fffffbff 	.word	0xfffffbff

08005874 <TIM_ETR_SetConfig>:
 8005874:	b530      	push	{r4, r5, lr}
 8005876:	6884      	ldr	r4, [r0, #8]
 8005878:	4d03      	ldr	r5, [pc, #12]	@ (8005888 <TIM_ETR_SetConfig+0x14>)
 800587a:	402c      	ands	r4, r5
 800587c:	021b      	lsls	r3, r3, #8
 800587e:	4313      	orrs	r3, r2
 8005880:	430b      	orrs	r3, r1
 8005882:	4323      	orrs	r3, r4
 8005884:	6083      	str	r3, [r0, #8]
 8005886:	bd30      	pop	{r4, r5, pc}
 8005888:	ffff00ff 	.word	0xffff00ff

0800588c <HAL_TIM_ConfigClockSource>:
 800588c:	b510      	push	{r4, lr}
 800588e:	0004      	movs	r4, r0
 8005890:	0008      	movs	r0, r1
 8005892:	233c      	movs	r3, #60	@ 0x3c
 8005894:	5ce3      	ldrb	r3, [r4, r3]
 8005896:	2b01      	cmp	r3, #1
 8005898:	d100      	bne.n	800589c <HAL_TIM_ConfigClockSource+0x10>
 800589a:	e077      	b.n	800598c <HAL_TIM_ConfigClockSource+0x100>
 800589c:	233c      	movs	r3, #60	@ 0x3c
 800589e:	2201      	movs	r2, #1
 80058a0:	54e2      	strb	r2, [r4, r3]
 80058a2:	3301      	adds	r3, #1
 80058a4:	3201      	adds	r2, #1
 80058a6:	54e2      	strb	r2, [r4, r3]
 80058a8:	6822      	ldr	r2, [r4, #0]
 80058aa:	6893      	ldr	r3, [r2, #8]
 80058ac:	4938      	ldr	r1, [pc, #224]	@ (8005990 <HAL_TIM_ConfigClockSource+0x104>)
 80058ae:	400b      	ands	r3, r1
 80058b0:	6093      	str	r3, [r2, #8]
 80058b2:	6801      	ldr	r1, [r0, #0]
 80058b4:	2960      	cmp	r1, #96	@ 0x60
 80058b6:	d04f      	beq.n	8005958 <HAL_TIM_ConfigClockSource+0xcc>
 80058b8:	d829      	bhi.n	800590e <HAL_TIM_ConfigClockSource+0x82>
 80058ba:	2940      	cmp	r1, #64	@ 0x40
 80058bc:	d057      	beq.n	800596e <HAL_TIM_ConfigClockSource+0xe2>
 80058be:	d90c      	bls.n	80058da <HAL_TIM_ConfigClockSource+0x4e>
 80058c0:	2950      	cmp	r1, #80	@ 0x50
 80058c2:	d122      	bne.n	800590a <HAL_TIM_ConfigClockSource+0x7e>
 80058c4:	6841      	ldr	r1, [r0, #4]
 80058c6:	68c2      	ldr	r2, [r0, #12]
 80058c8:	6820      	ldr	r0, [r4, #0]
 80058ca:	f7ff fcd7 	bl	800527c <TIM_TI1_ConfigInputStage>
 80058ce:	6820      	ldr	r0, [r4, #0]
 80058d0:	2150      	movs	r1, #80	@ 0x50
 80058d2:	f7ff fcf9 	bl	80052c8 <TIM_ITRx_SetConfig>
 80058d6:	2000      	movs	r0, #0
 80058d8:	e005      	b.n	80058e6 <HAL_TIM_ConfigClockSource+0x5a>
 80058da:	2920      	cmp	r1, #32
 80058dc:	d00e      	beq.n	80058fc <HAL_TIM_ConfigClockSource+0x70>
 80058de:	d909      	bls.n	80058f4 <HAL_TIM_ConfigClockSource+0x68>
 80058e0:	2930      	cmp	r1, #48	@ 0x30
 80058e2:	d00b      	beq.n	80058fc <HAL_TIM_ConfigClockSource+0x70>
 80058e4:	2001      	movs	r0, #1
 80058e6:	233d      	movs	r3, #61	@ 0x3d
 80058e8:	2201      	movs	r2, #1
 80058ea:	54e2      	strb	r2, [r4, r3]
 80058ec:	3b01      	subs	r3, #1
 80058ee:	2200      	movs	r2, #0
 80058f0:	54e2      	strb	r2, [r4, r3]
 80058f2:	bd10      	pop	{r4, pc}
 80058f4:	2900      	cmp	r1, #0
 80058f6:	d001      	beq.n	80058fc <HAL_TIM_ConfigClockSource+0x70>
 80058f8:	2910      	cmp	r1, #16
 80058fa:	d104      	bne.n	8005906 <HAL_TIM_ConfigClockSource+0x7a>
 80058fc:	6820      	ldr	r0, [r4, #0]
 80058fe:	f7ff fce3 	bl	80052c8 <TIM_ITRx_SetConfig>
 8005902:	2000      	movs	r0, #0
 8005904:	e7ef      	b.n	80058e6 <HAL_TIM_ConfigClockSource+0x5a>
 8005906:	2001      	movs	r0, #1
 8005908:	e7ed      	b.n	80058e6 <HAL_TIM_ConfigClockSource+0x5a>
 800590a:	2001      	movs	r0, #1
 800590c:	e7eb      	b.n	80058e6 <HAL_TIM_ConfigClockSource+0x5a>
 800590e:	2280      	movs	r2, #128	@ 0x80
 8005910:	0152      	lsls	r2, r2, #5
 8005912:	4291      	cmp	r1, r2
 8005914:	d036      	beq.n	8005984 <HAL_TIM_ConfigClockSource+0xf8>
 8005916:	2280      	movs	r2, #128	@ 0x80
 8005918:	0192      	lsls	r2, r2, #6
 800591a:	4291      	cmp	r1, r2
 800591c:	d10d      	bne.n	800593a <HAL_TIM_ConfigClockSource+0xae>
 800591e:	6881      	ldr	r1, [r0, #8]
 8005920:	6842      	ldr	r2, [r0, #4]
 8005922:	68c3      	ldr	r3, [r0, #12]
 8005924:	6820      	ldr	r0, [r4, #0]
 8005926:	f7ff ffa5 	bl	8005874 <TIM_ETR_SetConfig>
 800592a:	6822      	ldr	r2, [r4, #0]
 800592c:	6891      	ldr	r1, [r2, #8]
 800592e:	2380      	movs	r3, #128	@ 0x80
 8005930:	01db      	lsls	r3, r3, #7
 8005932:	430b      	orrs	r3, r1
 8005934:	6093      	str	r3, [r2, #8]
 8005936:	2000      	movs	r0, #0
 8005938:	e7d5      	b.n	80058e6 <HAL_TIM_ConfigClockSource+0x5a>
 800593a:	2970      	cmp	r1, #112	@ 0x70
 800593c:	d124      	bne.n	8005988 <HAL_TIM_ConfigClockSource+0xfc>
 800593e:	6881      	ldr	r1, [r0, #8]
 8005940:	6842      	ldr	r2, [r0, #4]
 8005942:	68c3      	ldr	r3, [r0, #12]
 8005944:	6820      	ldr	r0, [r4, #0]
 8005946:	f7ff ff95 	bl	8005874 <TIM_ETR_SetConfig>
 800594a:	6822      	ldr	r2, [r4, #0]
 800594c:	6893      	ldr	r3, [r2, #8]
 800594e:	2177      	movs	r1, #119	@ 0x77
 8005950:	430b      	orrs	r3, r1
 8005952:	6093      	str	r3, [r2, #8]
 8005954:	2000      	movs	r0, #0
 8005956:	e7c6      	b.n	80058e6 <HAL_TIM_ConfigClockSource+0x5a>
 8005958:	6841      	ldr	r1, [r0, #4]
 800595a:	68c2      	ldr	r2, [r0, #12]
 800595c:	6820      	ldr	r0, [r4, #0]
 800595e:	f7ff fc9f 	bl	80052a0 <TIM_TI2_ConfigInputStage>
 8005962:	6820      	ldr	r0, [r4, #0]
 8005964:	2160      	movs	r1, #96	@ 0x60
 8005966:	f7ff fcaf 	bl	80052c8 <TIM_ITRx_SetConfig>
 800596a:	2000      	movs	r0, #0
 800596c:	e7bb      	b.n	80058e6 <HAL_TIM_ConfigClockSource+0x5a>
 800596e:	6841      	ldr	r1, [r0, #4]
 8005970:	68c2      	ldr	r2, [r0, #12]
 8005972:	6820      	ldr	r0, [r4, #0]
 8005974:	f7ff fc82 	bl	800527c <TIM_TI1_ConfigInputStage>
 8005978:	6820      	ldr	r0, [r4, #0]
 800597a:	2140      	movs	r1, #64	@ 0x40
 800597c:	f7ff fca4 	bl	80052c8 <TIM_ITRx_SetConfig>
 8005980:	2000      	movs	r0, #0
 8005982:	e7b0      	b.n	80058e6 <HAL_TIM_ConfigClockSource+0x5a>
 8005984:	2000      	movs	r0, #0
 8005986:	e7ae      	b.n	80058e6 <HAL_TIM_ConfigClockSource+0x5a>
 8005988:	2001      	movs	r0, #1
 800598a:	e7ac      	b.n	80058e6 <HAL_TIM_ConfigClockSource+0x5a>
 800598c:	2002      	movs	r0, #2
 800598e:	e7b0      	b.n	80058f2 <HAL_TIM_ConfigClockSource+0x66>
 8005990:	ffce0088 	.word	0xffce0088

08005994 <TIM_CCxChannelCmd>:
 8005994:	b510      	push	{r4, lr}
 8005996:	231f      	movs	r3, #31
 8005998:	4019      	ands	r1, r3
 800599a:	2401      	movs	r4, #1
 800599c:	408c      	lsls	r4, r1
 800599e:	6a03      	ldr	r3, [r0, #32]
 80059a0:	43a3      	bics	r3, r4
 80059a2:	6203      	str	r3, [r0, #32]
 80059a4:	6a03      	ldr	r3, [r0, #32]
 80059a6:	408a      	lsls	r2, r1
 80059a8:	4313      	orrs	r3, r2
 80059aa:	6203      	str	r3, [r0, #32]
 80059ac:	bd10      	pop	{r4, pc}
	...

080059b0 <HAL_TIM_OC_Start>:
 80059b0:	b510      	push	{r4, lr}
 80059b2:	0004      	movs	r4, r0
 80059b4:	2910      	cmp	r1, #16
 80059b6:	d82d      	bhi.n	8005a14 <HAL_TIM_OC_Start+0x64>
 80059b8:	008b      	lsls	r3, r1, #2
 80059ba:	4a3f      	ldr	r2, [pc, #252]	@ (8005ab8 <HAL_TIM_OC_Start+0x108>)
 80059bc:	58d3      	ldr	r3, [r2, r3]
 80059be:	469f      	mov	pc, r3
 80059c0:	233e      	movs	r3, #62	@ 0x3e
 80059c2:	5cc3      	ldrb	r3, [r0, r3]
 80059c4:	3b01      	subs	r3, #1
 80059c6:	1e5a      	subs	r2, r3, #1
 80059c8:	4193      	sbcs	r3, r2
 80059ca:	b2db      	uxtb	r3, r3
 80059cc:	2b00      	cmp	r3, #0
 80059ce:	d16d      	bne.n	8005aac <HAL_TIM_OC_Start+0xfc>
 80059d0:	2910      	cmp	r1, #16
 80059d2:	d859      	bhi.n	8005a88 <HAL_TIM_OC_Start+0xd8>
 80059d4:	008b      	lsls	r3, r1, #2
 80059d6:	4a39      	ldr	r2, [pc, #228]	@ (8005abc <HAL_TIM_OC_Start+0x10c>)
 80059d8:	58d3      	ldr	r3, [r2, r3]
 80059da:	469f      	mov	pc, r3
 80059dc:	233f      	movs	r3, #63	@ 0x3f
 80059de:	5cc3      	ldrb	r3, [r0, r3]
 80059e0:	3b01      	subs	r3, #1
 80059e2:	1e5a      	subs	r2, r3, #1
 80059e4:	4193      	sbcs	r3, r2
 80059e6:	b2db      	uxtb	r3, r3
 80059e8:	e7f0      	b.n	80059cc <HAL_TIM_OC_Start+0x1c>
 80059ea:	2340      	movs	r3, #64	@ 0x40
 80059ec:	5cc3      	ldrb	r3, [r0, r3]
 80059ee:	3b01      	subs	r3, #1
 80059f0:	1e5a      	subs	r2, r3, #1
 80059f2:	4193      	sbcs	r3, r2
 80059f4:	b2db      	uxtb	r3, r3
 80059f6:	e7e9      	b.n	80059cc <HAL_TIM_OC_Start+0x1c>
 80059f8:	2341      	movs	r3, #65	@ 0x41
 80059fa:	5cc3      	ldrb	r3, [r0, r3]
 80059fc:	3b01      	subs	r3, #1
 80059fe:	1e5a      	subs	r2, r3, #1
 8005a00:	4193      	sbcs	r3, r2
 8005a02:	b2db      	uxtb	r3, r3
 8005a04:	e7e2      	b.n	80059cc <HAL_TIM_OC_Start+0x1c>
 8005a06:	2342      	movs	r3, #66	@ 0x42
 8005a08:	5cc3      	ldrb	r3, [r0, r3]
 8005a0a:	3b01      	subs	r3, #1
 8005a0c:	1e5a      	subs	r2, r3, #1
 8005a0e:	4193      	sbcs	r3, r2
 8005a10:	b2db      	uxtb	r3, r3
 8005a12:	e7db      	b.n	80059cc <HAL_TIM_OC_Start+0x1c>
 8005a14:	2343      	movs	r3, #67	@ 0x43
 8005a16:	5ce3      	ldrb	r3, [r4, r3]
 8005a18:	3b01      	subs	r3, #1
 8005a1a:	1e5a      	subs	r2, r3, #1
 8005a1c:	4193      	sbcs	r3, r2
 8005a1e:	b2db      	uxtb	r3, r3
 8005a20:	e7d4      	b.n	80059cc <HAL_TIM_OC_Start+0x1c>
 8005a22:	233e      	movs	r3, #62	@ 0x3e
 8005a24:	2202      	movs	r2, #2
 8005a26:	54e2      	strb	r2, [r4, r3]
 8005a28:	6820      	ldr	r0, [r4, #0]
 8005a2a:	2201      	movs	r2, #1
 8005a2c:	f7ff ffb2 	bl	8005994 <TIM_CCxChannelCmd>
 8005a30:	6823      	ldr	r3, [r4, #0]
 8005a32:	4a23      	ldr	r2, [pc, #140]	@ (8005ac0 <HAL_TIM_OC_Start+0x110>)
 8005a34:	4293      	cmp	r3, r2
 8005a36:	d005      	beq.n	8005a44 <HAL_TIM_OC_Start+0x94>
 8005a38:	4a22      	ldr	r2, [pc, #136]	@ (8005ac4 <HAL_TIM_OC_Start+0x114>)
 8005a3a:	4293      	cmp	r3, r2
 8005a3c:	d002      	beq.n	8005a44 <HAL_TIM_OC_Start+0x94>
 8005a3e:	4a22      	ldr	r2, [pc, #136]	@ (8005ac8 <HAL_TIM_OC_Start+0x118>)
 8005a40:	4293      	cmp	r3, r2
 8005a42:	d104      	bne.n	8005a4e <HAL_TIM_OC_Start+0x9e>
 8005a44:	6c59      	ldr	r1, [r3, #68]	@ 0x44
 8005a46:	2280      	movs	r2, #128	@ 0x80
 8005a48:	0212      	lsls	r2, r2, #8
 8005a4a:	430a      	orrs	r2, r1
 8005a4c:	645a      	str	r2, [r3, #68]	@ 0x44
 8005a4e:	6823      	ldr	r3, [r4, #0]
 8005a50:	4a1b      	ldr	r2, [pc, #108]	@ (8005ac0 <HAL_TIM_OC_Start+0x110>)
 8005a52:	4293      	cmp	r3, r2
 8005a54:	d01c      	beq.n	8005a90 <HAL_TIM_OC_Start+0xe0>
 8005a56:	4a1d      	ldr	r2, [pc, #116]	@ (8005acc <HAL_TIM_OC_Start+0x11c>)
 8005a58:	4293      	cmp	r3, r2
 8005a5a:	d019      	beq.n	8005a90 <HAL_TIM_OC_Start+0xe0>
 8005a5c:	681a      	ldr	r2, [r3, #0]
 8005a5e:	2101      	movs	r1, #1
 8005a60:	430a      	orrs	r2, r1
 8005a62:	601a      	str	r2, [r3, #0]
 8005a64:	2000      	movs	r0, #0
 8005a66:	e022      	b.n	8005aae <HAL_TIM_OC_Start+0xfe>
 8005a68:	233f      	movs	r3, #63	@ 0x3f
 8005a6a:	2202      	movs	r2, #2
 8005a6c:	54e2      	strb	r2, [r4, r3]
 8005a6e:	e7db      	b.n	8005a28 <HAL_TIM_OC_Start+0x78>
 8005a70:	2340      	movs	r3, #64	@ 0x40
 8005a72:	2202      	movs	r2, #2
 8005a74:	54e2      	strb	r2, [r4, r3]
 8005a76:	e7d7      	b.n	8005a28 <HAL_TIM_OC_Start+0x78>
 8005a78:	2341      	movs	r3, #65	@ 0x41
 8005a7a:	2202      	movs	r2, #2
 8005a7c:	54e2      	strb	r2, [r4, r3]
 8005a7e:	e7d3      	b.n	8005a28 <HAL_TIM_OC_Start+0x78>
 8005a80:	2342      	movs	r3, #66	@ 0x42
 8005a82:	2202      	movs	r2, #2
 8005a84:	54e2      	strb	r2, [r4, r3]
 8005a86:	e7cf      	b.n	8005a28 <HAL_TIM_OC_Start+0x78>
 8005a88:	2343      	movs	r3, #67	@ 0x43
 8005a8a:	2202      	movs	r2, #2
 8005a8c:	54e2      	strb	r2, [r4, r3]
 8005a8e:	e7cb      	b.n	8005a28 <HAL_TIM_OC_Start+0x78>
 8005a90:	689a      	ldr	r2, [r3, #8]
 8005a92:	490f      	ldr	r1, [pc, #60]	@ (8005ad0 <HAL_TIM_OC_Start+0x120>)
 8005a94:	400a      	ands	r2, r1
 8005a96:	2a06      	cmp	r2, #6
 8005a98:	d00a      	beq.n	8005ab0 <HAL_TIM_OC_Start+0x100>
 8005a9a:	3907      	subs	r1, #7
 8005a9c:	428a      	cmp	r2, r1
 8005a9e:	d009      	beq.n	8005ab4 <HAL_TIM_OC_Start+0x104>
 8005aa0:	681a      	ldr	r2, [r3, #0]
 8005aa2:	2101      	movs	r1, #1
 8005aa4:	430a      	orrs	r2, r1
 8005aa6:	601a      	str	r2, [r3, #0]
 8005aa8:	2000      	movs	r0, #0
 8005aaa:	e000      	b.n	8005aae <HAL_TIM_OC_Start+0xfe>
 8005aac:	2001      	movs	r0, #1
 8005aae:	bd10      	pop	{r4, pc}
 8005ab0:	2000      	movs	r0, #0
 8005ab2:	e7fc      	b.n	8005aae <HAL_TIM_OC_Start+0xfe>
 8005ab4:	2000      	movs	r0, #0
 8005ab6:	e7fa      	b.n	8005aae <HAL_TIM_OC_Start+0xfe>
 8005ab8:	08006348 	.word	0x08006348
 8005abc:	0800638c 	.word	0x0800638c
 8005ac0:	40012c00 	.word	0x40012c00
 8005ac4:	40014400 	.word	0x40014400
 8005ac8:	40014800 	.word	0x40014800
 8005acc:	40000400 	.word	0x40000400
 8005ad0:	00010007 	.word	0x00010007

08005ad4 <HAL_TIM_PWM_Start>:
 8005ad4:	b510      	push	{r4, lr}
 8005ad6:	0004      	movs	r4, r0
 8005ad8:	2910      	cmp	r1, #16
 8005ada:	d82d      	bhi.n	8005b38 <HAL_TIM_PWM_Start+0x64>
 8005adc:	008b      	lsls	r3, r1, #2
 8005ade:	4a3f      	ldr	r2, [pc, #252]	@ (8005bdc <HAL_TIM_PWM_Start+0x108>)
 8005ae0:	58d3      	ldr	r3, [r2, r3]
 8005ae2:	469f      	mov	pc, r3
 8005ae4:	233e      	movs	r3, #62	@ 0x3e
 8005ae6:	5cc3      	ldrb	r3, [r0, r3]
 8005ae8:	3b01      	subs	r3, #1
 8005aea:	1e5a      	subs	r2, r3, #1
 8005aec:	4193      	sbcs	r3, r2
 8005aee:	b2db      	uxtb	r3, r3
 8005af0:	2b00      	cmp	r3, #0
 8005af2:	d16d      	bne.n	8005bd0 <HAL_TIM_PWM_Start+0xfc>
 8005af4:	2910      	cmp	r1, #16
 8005af6:	d859      	bhi.n	8005bac <HAL_TIM_PWM_Start+0xd8>
 8005af8:	008b      	lsls	r3, r1, #2
 8005afa:	4a39      	ldr	r2, [pc, #228]	@ (8005be0 <HAL_TIM_PWM_Start+0x10c>)
 8005afc:	58d3      	ldr	r3, [r2, r3]
 8005afe:	469f      	mov	pc, r3
 8005b00:	233f      	movs	r3, #63	@ 0x3f
 8005b02:	5cc3      	ldrb	r3, [r0, r3]
 8005b04:	3b01      	subs	r3, #1
 8005b06:	1e5a      	subs	r2, r3, #1
 8005b08:	4193      	sbcs	r3, r2
 8005b0a:	b2db      	uxtb	r3, r3
 8005b0c:	e7f0      	b.n	8005af0 <HAL_TIM_PWM_Start+0x1c>
 8005b0e:	2340      	movs	r3, #64	@ 0x40
 8005b10:	5cc3      	ldrb	r3, [r0, r3]
 8005b12:	3b01      	subs	r3, #1
 8005b14:	1e5a      	subs	r2, r3, #1
 8005b16:	4193      	sbcs	r3, r2
 8005b18:	b2db      	uxtb	r3, r3
 8005b1a:	e7e9      	b.n	8005af0 <HAL_TIM_PWM_Start+0x1c>
 8005b1c:	2341      	movs	r3, #65	@ 0x41
 8005b1e:	5cc3      	ldrb	r3, [r0, r3]
 8005b20:	3b01      	subs	r3, #1
 8005b22:	1e5a      	subs	r2, r3, #1
 8005b24:	4193      	sbcs	r3, r2
 8005b26:	b2db      	uxtb	r3, r3
 8005b28:	e7e2      	b.n	8005af0 <HAL_TIM_PWM_Start+0x1c>
 8005b2a:	2342      	movs	r3, #66	@ 0x42
 8005b2c:	5cc3      	ldrb	r3, [r0, r3]
 8005b2e:	3b01      	subs	r3, #1
 8005b30:	1e5a      	subs	r2, r3, #1
 8005b32:	4193      	sbcs	r3, r2
 8005b34:	b2db      	uxtb	r3, r3
 8005b36:	e7db      	b.n	8005af0 <HAL_TIM_PWM_Start+0x1c>
 8005b38:	2343      	movs	r3, #67	@ 0x43
 8005b3a:	5ce3      	ldrb	r3, [r4, r3]
 8005b3c:	3b01      	subs	r3, #1
 8005b3e:	1e5a      	subs	r2, r3, #1
 8005b40:	4193      	sbcs	r3, r2
 8005b42:	b2db      	uxtb	r3, r3
 8005b44:	e7d4      	b.n	8005af0 <HAL_TIM_PWM_Start+0x1c>
 8005b46:	233e      	movs	r3, #62	@ 0x3e
 8005b48:	2202      	movs	r2, #2
 8005b4a:	54e2      	strb	r2, [r4, r3]
 8005b4c:	6820      	ldr	r0, [r4, #0]
 8005b4e:	2201      	movs	r2, #1
 8005b50:	f7ff ff20 	bl	8005994 <TIM_CCxChannelCmd>
 8005b54:	6823      	ldr	r3, [r4, #0]
 8005b56:	4a23      	ldr	r2, [pc, #140]	@ (8005be4 <HAL_TIM_PWM_Start+0x110>)
 8005b58:	4293      	cmp	r3, r2
 8005b5a:	d005      	beq.n	8005b68 <HAL_TIM_PWM_Start+0x94>
 8005b5c:	4a22      	ldr	r2, [pc, #136]	@ (8005be8 <HAL_TIM_PWM_Start+0x114>)
 8005b5e:	4293      	cmp	r3, r2
 8005b60:	d002      	beq.n	8005b68 <HAL_TIM_PWM_Start+0x94>
 8005b62:	4a22      	ldr	r2, [pc, #136]	@ (8005bec <HAL_TIM_PWM_Start+0x118>)
 8005b64:	4293      	cmp	r3, r2
 8005b66:	d104      	bne.n	8005b72 <HAL_TIM_PWM_Start+0x9e>
 8005b68:	6c59      	ldr	r1, [r3, #68]	@ 0x44
 8005b6a:	2280      	movs	r2, #128	@ 0x80
 8005b6c:	0212      	lsls	r2, r2, #8
 8005b6e:	430a      	orrs	r2, r1
 8005b70:	645a      	str	r2, [r3, #68]	@ 0x44
 8005b72:	6823      	ldr	r3, [r4, #0]
 8005b74:	4a1b      	ldr	r2, [pc, #108]	@ (8005be4 <HAL_TIM_PWM_Start+0x110>)
 8005b76:	4293      	cmp	r3, r2
 8005b78:	d01c      	beq.n	8005bb4 <HAL_TIM_PWM_Start+0xe0>
 8005b7a:	4a1d      	ldr	r2, [pc, #116]	@ (8005bf0 <HAL_TIM_PWM_Start+0x11c>)
 8005b7c:	4293      	cmp	r3, r2
 8005b7e:	d019      	beq.n	8005bb4 <HAL_TIM_PWM_Start+0xe0>
 8005b80:	681a      	ldr	r2, [r3, #0]
 8005b82:	2101      	movs	r1, #1
 8005b84:	430a      	orrs	r2, r1
 8005b86:	601a      	str	r2, [r3, #0]
 8005b88:	2000      	movs	r0, #0
 8005b8a:	e022      	b.n	8005bd2 <HAL_TIM_PWM_Start+0xfe>
 8005b8c:	233f      	movs	r3, #63	@ 0x3f
 8005b8e:	2202      	movs	r2, #2
 8005b90:	54e2      	strb	r2, [r4, r3]
 8005b92:	e7db      	b.n	8005b4c <HAL_TIM_PWM_Start+0x78>
 8005b94:	2340      	movs	r3, #64	@ 0x40
 8005b96:	2202      	movs	r2, #2
 8005b98:	54e2      	strb	r2, [r4, r3]
 8005b9a:	e7d7      	b.n	8005b4c <HAL_TIM_PWM_Start+0x78>
 8005b9c:	2341      	movs	r3, #65	@ 0x41
 8005b9e:	2202      	movs	r2, #2
 8005ba0:	54e2      	strb	r2, [r4, r3]
 8005ba2:	e7d3      	b.n	8005b4c <HAL_TIM_PWM_Start+0x78>
 8005ba4:	2342      	movs	r3, #66	@ 0x42
 8005ba6:	2202      	movs	r2, #2
 8005ba8:	54e2      	strb	r2, [r4, r3]
 8005baa:	e7cf      	b.n	8005b4c <HAL_TIM_PWM_Start+0x78>
 8005bac:	2343      	movs	r3, #67	@ 0x43
 8005bae:	2202      	movs	r2, #2
 8005bb0:	54e2      	strb	r2, [r4, r3]
 8005bb2:	e7cb      	b.n	8005b4c <HAL_TIM_PWM_Start+0x78>
 8005bb4:	689a      	ldr	r2, [r3, #8]
 8005bb6:	490f      	ldr	r1, [pc, #60]	@ (8005bf4 <HAL_TIM_PWM_Start+0x120>)
 8005bb8:	400a      	ands	r2, r1
 8005bba:	2a06      	cmp	r2, #6
 8005bbc:	d00a      	beq.n	8005bd4 <HAL_TIM_PWM_Start+0x100>
 8005bbe:	3907      	subs	r1, #7
 8005bc0:	428a      	cmp	r2, r1
 8005bc2:	d009      	beq.n	8005bd8 <HAL_TIM_PWM_Start+0x104>
 8005bc4:	681a      	ldr	r2, [r3, #0]
 8005bc6:	2101      	movs	r1, #1
 8005bc8:	430a      	orrs	r2, r1
 8005bca:	601a      	str	r2, [r3, #0]
 8005bcc:	2000      	movs	r0, #0
 8005bce:	e000      	b.n	8005bd2 <HAL_TIM_PWM_Start+0xfe>
 8005bd0:	2001      	movs	r0, #1
 8005bd2:	bd10      	pop	{r4, pc}
 8005bd4:	2000      	movs	r0, #0
 8005bd6:	e7fc      	b.n	8005bd2 <HAL_TIM_PWM_Start+0xfe>
 8005bd8:	2000      	movs	r0, #0
 8005bda:	e7fa      	b.n	8005bd2 <HAL_TIM_PWM_Start+0xfe>
 8005bdc:	080063d0 	.word	0x080063d0
 8005be0:	08006414 	.word	0x08006414
 8005be4:	40012c00 	.word	0x40012c00
 8005be8:	40014400 	.word	0x40014400
 8005bec:	40014800 	.word	0x40014800
 8005bf0:	40000400 	.word	0x40000400
 8005bf4:	00010007 	.word	0x00010007

08005bf8 <HAL_TIMEx_MasterConfigSynchronization>:
 8005bf8:	b530      	push	{r4, r5, lr}
 8005bfa:	233c      	movs	r3, #60	@ 0x3c
 8005bfc:	5cc3      	ldrb	r3, [r0, r3]
 8005bfe:	2b01      	cmp	r3, #1
 8005c00:	d029      	beq.n	8005c56 <HAL_TIMEx_MasterConfigSynchronization+0x5e>
 8005c02:	233c      	movs	r3, #60	@ 0x3c
 8005c04:	2201      	movs	r2, #1
 8005c06:	54c2      	strb	r2, [r0, r3]
 8005c08:	3301      	adds	r3, #1
 8005c0a:	3201      	adds	r2, #1
 8005c0c:	54c2      	strb	r2, [r0, r3]
 8005c0e:	6802      	ldr	r2, [r0, #0]
 8005c10:	6853      	ldr	r3, [r2, #4]
 8005c12:	6895      	ldr	r5, [r2, #8]
 8005c14:	4c11      	ldr	r4, [pc, #68]	@ (8005c5c <HAL_TIMEx_MasterConfigSynchronization+0x64>)
 8005c16:	42a2      	cmp	r2, r4
 8005c18:	d018      	beq.n	8005c4c <HAL_TIMEx_MasterConfigSynchronization+0x54>
 8005c1a:	2470      	movs	r4, #112	@ 0x70
 8005c1c:	43a3      	bics	r3, r4
 8005c1e:	680c      	ldr	r4, [r1, #0]
 8005c20:	4323      	orrs	r3, r4
 8005c22:	6053      	str	r3, [r2, #4]
 8005c24:	6803      	ldr	r3, [r0, #0]
 8005c26:	4a0d      	ldr	r2, [pc, #52]	@ (8005c5c <HAL_TIMEx_MasterConfigSynchronization+0x64>)
 8005c28:	4293      	cmp	r3, r2
 8005c2a:	d002      	beq.n	8005c32 <HAL_TIMEx_MasterConfigSynchronization+0x3a>
 8005c2c:	4a0c      	ldr	r2, [pc, #48]	@ (8005c60 <HAL_TIMEx_MasterConfigSynchronization+0x68>)
 8005c2e:	4293      	cmp	r3, r2
 8005c30:	d104      	bne.n	8005c3c <HAL_TIMEx_MasterConfigSynchronization+0x44>
 8005c32:	2280      	movs	r2, #128	@ 0x80
 8005c34:	4395      	bics	r5, r2
 8005c36:	688a      	ldr	r2, [r1, #8]
 8005c38:	432a      	orrs	r2, r5
 8005c3a:	609a      	str	r2, [r3, #8]
 8005c3c:	233d      	movs	r3, #61	@ 0x3d
 8005c3e:	2201      	movs	r2, #1
 8005c40:	54c2      	strb	r2, [r0, r3]
 8005c42:	3b01      	subs	r3, #1
 8005c44:	2200      	movs	r2, #0
 8005c46:	54c2      	strb	r2, [r0, r3]
 8005c48:	2000      	movs	r0, #0
 8005c4a:	bd30      	pop	{r4, r5, pc}
 8005c4c:	4c05      	ldr	r4, [pc, #20]	@ (8005c64 <HAL_TIMEx_MasterConfigSynchronization+0x6c>)
 8005c4e:	4023      	ands	r3, r4
 8005c50:	684c      	ldr	r4, [r1, #4]
 8005c52:	4323      	orrs	r3, r4
 8005c54:	e7e1      	b.n	8005c1a <HAL_TIMEx_MasterConfigSynchronization+0x22>
 8005c56:	2002      	movs	r0, #2
 8005c58:	e7f7      	b.n	8005c4a <HAL_TIMEx_MasterConfigSynchronization+0x52>
 8005c5a:	46c0      	nop			@ (mov r8, r8)
 8005c5c:	40012c00 	.word	0x40012c00
 8005c60:	40000400 	.word	0x40000400
 8005c64:	ff0fffff 	.word	0xff0fffff

08005c68 <HAL_TIMEx_ConfigBreakDeadTime>:
 8005c68:	b510      	push	{r4, lr}
 8005c6a:	233c      	movs	r3, #60	@ 0x3c
 8005c6c:	5cc3      	ldrb	r3, [r0, r3]
 8005c6e:	2b01      	cmp	r3, #1
 8005c70:	d044      	beq.n	8005cfc <HAL_TIMEx_ConfigBreakDeadTime+0x94>
 8005c72:	233c      	movs	r3, #60	@ 0x3c
 8005c74:	2201      	movs	r2, #1
 8005c76:	54c2      	strb	r2, [r0, r3]
 8005c78:	68cb      	ldr	r3, [r1, #12]
 8005c7a:	4a21      	ldr	r2, [pc, #132]	@ (8005d00 <HAL_TIMEx_ConfigBreakDeadTime+0x98>)
 8005c7c:	4013      	ands	r3, r2
 8005c7e:	688a      	ldr	r2, [r1, #8]
 8005c80:	4313      	orrs	r3, r2
 8005c82:	4a20      	ldr	r2, [pc, #128]	@ (8005d04 <HAL_TIMEx_ConfigBreakDeadTime+0x9c>)
 8005c84:	4013      	ands	r3, r2
 8005c86:	684a      	ldr	r2, [r1, #4]
 8005c88:	4313      	orrs	r3, r2
 8005c8a:	4a1f      	ldr	r2, [pc, #124]	@ (8005d08 <HAL_TIMEx_ConfigBreakDeadTime+0xa0>)
 8005c8c:	4013      	ands	r3, r2
 8005c8e:	680a      	ldr	r2, [r1, #0]
 8005c90:	4313      	orrs	r3, r2
 8005c92:	4a1e      	ldr	r2, [pc, #120]	@ (8005d0c <HAL_TIMEx_ConfigBreakDeadTime+0xa4>)
 8005c94:	4013      	ands	r3, r2
 8005c96:	690a      	ldr	r2, [r1, #16]
 8005c98:	4313      	orrs	r3, r2
 8005c9a:	4a1d      	ldr	r2, [pc, #116]	@ (8005d10 <HAL_TIMEx_ConfigBreakDeadTime+0xa8>)
 8005c9c:	4013      	ands	r3, r2
 8005c9e:	694a      	ldr	r2, [r1, #20]
 8005ca0:	4313      	orrs	r3, r2
 8005ca2:	4a1c      	ldr	r2, [pc, #112]	@ (8005d14 <HAL_TIMEx_ConfigBreakDeadTime+0xac>)
 8005ca4:	4013      	ands	r3, r2
 8005ca6:	6b0a      	ldr	r2, [r1, #48]	@ 0x30
 8005ca8:	4313      	orrs	r3, r2
 8005caa:	4a1b      	ldr	r2, [pc, #108]	@ (8005d18 <HAL_TIMEx_ConfigBreakDeadTime+0xb0>)
 8005cac:	4013      	ands	r3, r2
 8005cae:	698a      	ldr	r2, [r1, #24]
 8005cb0:	0412      	lsls	r2, r2, #16
 8005cb2:	4313      	orrs	r3, r2
 8005cb4:	6802      	ldr	r2, [r0, #0]
 8005cb6:	4c19      	ldr	r4, [pc, #100]	@ (8005d1c <HAL_TIMEx_ConfigBreakDeadTime+0xb4>)
 8005cb8:	42a2      	cmp	r2, r4
 8005cba:	d008      	beq.n	8005cce <HAL_TIMEx_ConfigBreakDeadTime+0x66>
 8005cbc:	4c17      	ldr	r4, [pc, #92]	@ (8005d1c <HAL_TIMEx_ConfigBreakDeadTime+0xb4>)
 8005cbe:	42a2      	cmp	r2, r4
 8005cc0:	d00a      	beq.n	8005cd8 <HAL_TIMEx_ConfigBreakDeadTime+0x70>
 8005cc2:	6453      	str	r3, [r2, #68]	@ 0x44
 8005cc4:	233c      	movs	r3, #60	@ 0x3c
 8005cc6:	2200      	movs	r2, #0
 8005cc8:	54c2      	strb	r2, [r0, r3]
 8005cca:	2000      	movs	r0, #0
 8005ccc:	bd10      	pop	{r4, pc}
 8005cce:	4c14      	ldr	r4, [pc, #80]	@ (8005d20 <HAL_TIMEx_ConfigBreakDeadTime+0xb8>)
 8005cd0:	4023      	ands	r3, r4
 8005cd2:	69cc      	ldr	r4, [r1, #28]
 8005cd4:	4323      	orrs	r3, r4
 8005cd6:	e7f1      	b.n	8005cbc <HAL_TIMEx_ConfigBreakDeadTime+0x54>
 8005cd8:	4c12      	ldr	r4, [pc, #72]	@ (8005d24 <HAL_TIMEx_ConfigBreakDeadTime+0xbc>)
 8005cda:	4023      	ands	r3, r4
 8005cdc:	6a8c      	ldr	r4, [r1, #40]	@ 0x28
 8005cde:	0524      	lsls	r4, r4, #20
 8005ce0:	4323      	orrs	r3, r4
 8005ce2:	4c11      	ldr	r4, [pc, #68]	@ (8005d28 <HAL_TIMEx_ConfigBreakDeadTime+0xc0>)
 8005ce4:	4023      	ands	r3, r4
 8005ce6:	6a0c      	ldr	r4, [r1, #32]
 8005ce8:	4323      	orrs	r3, r4
 8005cea:	4c10      	ldr	r4, [pc, #64]	@ (8005d2c <HAL_TIMEx_ConfigBreakDeadTime+0xc4>)
 8005cec:	4023      	ands	r3, r4
 8005cee:	6a4c      	ldr	r4, [r1, #36]	@ 0x24
 8005cf0:	4323      	orrs	r3, r4
 8005cf2:	4c0f      	ldr	r4, [pc, #60]	@ (8005d30 <HAL_TIMEx_ConfigBreakDeadTime+0xc8>)
 8005cf4:	4023      	ands	r3, r4
 8005cf6:	6ac9      	ldr	r1, [r1, #44]	@ 0x2c
 8005cf8:	430b      	orrs	r3, r1
 8005cfa:	e7e2      	b.n	8005cc2 <HAL_TIMEx_ConfigBreakDeadTime+0x5a>
 8005cfc:	2002      	movs	r0, #2
 8005cfe:	e7e5      	b.n	8005ccc <HAL_TIMEx_ConfigBreakDeadTime+0x64>
 8005d00:	fffffcff 	.word	0xfffffcff
 8005d04:	fffffbff 	.word	0xfffffbff
 8005d08:	fffff7ff 	.word	0xfffff7ff
 8005d0c:	ffffefff 	.word	0xffffefff
 8005d10:	ffffdfff 	.word	0xffffdfff
 8005d14:	ffffbfff 	.word	0xffffbfff
 8005d18:	fff0ffff 	.word	0xfff0ffff
 8005d1c:	40012c00 	.word	0x40012c00
 8005d20:	efffffff 	.word	0xefffffff
 8005d24:	ff0fffff 	.word	0xff0fffff
 8005d28:	feffffff 	.word	0xfeffffff
 8005d2c:	fdffffff 	.word	0xfdffffff
 8005d30:	dfffffff 	.word	0xdfffffff

08005d34 <HAL_TIMEx_CommutCallback>:
 8005d34:	4770      	bx	lr

08005d36 <HAL_TIMEx_BreakCallback>:
 8005d36:	4770      	bx	lr

08005d38 <HAL_TIMEx_Break2Callback>:
 8005d38:	4770      	bx	lr

08005d3a <memset>:
 8005d3a:	0003      	movs	r3, r0
 8005d3c:	1882      	adds	r2, r0, r2
 8005d3e:	4293      	cmp	r3, r2
 8005d40:	d100      	bne.n	8005d44 <memset+0xa>
 8005d42:	4770      	bx	lr
 8005d44:	7019      	strb	r1, [r3, #0]
 8005d46:	3301      	adds	r3, #1
 8005d48:	e7f9      	b.n	8005d3e <memset+0x4>
	...

08005d4c <__errno>:
 8005d4c:	4b01      	ldr	r3, [pc, #4]	@ (8005d54 <__errno+0x8>)
 8005d4e:	6818      	ldr	r0, [r3, #0]
 8005d50:	4770      	bx	lr
 8005d52:	46c0      	nop			@ (mov r8, r8)
 8005d54:	20000010 	.word	0x20000010

08005d58 <__libc_init_array>:
 8005d58:	b570      	push	{r4, r5, r6, lr}
 8005d5a:	2600      	movs	r6, #0
 8005d5c:	4c0c      	ldr	r4, [pc, #48]	@ (8005d90 <__libc_init_array+0x38>)
 8005d5e:	4d0d      	ldr	r5, [pc, #52]	@ (8005d94 <__libc_init_array+0x3c>)
 8005d60:	1b64      	subs	r4, r4, r5
 8005d62:	10a4      	asrs	r4, r4, #2
 8005d64:	42a6      	cmp	r6, r4
 8005d66:	d109      	bne.n	8005d7c <__libc_init_array+0x24>
 8005d68:	2600      	movs	r6, #0
 8005d6a:	f000 fa07 	bl	800617c <_init>
 8005d6e:	4c0a      	ldr	r4, [pc, #40]	@ (8005d98 <__libc_init_array+0x40>)
 8005d70:	4d0a      	ldr	r5, [pc, #40]	@ (8005d9c <__libc_init_array+0x44>)
 8005d72:	1b64      	subs	r4, r4, r5
 8005d74:	10a4      	asrs	r4, r4, #2
 8005d76:	42a6      	cmp	r6, r4
 8005d78:	d105      	bne.n	8005d86 <__libc_init_array+0x2e>
 8005d7a:	bd70      	pop	{r4, r5, r6, pc}
 8005d7c:	00b3      	lsls	r3, r6, #2
 8005d7e:	58eb      	ldr	r3, [r5, r3]
 8005d80:	4798      	blx	r3
 8005d82:	3601      	adds	r6, #1
 8005d84:	e7ee      	b.n	8005d64 <__libc_init_array+0xc>
 8005d86:	00b3      	lsls	r3, r6, #2
 8005d88:	58eb      	ldr	r3, [r5, r3]
 8005d8a:	4798      	blx	r3
 8005d8c:	3601      	adds	r6, #1
 8005d8e:	e7f2      	b.n	8005d76 <__libc_init_array+0x1e>
 8005d90:	0800645c 	.word	0x0800645c
 8005d94:	0800645c 	.word	0x0800645c
 8005d98:	08006460 	.word	0x08006460
 8005d9c:	0800645c 	.word	0x0800645c

08005da0 <log>:
 8005da0:	b5f8      	push	{r3, r4, r5, r6, r7, lr}
 8005da2:	0004      	movs	r4, r0
 8005da4:	000d      	movs	r5, r1
 8005da6:	f000 f837 	bl	8005e18 <__ieee754_log>
 8005daa:	0022      	movs	r2, r4
 8005dac:	0006      	movs	r6, r0
 8005dae:	000f      	movs	r7, r1
 8005db0:	002b      	movs	r3, r5
 8005db2:	0020      	movs	r0, r4
 8005db4:	0029      	movs	r1, r5
 8005db6:	f7fc ffed 	bl	8002d94 <__aeabi_dcmpun>
 8005dba:	2800      	cmp	r0, #0
 8005dbc:	d115      	bne.n	8005dea <log+0x4a>
 8005dbe:	2200      	movs	r2, #0
 8005dc0:	2300      	movs	r3, #0
 8005dc2:	0020      	movs	r0, r4
 8005dc4:	0029      	movs	r1, r5
 8005dc6:	f7fa fa55 	bl	8000274 <__aeabi_dcmpgt>
 8005dca:	2800      	cmp	r0, #0
 8005dcc:	d10d      	bne.n	8005dea <log+0x4a>
 8005dce:	2200      	movs	r2, #0
 8005dd0:	2300      	movs	r3, #0
 8005dd2:	0020      	movs	r0, r4
 8005dd4:	0029      	movs	r1, r5
 8005dd6:	f7fa fa33 	bl	8000240 <__aeabi_dcmpeq>
 8005dda:	2800      	cmp	r0, #0
 8005ddc:	d008      	beq.n	8005df0 <log+0x50>
 8005dde:	f7ff ffb5 	bl	8005d4c <__errno>
 8005de2:	2322      	movs	r3, #34	@ 0x22
 8005de4:	2600      	movs	r6, #0
 8005de6:	4f07      	ldr	r7, [pc, #28]	@ (8005e04 <log+0x64>)
 8005de8:	6003      	str	r3, [r0, #0]
 8005dea:	0030      	movs	r0, r6
 8005dec:	0039      	movs	r1, r7
 8005dee:	bdf8      	pop	{r3, r4, r5, r6, r7, pc}
 8005df0:	f7ff ffac 	bl	8005d4c <__errno>
 8005df4:	2321      	movs	r3, #33	@ 0x21
 8005df6:	6003      	str	r3, [r0, #0]
 8005df8:	4803      	ldr	r0, [pc, #12]	@ (8005e08 <log+0x68>)
 8005dfa:	f000 f807 	bl	8005e0c <nan>
 8005dfe:	0006      	movs	r6, r0
 8005e00:	000f      	movs	r7, r1
 8005e02:	e7f2      	b.n	8005dea <log+0x4a>
 8005e04:	fff00000 	.word	0xfff00000
 8005e08:	08006458 	.word	0x08006458

08005e0c <nan>:
 8005e0c:	2000      	movs	r0, #0
 8005e0e:	4901      	ldr	r1, [pc, #4]	@ (8005e14 <nan+0x8>)
 8005e10:	4770      	bx	lr
 8005e12:	46c0      	nop			@ (mov r8, r8)
 8005e14:	7ff80000 	.word	0x7ff80000

08005e18 <__ieee754_log>:
 8005e18:	2380      	movs	r3, #128	@ 0x80
 8005e1a:	b5f0      	push	{r4, r5, r6, r7, lr}
 8005e1c:	035b      	lsls	r3, r3, #13
 8005e1e:	000e      	movs	r6, r1
 8005e20:	b08d      	sub	sp, #52	@ 0x34
 8005e22:	4299      	cmp	r1, r3
 8005e24:	da23      	bge.n	8005e6e <__ieee754_log+0x56>
 8005e26:	004b      	lsls	r3, r1, #1
 8005e28:	085b      	lsrs	r3, r3, #1
 8005e2a:	4303      	orrs	r3, r0
 8005e2c:	d107      	bne.n	8005e3e <__ieee754_log+0x26>
 8005e2e:	2200      	movs	r2, #0
 8005e30:	2300      	movs	r3, #0
 8005e32:	2000      	movs	r0, #0
 8005e34:	49b4      	ldr	r1, [pc, #720]	@ (8006108 <__ieee754_log+0x2f0>)
 8005e36:	f7fb fd05 	bl	8001844 <__aeabi_ddiv>
 8005e3a:	b00d      	add	sp, #52	@ 0x34
 8005e3c:	bdf0      	pop	{r4, r5, r6, r7, pc}
 8005e3e:	2900      	cmp	r1, #0
 8005e40:	da06      	bge.n	8005e50 <__ieee754_log+0x38>
 8005e42:	0002      	movs	r2, r0
 8005e44:	000b      	movs	r3, r1
 8005e46:	f7fc fc09 	bl	800265c <__aeabi_dsub>
 8005e4a:	2200      	movs	r2, #0
 8005e4c:	2300      	movs	r3, #0
 8005e4e:	e7f2      	b.n	8005e36 <__ieee754_log+0x1e>
 8005e50:	4bae      	ldr	r3, [pc, #696]	@ (800610c <__ieee754_log+0x2f4>)
 8005e52:	2200      	movs	r2, #0
 8005e54:	f7fc f93a 	bl	80020cc <__aeabi_dmul>
 8005e58:	2336      	movs	r3, #54	@ 0x36
 8005e5a:	000e      	movs	r6, r1
 8005e5c:	425b      	negs	r3, r3
 8005e5e:	4aac      	ldr	r2, [pc, #688]	@ (8006110 <__ieee754_log+0x2f8>)
 8005e60:	4296      	cmp	r6, r2
 8005e62:	dd06      	ble.n	8005e72 <__ieee754_log+0x5a>
 8005e64:	0002      	movs	r2, r0
 8005e66:	000b      	movs	r3, r1
 8005e68:	f7fb f988 	bl	800117c <__aeabi_dadd>
 8005e6c:	e7e5      	b.n	8005e3a <__ieee754_log+0x22>
 8005e6e:	2300      	movs	r3, #0
 8005e70:	e7f5      	b.n	8005e5e <__ieee754_log+0x46>
 8005e72:	4ca8      	ldr	r4, [pc, #672]	@ (8006114 <__ieee754_log+0x2fc>)
 8005e74:	1532      	asrs	r2, r6, #20
 8005e76:	1912      	adds	r2, r2, r4
 8005e78:	0336      	lsls	r6, r6, #12
 8005e7a:	4ca7      	ldr	r4, [pc, #668]	@ (8006118 <__ieee754_log+0x300>)
 8005e7c:	18d2      	adds	r2, r2, r3
 8005e7e:	0b33      	lsrs	r3, r6, #12
 8005e80:	9302      	str	r3, [sp, #8]
 8005e82:	191b      	adds	r3, r3, r4
 8005e84:	2480      	movs	r4, #128	@ 0x80
 8005e86:	0364      	lsls	r4, r4, #13
 8005e88:	4023      	ands	r3, r4
 8005e8a:	4ca4      	ldr	r4, [pc, #656]	@ (800611c <__ieee754_log+0x304>)
 8005e8c:	9d02      	ldr	r5, [sp, #8]
 8005e8e:	405c      	eors	r4, r3
 8005e90:	151b      	asrs	r3, r3, #20
 8005e92:	189b      	adds	r3, r3, r2
 8005e94:	4325      	orrs	r5, r4
 8005e96:	2200      	movs	r2, #0
 8005e98:	9300      	str	r3, [sp, #0]
 8005e9a:	0029      	movs	r1, r5
 8005e9c:	4b9f      	ldr	r3, [pc, #636]	@ (800611c <__ieee754_log+0x304>)
 8005e9e:	f7fc fbdd 	bl	800265c <__aeabi_dsub>
 8005ea2:	9b02      	ldr	r3, [sp, #8]
 8005ea4:	0006      	movs	r6, r0
 8005ea6:	3302      	adds	r3, #2
 8005ea8:	031b      	lsls	r3, r3, #12
 8005eaa:	000f      	movs	r7, r1
 8005eac:	2200      	movs	r2, #0
 8005eae:	0b1b      	lsrs	r3, r3, #12
 8005eb0:	2b02      	cmp	r3, #2
 8005eb2:	dc64      	bgt.n	8005f7e <__ieee754_log+0x166>
 8005eb4:	2300      	movs	r3, #0
 8005eb6:	f7fa f9c3 	bl	8000240 <__aeabi_dcmpeq>
 8005eba:	2800      	cmp	r0, #0
 8005ebc:	d019      	beq.n	8005ef2 <__ieee754_log+0xda>
 8005ebe:	9b00      	ldr	r3, [sp, #0]
 8005ec0:	2b00      	cmp	r3, #0
 8005ec2:	d100      	bne.n	8005ec6 <__ieee754_log+0xae>
 8005ec4:	e11c      	b.n	8006100 <__ieee754_log+0x2e8>
 8005ec6:	0018      	movs	r0, r3
 8005ec8:	f7fc ffc2 	bl	8002e50 <__aeabi_i2d>
 8005ecc:	4a94      	ldr	r2, [pc, #592]	@ (8006120 <__ieee754_log+0x308>)
 8005ece:	4b95      	ldr	r3, [pc, #596]	@ (8006124 <__ieee754_log+0x30c>)
 8005ed0:	0004      	movs	r4, r0
 8005ed2:	000d      	movs	r5, r1
 8005ed4:	f7fc f8fa 	bl	80020cc <__aeabi_dmul>
 8005ed8:	4a93      	ldr	r2, [pc, #588]	@ (8006128 <__ieee754_log+0x310>)
 8005eda:	0006      	movs	r6, r0
 8005edc:	000f      	movs	r7, r1
 8005ede:	4b93      	ldr	r3, [pc, #588]	@ (800612c <__ieee754_log+0x314>)
 8005ee0:	0020      	movs	r0, r4
 8005ee2:	0029      	movs	r1, r5
 8005ee4:	f7fc f8f2 	bl	80020cc <__aeabi_dmul>
 8005ee8:	0002      	movs	r2, r0
 8005eea:	000b      	movs	r3, r1
 8005eec:	0030      	movs	r0, r6
 8005eee:	0039      	movs	r1, r7
 8005ef0:	e7ba      	b.n	8005e68 <__ieee754_log+0x50>
 8005ef2:	4a8f      	ldr	r2, [pc, #572]	@ (8006130 <__ieee754_log+0x318>)
 8005ef4:	4b8f      	ldr	r3, [pc, #572]	@ (8006134 <__ieee754_log+0x31c>)
 8005ef6:	0030      	movs	r0, r6
 8005ef8:	0039      	movs	r1, r7
 8005efa:	f7fc f8e7 	bl	80020cc <__aeabi_dmul>
 8005efe:	0002      	movs	r2, r0
 8005f00:	000b      	movs	r3, r1
 8005f02:	2000      	movs	r0, #0
 8005f04:	498c      	ldr	r1, [pc, #560]	@ (8006138 <__ieee754_log+0x320>)
 8005f06:	f7fc fba9 	bl	800265c <__aeabi_dsub>
 8005f0a:	0032      	movs	r2, r6
 8005f0c:	0004      	movs	r4, r0
 8005f0e:	000d      	movs	r5, r1
 8005f10:	003b      	movs	r3, r7
 8005f12:	0030      	movs	r0, r6
 8005f14:	0039      	movs	r1, r7
 8005f16:	f7fc f8d9 	bl	80020cc <__aeabi_dmul>
 8005f1a:	000b      	movs	r3, r1
 8005f1c:	0002      	movs	r2, r0
 8005f1e:	0029      	movs	r1, r5
 8005f20:	0020      	movs	r0, r4
 8005f22:	f7fc f8d3 	bl	80020cc <__aeabi_dmul>
 8005f26:	9b00      	ldr	r3, [sp, #0]
 8005f28:	9002      	str	r0, [sp, #8]
 8005f2a:	9103      	str	r1, [sp, #12]
 8005f2c:	2b00      	cmp	r3, #0
 8005f2e:	d106      	bne.n	8005f3e <__ieee754_log+0x126>
 8005f30:	0002      	movs	r2, r0
 8005f32:	000b      	movs	r3, r1
 8005f34:	0030      	movs	r0, r6
 8005f36:	0039      	movs	r1, r7
 8005f38:	f7fc fb90 	bl	800265c <__aeabi_dsub>
 8005f3c:	e77d      	b.n	8005e3a <__ieee754_log+0x22>
 8005f3e:	9800      	ldr	r0, [sp, #0]
 8005f40:	f7fc ff86 	bl	8002e50 <__aeabi_i2d>
 8005f44:	4a76      	ldr	r2, [pc, #472]	@ (8006120 <__ieee754_log+0x308>)
 8005f46:	4b77      	ldr	r3, [pc, #476]	@ (8006124 <__ieee754_log+0x30c>)
 8005f48:	0004      	movs	r4, r0
 8005f4a:	000d      	movs	r5, r1
 8005f4c:	f7fc f8be 	bl	80020cc <__aeabi_dmul>
 8005f50:	4a75      	ldr	r2, [pc, #468]	@ (8006128 <__ieee754_log+0x310>)
 8005f52:	9000      	str	r0, [sp, #0]
 8005f54:	9101      	str	r1, [sp, #4]
 8005f56:	4b75      	ldr	r3, [pc, #468]	@ (800612c <__ieee754_log+0x314>)
 8005f58:	0020      	movs	r0, r4
 8005f5a:	0029      	movs	r1, r5
 8005f5c:	f7fc f8b6 	bl	80020cc <__aeabi_dmul>
 8005f60:	0002      	movs	r2, r0
 8005f62:	000b      	movs	r3, r1
 8005f64:	9802      	ldr	r0, [sp, #8]
 8005f66:	9903      	ldr	r1, [sp, #12]
 8005f68:	f7fc fb78 	bl	800265c <__aeabi_dsub>
 8005f6c:	0032      	movs	r2, r6
 8005f6e:	003b      	movs	r3, r7
 8005f70:	f7fc fb74 	bl	800265c <__aeabi_dsub>
 8005f74:	0002      	movs	r2, r0
 8005f76:	000b      	movs	r3, r1
 8005f78:	9800      	ldr	r0, [sp, #0]
 8005f7a:	9901      	ldr	r1, [sp, #4]
 8005f7c:	e7dc      	b.n	8005f38 <__ieee754_log+0x120>
 8005f7e:	2380      	movs	r3, #128	@ 0x80
 8005f80:	05db      	lsls	r3, r3, #23
 8005f82:	f7fb f8fb 	bl	800117c <__aeabi_dadd>
 8005f86:	0002      	movs	r2, r0
 8005f88:	000b      	movs	r3, r1
 8005f8a:	0030      	movs	r0, r6
 8005f8c:	0039      	movs	r1, r7
 8005f8e:	f7fb fc59 	bl	8001844 <__aeabi_ddiv>
 8005f92:	9004      	str	r0, [sp, #16]
 8005f94:	9105      	str	r1, [sp, #20]
 8005f96:	9800      	ldr	r0, [sp, #0]
 8005f98:	f7fc ff5a 	bl	8002e50 <__aeabi_i2d>
 8005f9c:	9a04      	ldr	r2, [sp, #16]
 8005f9e:	9b05      	ldr	r3, [sp, #20]
 8005fa0:	9006      	str	r0, [sp, #24]
 8005fa2:	9107      	str	r1, [sp, #28]
 8005fa4:	0010      	movs	r0, r2
 8005fa6:	0019      	movs	r1, r3
 8005fa8:	f7fc f890 	bl	80020cc <__aeabi_dmul>
 8005fac:	4a63      	ldr	r2, [pc, #396]	@ (800613c <__ieee754_log+0x324>)
 8005fae:	9b02      	ldr	r3, [sp, #8]
 8005fb0:	4694      	mov	ip, r2
 8005fb2:	4463      	add	r3, ip
 8005fb4:	0002      	movs	r2, r0
 8005fb6:	930b      	str	r3, [sp, #44]	@ 0x2c
 8005fb8:	000b      	movs	r3, r1
 8005fba:	9008      	str	r0, [sp, #32]
 8005fbc:	9109      	str	r1, [sp, #36]	@ 0x24
 8005fbe:	f7fc f885 	bl	80020cc <__aeabi_dmul>
 8005fc2:	0004      	movs	r4, r0
 8005fc4:	000d      	movs	r5, r1
 8005fc6:	4a5e      	ldr	r2, [pc, #376]	@ (8006140 <__ieee754_log+0x328>)
 8005fc8:	4b5e      	ldr	r3, [pc, #376]	@ (8006144 <__ieee754_log+0x32c>)
 8005fca:	f7fc f87f 	bl	80020cc <__aeabi_dmul>
 8005fce:	4a5e      	ldr	r2, [pc, #376]	@ (8006148 <__ieee754_log+0x330>)
 8005fd0:	4b5e      	ldr	r3, [pc, #376]	@ (800614c <__ieee754_log+0x334>)
 8005fd2:	f7fb f8d3 	bl	800117c <__aeabi_dadd>
 8005fd6:	0022      	movs	r2, r4
 8005fd8:	002b      	movs	r3, r5
 8005fda:	f7fc f877 	bl	80020cc <__aeabi_dmul>
 8005fde:	4a5c      	ldr	r2, [pc, #368]	@ (8006150 <__ieee754_log+0x338>)
 8005fe0:	4b5c      	ldr	r3, [pc, #368]	@ (8006154 <__ieee754_log+0x33c>)
 8005fe2:	f7fb f8cb 	bl	800117c <__aeabi_dadd>
 8005fe6:	0022      	movs	r2, r4
 8005fe8:	002b      	movs	r3, r5
 8005fea:	f7fc f86f 	bl	80020cc <__aeabi_dmul>
 8005fee:	4a5a      	ldr	r2, [pc, #360]	@ (8006158 <__ieee754_log+0x340>)
 8005ff0:	4b5a      	ldr	r3, [pc, #360]	@ (800615c <__ieee754_log+0x344>)
 8005ff2:	f7fb f8c3 	bl	800117c <__aeabi_dadd>
 8005ff6:	9a08      	ldr	r2, [sp, #32]
 8005ff8:	9b09      	ldr	r3, [sp, #36]	@ 0x24
 8005ffa:	f7fc f867 	bl	80020cc <__aeabi_dmul>
 8005ffe:	4a58      	ldr	r2, [pc, #352]	@ (8006160 <__ieee754_log+0x348>)
 8006000:	9008      	str	r0, [sp, #32]
 8006002:	9109      	str	r1, [sp, #36]	@ 0x24
 8006004:	4b57      	ldr	r3, [pc, #348]	@ (8006164 <__ieee754_log+0x34c>)
 8006006:	0020      	movs	r0, r4
 8006008:	0029      	movs	r1, r5
 800600a:	f7fc f85f 	bl	80020cc <__aeabi_dmul>
 800600e:	4a56      	ldr	r2, [pc, #344]	@ (8006168 <__ieee754_log+0x350>)
 8006010:	4b56      	ldr	r3, [pc, #344]	@ (800616c <__ieee754_log+0x354>)
 8006012:	f7fb f8b3 	bl	800117c <__aeabi_dadd>
 8006016:	0022      	movs	r2, r4
 8006018:	002b      	movs	r3, r5
 800601a:	f7fc f857 	bl	80020cc <__aeabi_dmul>
 800601e:	4a54      	ldr	r2, [pc, #336]	@ (8006170 <__ieee754_log+0x358>)
 8006020:	4b54      	ldr	r3, [pc, #336]	@ (8006174 <__ieee754_log+0x35c>)
 8006022:	f7fb f8ab 	bl	800117c <__aeabi_dadd>
 8006026:	0022      	movs	r2, r4
 8006028:	002b      	movs	r3, r5
 800602a:	f7fc f84f 	bl	80020cc <__aeabi_dmul>
 800602e:	0002      	movs	r2, r0
 8006030:	000b      	movs	r3, r1
 8006032:	9808      	ldr	r0, [sp, #32]
 8006034:	9909      	ldr	r1, [sp, #36]	@ 0x24
 8006036:	f7fb f8a1 	bl	800117c <__aeabi_dadd>
 800603a:	9a02      	ldr	r2, [sp, #8]
 800603c:	4b4e      	ldr	r3, [pc, #312]	@ (8006178 <__ieee754_log+0x360>)
 800603e:	0004      	movs	r4, r0
 8006040:	1a9b      	subs	r3, r3, r2
 8006042:	9a0b      	ldr	r2, [sp, #44]	@ 0x2c
 8006044:	000d      	movs	r5, r1
 8006046:	4313      	orrs	r3, r2
 8006048:	2b00      	cmp	r3, #0
 800604a:	dd34      	ble.n	80060b6 <__ieee754_log+0x29e>
 800604c:	2200      	movs	r2, #0
 800604e:	4b3a      	ldr	r3, [pc, #232]	@ (8006138 <__ieee754_log+0x320>)
 8006050:	0030      	movs	r0, r6
 8006052:	0039      	movs	r1, r7
 8006054:	f7fc f83a 	bl	80020cc <__aeabi_dmul>
 8006058:	0032      	movs	r2, r6
 800605a:	003b      	movs	r3, r7
 800605c:	f7fc f836 	bl	80020cc <__aeabi_dmul>
 8006060:	0002      	movs	r2, r0
 8006062:	000b      	movs	r3, r1
 8006064:	9002      	str	r0, [sp, #8]
 8006066:	9103      	str	r1, [sp, #12]
 8006068:	0020      	movs	r0, r4
 800606a:	0029      	movs	r1, r5
 800606c:	f7fb f886 	bl	800117c <__aeabi_dadd>
 8006070:	9a04      	ldr	r2, [sp, #16]
 8006072:	9b05      	ldr	r3, [sp, #20]
 8006074:	f7fc f82a 	bl	80020cc <__aeabi_dmul>
 8006078:	9b00      	ldr	r3, [sp, #0]
 800607a:	0004      	movs	r4, r0
 800607c:	000d      	movs	r5, r1
 800607e:	2b00      	cmp	r3, #0
 8006080:	d106      	bne.n	8006090 <__ieee754_log+0x278>
 8006082:	0002      	movs	r2, r0
 8006084:	000b      	movs	r3, r1
 8006086:	9802      	ldr	r0, [sp, #8]
 8006088:	9903      	ldr	r1, [sp, #12]
 800608a:	f7fc fae7 	bl	800265c <__aeabi_dsub>
 800608e:	e74f      	b.n	8005f30 <__ieee754_log+0x118>
 8006090:	4a23      	ldr	r2, [pc, #140]	@ (8006120 <__ieee754_log+0x308>)
 8006092:	4b24      	ldr	r3, [pc, #144]	@ (8006124 <__ieee754_log+0x30c>)
 8006094:	9806      	ldr	r0, [sp, #24]
 8006096:	9907      	ldr	r1, [sp, #28]
 8006098:	f7fc f818 	bl	80020cc <__aeabi_dmul>
 800609c:	4a22      	ldr	r2, [pc, #136]	@ (8006128 <__ieee754_log+0x310>)
 800609e:	9000      	str	r0, [sp, #0]
 80060a0:	9101      	str	r1, [sp, #4]
 80060a2:	9806      	ldr	r0, [sp, #24]
 80060a4:	9907      	ldr	r1, [sp, #28]
 80060a6:	4b21      	ldr	r3, [pc, #132]	@ (800612c <__ieee754_log+0x314>)
 80060a8:	f7fc f810 	bl	80020cc <__aeabi_dmul>
 80060ac:	0022      	movs	r2, r4
 80060ae:	002b      	movs	r3, r5
 80060b0:	f7fb f864 	bl	800117c <__aeabi_dadd>
 80060b4:	e754      	b.n	8005f60 <__ieee754_log+0x148>
 80060b6:	0002      	movs	r2, r0
 80060b8:	000b      	movs	r3, r1
 80060ba:	0030      	movs	r0, r6
 80060bc:	0039      	movs	r1, r7
 80060be:	f7fc facd 	bl	800265c <__aeabi_dsub>
 80060c2:	9a04      	ldr	r2, [sp, #16]
 80060c4:	9b05      	ldr	r3, [sp, #20]
 80060c6:	f7fc f801 	bl	80020cc <__aeabi_dmul>
 80060ca:	9b00      	ldr	r3, [sp, #0]
 80060cc:	0004      	movs	r4, r0
 80060ce:	000d      	movs	r5, r1
 80060d0:	2b00      	cmp	r3, #0
 80060d2:	d102      	bne.n	80060da <__ieee754_log+0x2c2>
 80060d4:	0002      	movs	r2, r0
 80060d6:	000b      	movs	r3, r1
 80060d8:	e72c      	b.n	8005f34 <__ieee754_log+0x11c>
 80060da:	4a11      	ldr	r2, [pc, #68]	@ (8006120 <__ieee754_log+0x308>)
 80060dc:	4b11      	ldr	r3, [pc, #68]	@ (8006124 <__ieee754_log+0x30c>)
 80060de:	9806      	ldr	r0, [sp, #24]
 80060e0:	9907      	ldr	r1, [sp, #28]
 80060e2:	f7fb fff3 	bl	80020cc <__aeabi_dmul>
 80060e6:	4a10      	ldr	r2, [pc, #64]	@ (8006128 <__ieee754_log+0x310>)
 80060e8:	9000      	str	r0, [sp, #0]
 80060ea:	9101      	str	r1, [sp, #4]
 80060ec:	9806      	ldr	r0, [sp, #24]
 80060ee:	9907      	ldr	r1, [sp, #28]
 80060f0:	4b0e      	ldr	r3, [pc, #56]	@ (800612c <__ieee754_log+0x314>)
 80060f2:	f7fb ffeb 	bl	80020cc <__aeabi_dmul>
 80060f6:	0002      	movs	r2, r0
 80060f8:	000b      	movs	r3, r1
 80060fa:	0020      	movs	r0, r4
 80060fc:	0029      	movs	r1, r5
 80060fe:	e733      	b.n	8005f68 <__ieee754_log+0x150>
 8006100:	2000      	movs	r0, #0
 8006102:	2100      	movs	r1, #0
 8006104:	e699      	b.n	8005e3a <__ieee754_log+0x22>
 8006106:	46c0      	nop			@ (mov r8, r8)
 8006108:	c3500000 	.word	0xc3500000
 800610c:	43500000 	.word	0x43500000
 8006110:	7fefffff 	.word	0x7fefffff
 8006114:	fffffc01 	.word	0xfffffc01
 8006118:	00095f64 	.word	0x00095f64
 800611c:	3ff00000 	.word	0x3ff00000
 8006120:	fee00000 	.word	0xfee00000
 8006124:	3fe62e42 	.word	0x3fe62e42
 8006128:	35793c76 	.word	0x35793c76
 800612c:	3dea39ef 	.word	0x3dea39ef
 8006130:	55555555 	.word	0x55555555
 8006134:	3fd55555 	.word	0x3fd55555
 8006138:	3fe00000 	.word	0x3fe00000
 800613c:	fff9eb86 	.word	0xfff9eb86
 8006140:	df3e5244 	.word	0xdf3e5244
 8006144:	3fc2f112 	.word	0x3fc2f112
 8006148:	96cb03de 	.word	0x96cb03de
 800614c:	3fc74664 	.word	0x3fc74664
 8006150:	94229359 	.word	0x94229359
 8006154:	3fd24924 	.word	0x3fd24924
 8006158:	55555593 	.word	0x55555593
 800615c:	3fe55555 	.word	0x3fe55555
 8006160:	d078c69f 	.word	0xd078c69f
 8006164:	3fc39a09 	.word	0x3fc39a09
 8006168:	1d8e78af 	.word	0x1d8e78af
 800616c:	3fcc71c5 	.word	0x3fcc71c5
 8006170:	9997fa04 	.word	0x9997fa04
 8006174:	3fd99999 	.word	0x3fd99999
 8006178:	0006b851 	.word	0x0006b851

0800617c <_init>:
 800617c:	b5f8      	push	{r3, r4, r5, r6, r7, lr}
 800617e:	46c0      	nop			@ (mov r8, r8)
 8006180:	bcf8      	pop	{r3, r4, r5, r6, r7}
 8006182:	bc08      	pop	{r3}
 8006184:	469e      	mov	lr, r3
 8006186:	4770      	bx	lr

08006188 <_fini>:
 8006188:	b5f8      	push	{r3, r4, r5, r6, r7, lr}
 800618a:	46c0      	nop			@ (mov r8, r8)
 800618c:	bcf8      	pop	{r3, r4, r5, r6, r7}
 800618e:	bc08      	pop	{r3}
 8006190:	469e      	mov	lr, r3
 8006192:	4770      	bx	lr
